

Microchip Technology PIC LITE Macro Assembler V1.45 build -152302408 
                                                                                               Sat May  5 12:22:09 2018

Microchip Technology Omniscient Code Generator v1.45 (Free mode) build 201711160504
     1                           	processor	16F18325
     2                           	opt	pw 120
     3                           	opt	lm
     4                           	psect	cinit,global,class=CODE,merge=1,delta=2
     5                           	psect	bssBANK0,global,class=BANK0,space=1,delta=1
     6                           	psect	clrtext,global,class=CODE,delta=2
     7                           	psect	cstackCOMMON,global,class=COMMON,space=1,delta=1
     8                           	psect	cstackBANK0,global,class=BANK0,space=1,delta=1
     9                           	psect	maintext,global,class=CODE,merge=1,split=1,delta=2
    10                           	psect	text1,local,class=CODE,merge=1,delta=2
    11                           	psect	text2,local,class=CODE,merge=1,delta=2
    12                           	psect	text3,local,class=CODE,merge=1,delta=2
    13                           	psect	text4,local,class=CODE,merge=1,delta=2
    14                           	psect	text5,local,class=CODE,merge=1,delta=2
    15                           	psect	text6,local,class=CODE,merge=1,delta=2
    16                           	psect	text7,local,class=CODE,merge=1,delta=2
    17                           	psect	text8,local,class=CODE,merge=1,delta=2
    18                           	psect	text9,local,class=CODE,merge=1,delta=2,group=2
    19                           	psect	text10,local,class=CODE,merge=1,delta=2
    20                           	dabs	1,0x7E,2
    21  0000                     
    22                           ; Version 1.45
    23                           ; Generated 16/11/2017 GMT
    24                           ; 
    25                           ; Copyright © 2017, Microchip Technology Inc. and its subsidiaries ("Microchip")
    26                           ; All rights reserved.
    27                           ; 
    28                           ; This software is developed by Microchip Technology Inc. and its subsidiaries ("Microch
      +                          ip").
    29                           ; 
    30                           ; Redistribution and use in source and binary forms, with or without modification, are
    31                           ; permitted provided that the following conditions are met:
    32                           ; 
    33                           ;     1. Redistributions of source code must retain the above copyright notice, this lis
      +                          t of
    34                           ;        conditions and the following disclaimer.
    35                           ; 
    36                           ;     2. Redistributions in binary form must reproduce the above copyright notice, this 
      +                          list
    37                           ;        of conditions and the following disclaimer in the documentation and/or other
    38                           ;        materials provided with the distribution.
    39                           ; 
    40                           ;     3. Microchip's name may not be used to endorse or promote products derived from th
      +                          is
    41                           ;        software without specific prior written permission.
    42                           ; 
    43                           ; THIS SOFTWARE IS PROVIDED BY MICROCHIP "AS IS" AND ANY EXPRESS OR IMPLIED WARRANTIES,
    44                           ; INCLUDING, BUT NOT LIMITED TO, THE IMPLIED WARRANTIES OF MERCHANTABILITY AND FITNESS F
      +                          OR
    45                           ; PURPOSE ARE DISCLAIMED.  IN NO EVENT SHALL MICROCHIP BE LIABLE FOR ANY DIRECT, INDIREC
      +                          T,
    46                           ; INCIDENTAL, SPECIAL, EXEMPLARY, OR CONSEQUENTIAL DAMAGES (INCLUDING BUT NOT LIMITED TO
    47                           ; PROCUREMENT OF SUBSTITUTE GOODS OR SERVICES; LOSS OF USE, DATA OR PROFITS; OR BUSINESS
    48                           ; INTERRUPTION) HOWSOEVER CAUSED AND ON ANY THEORY OF LIABILITY, WHETHER IN CONTRACT, ST
      +                          RICT
    49                           ; LIABILITY, OR TORT (INCLUDING NEGLIGENCE OR OTHERWISE) ARISING IN ANY WAY OUT OF THE U
      +                          SE OF
    50                           ; THIS SOFTWARE, EVEN IF ADVISED OF THE POSSIBILITY OF SUCH DAMAGE.
    51                           ; 
    52                           ; 
    53                           ; Code-generator required, PIC16F18325 Definitions
    54                           ; 
    55                           ; SFR Addresses
    56  0000                     	;# 
    57  0001                     	;# 
    58  0002                     	;# 
    59  0003                     	;# 
    60  0004                     	;# 
    61  0005                     	;# 
    62  0006                     	;# 
    63  0007                     	;# 
    64  0008                     	;# 
    65  0009                     	;# 
    66  000A                     	;# 
    67  000B                     	;# 
    68  000C                     	;# 
    69  000E                     	;# 
    70  0010                     	;# 
    71  0011                     	;# 
    72  0012                     	;# 
    73  0013                     	;# 
    74  0014                     	;# 
    75  0015                     	;# 
    76  0015                     	;# 
    77  0016                     	;# 
    78  0016                     	;# 
    79  0017                     	;# 
    80  0018                     	;# 
    81  0019                     	;# 
    82  0019                     	;# 
    83  001A                     	;# 
    84  001B                     	;# 
    85  001C                     	;# 
    86  001D                     	;# 
    87  001E                     	;# 
    88  001F                     	;# 
    89  008C                     	;# 
    90  008E                     	;# 
    91  0090                     	;# 
    92  0091                     	;# 
    93  0092                     	;# 
    94  0093                     	;# 
    95  0094                     	;# 
    96  0097                     	;# 
    97  009B                     	;# 
    98  009B                     	;# 
    99  009C                     	;# 
   100  009D                     	;# 
   101  009E                     	;# 
   102  009F                     	;# 
   103  010C                     	;# 
   104  010E                     	;# 
   105  0111                     	;# 
   106  0112                     	;# 
   107  0113                     	;# 
   108  0114                     	;# 
   109  0115                     	;# 
   110  0116                     	;# 
   111  0117                     	;# 
   112  0118                     	;# 
   113  0119                     	;# 
   114  018C                     	;# 
   115  018E                     	;# 
   116  0197                     	;# 
   117  0199                     	;# 
   118  0199                     	;# 
   119  0199                     	;# 
   120  019A                     	;# 
   121  019A                     	;# 
   122  019A                     	;# 
   123  019B                     	;# 
   124  019B                     	;# 
   125  019B                     	;# 
   126  019B                     	;# 
   127  019B                     	;# 
   128  019C                     	;# 
   129  019C                     	;# 
   130  019C                     	;# 
   131  019D                     	;# 
   132  019D                     	;# 
   133  019D                     	;# 
   134  019E                     	;# 
   135  019E                     	;# 
   136  019E                     	;# 
   137  019F                     	;# 
   138  019F                     	;# 
   139  019F                     	;# 
   140  019F                     	;# 
   141  019F                     	;# 
   142  020C                     	;# 
   143  020E                     	;# 
   144  0211                     	;# 
   145  0211                     	;# 
   146  0212                     	;# 
   147  0212                     	;# 
   148  0213                     	;# 
   149  0213                     	;# 
   150  0214                     	;# 
   151  0214                     	;# 
   152  0215                     	;# 
   153  0215                     	;# 
   154  0215                     	;# 
   155  0215                     	;# 
   156  0216                     	;# 
   157  0216                     	;# 
   158  0217                     	;# 
   159  0217                     	;# 
   160  0219                     	;# 
   161  021A                     	;# 
   162  021B                     	;# 
   163  021C                     	;# 
   164  021D                     	;# 
   165  021D                     	;# 
   166  021E                     	;# 
   167  021F                     	;# 
   168  028C                     	;# 
   169  028E                     	;# 
   170  0291                     	;# 
   171  0291                     	;# 
   172  0292                     	;# 
   173  0293                     	;# 
   174  0294                     	;# 
   175  0295                     	;# 
   176  0295                     	;# 
   177  0296                     	;# 
   178  0297                     	;# 
   179  0298                     	;# 
   180  029F                     	;# 
   181  030C                     	;# 
   182  030E                     	;# 
   183  0311                     	;# 
   184  0311                     	;# 
   185  0312                     	;# 
   186  0313                     	;# 
   187  0314                     	;# 
   188  0315                     	;# 
   189  0315                     	;# 
   190  0316                     	;# 
   191  0317                     	;# 
   192  0318                     	;# 
   193  038C                     	;# 
   194  038E                     	;# 
   195  0391                     	;# 
   196  0392                     	;# 
   197  0393                     	;# 
   198  0397                     	;# 
   199  0398                     	;# 
   200  0399                     	;# 
   201  039A                     	;# 
   202  039C                     	;# 
   203  039D                     	;# 
   204  039E                     	;# 
   205  039F                     	;# 
   206  0411                     	;# 
   207  0411                     	;# 
   208  0412                     	;# 
   209  0413                     	;# 
   210  0414                     	;# 
   211  0415                     	;# 
   212  0416                     	;# 
   213  0417                     	;# 
   214  0418                     	;# 
   215  0418                     	;# 
   216  0419                     	;# 
   217  041A                     	;# 
   218  041B                     	;# 
   219  041C                     	;# 
   220  041D                     	;# 
   221  041E                     	;# 
   222  041F                     	;# 
   223  0498                     	;# 
   224  0498                     	;# 
   225  0499                     	;# 
   226  049A                     	;# 
   227  049B                     	;# 
   228  049B                     	;# 
   229  049C                     	;# 
   230  049D                     	;# 
   231  049E                     	;# 
   232  049F                     	;# 
   233  0617                     	;# 
   234  0618                     	;# 
   235  0619                     	;# 
   236  0619                     	;# 
   237  061A                     	;# 
   238  061B                     	;# 
   239  061C                     	;# 
   240  061C                     	;# 
   241  061F                     	;# 
   242  0691                     	;# 
   243  0692                     	;# 
   244  0693                     	;# 
   245  0694                     	;# 
   246  0695                     	;# 
   247  0696                     	;# 
   248  0697                     	;# 
   249  0698                     	;# 
   250  0699                     	;# 
   251  0711                     	;# 
   252  0712                     	;# 
   253  0713                     	;# 
   254  0714                     	;# 
   255  0715                     	;# 
   256  0716                     	;# 
   257  0717                     	;# 
   258  0718                     	;# 
   259  0719                     	;# 
   260  0891                     	;# 
   261  0891                     	;# 
   262  0891                     	;# 
   263  0891                     	;# 
   264  0891                     	;# 
   265  0891                     	;# 
   266  0892                     	;# 
   267  0892                     	;# 
   268  0892                     	;# 
   269  0893                     	;# 
   270  0893                     	;# 
   271  0893                     	;# 
   272  0893                     	;# 
   273  0893                     	;# 
   274  0893                     	;# 
   275  0894                     	;# 
   276  0894                     	;# 
   277  0894                     	;# 
   278  0895                     	;# 
   279  0895                     	;# 
   280  0895                     	;# 
   281  0896                     	;# 
   282  0896                     	;# 
   283  0896                     	;# 
   284  089B                     	;# 
   285  0911                     	;# 
   286  0912                     	;# 
   287  0913                     	;# 
   288  0914                     	;# 
   289  0915                     	;# 
   290  0916                     	;# 
   291  0918                     	;# 
   292  0919                     	;# 
   293  091A                     	;# 
   294  091B                     	;# 
   295  091C                     	;# 
   296  091D                     	;# 
   297  091E                     	;# 
   298  091F                     	;# 
   299  0E0F                     	;# 
   300  0E10                     	;# 
   301  0E11                     	;# 
   302  0E12                     	;# 
   303  0E13                     	;# 
   304  0E14                     	;# 
   305  0E15                     	;# 
   306  0E16                     	;# 
   307  0E17                     	;# 
   308  0E18                     	;# 
   309  0E19                     	;# 
   310  0E1A                     	;# 
   311  0E1B                     	;# 
   312  0E1C                     	;# 
   313  0E1D                     	;# 
   314  0E1E                     	;# 
   315  0E1F                     	;# 
   316  0E20                     	;# 
   317  0E21                     	;# 
   318  0E22                     	;# 
   319  0E24                     	;# 
   320  0E25                     	;# 
   321  0E28                     	;# 
   322  0E29                     	;# 
   323  0E2A                     	;# 
   324  0E2B                     	;# 
   325  0E2C                     	;# 
   326  0E2D                     	;# 
   327  0E2E                     	;# 
   328  0E2F                     	;# 
   329  0E90                     	;# 
   330  0E91                     	;# 
   331  0E92                     	;# 
   332  0E94                     	;# 
   333  0E95                     	;# 
   334  0EA0                     	;# 
   335  0EA1                     	;# 
   336  0EA2                     	;# 
   337  0EA3                     	;# 
   338  0EA4                     	;# 
   339  0EA5                     	;# 
   340  0F0F                     	;# 
   341  0F10                     	;# 
   342  0F11                     	;# 
   343  0F12                     	;# 
   344  0F13                     	;# 
   345  0F14                     	;# 
   346  0F15                     	;# 
   347  0F16                     	;# 
   348  0F17                     	;# 
   349  0F18                     	;# 
   350  0F19                     	;# 
   351  0F1A                     	;# 
   352  0F1B                     	;# 
   353  0F1C                     	;# 
   354  0F1D                     	;# 
   355  0F1E                     	;# 
   356  0F1F                     	;# 
   357  0F20                     	;# 
   358  0F21                     	;# 
   359  0F22                     	;# 
   360  0F23                     	;# 
   361  0F24                     	;# 
   362  0F25                     	;# 
   363  0F26                     	;# 
   364  0F27                     	;# 
   365  0F28                     	;# 
   366  0F29                     	;# 
   367  0F2A                     	;# 
   368  0F2B                     	;# 
   369  0F2C                     	;# 
   370  0F2D                     	;# 
   371  0F2E                     	;# 
   372  0F2F                     	;# 
   373  0F30                     	;# 
   374  0F31                     	;# 
   375  0F32                     	;# 
   376  0F33                     	;# 
   377  0F34                     	;# 
   378  0F35                     	;# 
   379  0F36                     	;# 
   380  0F37                     	;# 
   381  0FE4                     	;# 
   382  0FE5                     	;# 
   383  0FE6                     	;# 
   384  0FE7                     	;# 
   385  0FE8                     	;# 
   386  0FE9                     	;# 
   387  0FEA                     	;# 
   388  0FEB                     	;# 
   389  0FED                     	;# 
   390  0FEE                     	;# 
   391  0FEF                     	;# 
   392  0000                     	;# 
   393  0001                     	;# 
   394  0002                     	;# 
   395  0003                     	;# 
   396  0004                     	;# 
   397  0005                     	;# 
   398  0006                     	;# 
   399  0007                     	;# 
   400  0008                     	;# 
   401  0009                     	;# 
   402  000A                     	;# 
   403  000B                     	;# 
   404  000C                     	;# 
   405  000E                     	;# 
   406  0010                     	;# 
   407  0011                     	;# 
   408  0012                     	;# 
   409  0013                     	;# 
   410  0014                     	;# 
   411  0015                     	;# 
   412  0015                     	;# 
   413  0016                     	;# 
   414  0016                     	;# 
   415  0017                     	;# 
   416  0018                     	;# 
   417  0019                     	;# 
   418  0019                     	;# 
   419  001A                     	;# 
   420  001B                     	;# 
   421  001C                     	;# 
   422  001D                     	;# 
   423  001E                     	;# 
   424  001F                     	;# 
   425  008C                     	;# 
   426  008E                     	;# 
   427  0090                     	;# 
   428  0091                     	;# 
   429  0092                     	;# 
   430  0093                     	;# 
   431  0094                     	;# 
   432  0097                     	;# 
   433  009B                     	;# 
   434  009B                     	;# 
   435  009C                     	;# 
   436  009D                     	;# 
   437  009E                     	;# 
   438  009F                     	;# 
   439  010C                     	;# 
   440  010E                     	;# 
   441  0111                     	;# 
   442  0112                     	;# 
   443  0113                     	;# 
   444  0114                     	;# 
   445  0115                     	;# 
   446  0116                     	;# 
   447  0117                     	;# 
   448  0118                     	;# 
   449  0119                     	;# 
   450  018C                     	;# 
   451  018E                     	;# 
   452  0197                     	;# 
   453  0199                     	;# 
   454  0199                     	;# 
   455  0199                     	;# 
   456  019A                     	;# 
   457  019A                     	;# 
   458  019A                     	;# 
   459  019B                     	;# 
   460  019B                     	;# 
   461  019B                     	;# 
   462  019B                     	;# 
   463  019B                     	;# 
   464  019C                     	;# 
   465  019C                     	;# 
   466  019C                     	;# 
   467  019D                     	;# 
   468  019D                     	;# 
   469  019D                     	;# 
   470  019E                     	;# 
   471  019E                     	;# 
   472  019E                     	;# 
   473  019F                     	;# 
   474  019F                     	;# 
   475  019F                     	;# 
   476  019F                     	;# 
   477  019F                     	;# 
   478  020C                     	;# 
   479  020E                     	;# 
   480  0211                     	;# 
   481  0211                     	;# 
   482  0212                     	;# 
   483  0212                     	;# 
   484  0213                     	;# 
   485  0213                     	;# 
   486  0214                     	;# 
   487  0214                     	;# 
   488  0215                     	;# 
   489  0215                     	;# 
   490  0215                     	;# 
   491  0215                     	;# 
   492  0216                     	;# 
   493  0216                     	;# 
   494  0217                     	;# 
   495  0217                     	;# 
   496  0219                     	;# 
   497  021A                     	;# 
   498  021B                     	;# 
   499  021C                     	;# 
   500  021D                     	;# 
   501  021D                     	;# 
   502  021E                     	;# 
   503  021F                     	;# 
   504  028C                     	;# 
   505  028E                     	;# 
   506  0291                     	;# 
   507  0291                     	;# 
   508  0292                     	;# 
   509  0293                     	;# 
   510  0294                     	;# 
   511  0295                     	;# 
   512  0295                     	;# 
   513  0296                     	;# 
   514  0297                     	;# 
   515  0298                     	;# 
   516  029F                     	;# 
   517  030C                     	;# 
   518  030E                     	;# 
   519  0311                     	;# 
   520  0311                     	;# 
   521  0312                     	;# 
   522  0313                     	;# 
   523  0314                     	;# 
   524  0315                     	;# 
   525  0315                     	;# 
   526  0316                     	;# 
   527  0317                     	;# 
   528  0318                     	;# 
   529  038C                     	;# 
   530  038E                     	;# 
   531  0391                     	;# 
   532  0392                     	;# 
   533  0393                     	;# 
   534  0397                     	;# 
   535  0398                     	;# 
   536  0399                     	;# 
   537  039A                     	;# 
   538  039C                     	;# 
   539  039D                     	;# 
   540  039E                     	;# 
   541  039F                     	;# 
   542  0411                     	;# 
   543  0411                     	;# 
   544  0412                     	;# 
   545  0413                     	;# 
   546  0414                     	;# 
   547  0415                     	;# 
   548  0416                     	;# 
   549  0417                     	;# 
   550  0418                     	;# 
   551  0418                     	;# 
   552  0419                     	;# 
   553  041A                     	;# 
   554  041B                     	;# 
   555  041C                     	;# 
   556  041D                     	;# 
   557  041E                     	;# 
   558  041F                     	;# 
   559  0498                     	;# 
   560  0498                     	;# 
   561  0499                     	;# 
   562  049A                     	;# 
   563  049B                     	;# 
   564  049B                     	;# 
   565  049C                     	;# 
   566  049D                     	;# 
   567  049E                     	;# 
   568  049F                     	;# 
   569  0617                     	;# 
   570  0618                     	;# 
   571  0619                     	;# 
   572  0619                     	;# 
   573  061A                     	;# 
   574  061B                     	;# 
   575  061C                     	;# 
   576  061C                     	;# 
   577  061F                     	;# 
   578  0691                     	;# 
   579  0692                     	;# 
   580  0693                     	;# 
   581  0694                     	;# 
   582  0695                     	;# 
   583  0696                     	;# 
   584  0697                     	;# 
   585  0698                     	;# 
   586  0699                     	;# 
   587  0711                     	;# 
   588  0712                     	;# 
   589  0713                     	;# 
   590  0714                     	;# 
   591  0715                     	;# 
   592  0716                     	;# 
   593  0717                     	;# 
   594  0718                     	;# 
   595  0719                     	;# 
   596  0891                     	;# 
   597  0891                     	;# 
   598  0891                     	;# 
   599  0891                     	;# 
   600  0891                     	;# 
   601  0891                     	;# 
   602  0892                     	;# 
   603  0892                     	;# 
   604  0892                     	;# 
   605  0893                     	;# 
   606  0893                     	;# 
   607  0893                     	;# 
   608  0893                     	;# 
   609  0893                     	;# 
   610  0893                     	;# 
   611  0894                     	;# 
   612  0894                     	;# 
   613  0894                     	;# 
   614  0895                     	;# 
   615  0895                     	;# 
   616  0895                     	;# 
   617  0896                     	;# 
   618  0896                     	;# 
   619  0896                     	;# 
   620  089B                     	;# 
   621  0911                     	;# 
   622  0912                     	;# 
   623  0913                     	;# 
   624  0914                     	;# 
   625  0915                     	;# 
   626  0916                     	;# 
   627  0918                     	;# 
   628  0919                     	;# 
   629  091A                     	;# 
   630  091B                     	;# 
   631  091C                     	;# 
   632  091D                     	;# 
   633  091E                     	;# 
   634  091F                     	;# 
   635  0E0F                     	;# 
   636  0E10                     	;# 
   637  0E11                     	;# 
   638  0E12                     	;# 
   639  0E13                     	;# 
   640  0E14                     	;# 
   641  0E15                     	;# 
   642  0E16                     	;# 
   643  0E17                     	;# 
   644  0E18                     	;# 
   645  0E19                     	;# 
   646  0E1A                     	;# 
   647  0E1B                     	;# 
   648  0E1C                     	;# 
   649  0E1D                     	;# 
   650  0E1E                     	;# 
   651  0E1F                     	;# 
   652  0E20                     	;# 
   653  0E21                     	;# 
   654  0E22                     	;# 
   655  0E24                     	;# 
   656  0E25                     	;# 
   657  0E28                     	;# 
   658  0E29                     	;# 
   659  0E2A                     	;# 
   660  0E2B                     	;# 
   661  0E2C                     	;# 
   662  0E2D                     	;# 
   663  0E2E                     	;# 
   664  0E2F                     	;# 
   665  0E90                     	;# 
   666  0E91                     	;# 
   667  0E92                     	;# 
   668  0E94                     	;# 
   669  0E95                     	;# 
   670  0EA0                     	;# 
   671  0EA1                     	;# 
   672  0EA2                     	;# 
   673  0EA3                     	;# 
   674  0EA4                     	;# 
   675  0EA5                     	;# 
   676  0F0F                     	;# 
   677  0F10                     	;# 
   678  0F11                     	;# 
   679  0F12                     	;# 
   680  0F13                     	;# 
   681  0F14                     	;# 
   682  0F15                     	;# 
   683  0F16                     	;# 
   684  0F17                     	;# 
   685  0F18                     	;# 
   686  0F19                     	;# 
   687  0F1A                     	;# 
   688  0F1B                     	;# 
   689  0F1C                     	;# 
   690  0F1D                     	;# 
   691  0F1E                     	;# 
   692  0F1F                     	;# 
   693  0F20                     	;# 
   694  0F21                     	;# 
   695  0F22                     	;# 
   696  0F23                     	;# 
   697  0F24                     	;# 
   698  0F25                     	;# 
   699  0F26                     	;# 
   700  0F27                     	;# 
   701  0F28                     	;# 
   702  0F29                     	;# 
   703  0F2A                     	;# 
   704  0F2B                     	;# 
   705  0F2C                     	;# 
   706  0F2D                     	;# 
   707  0F2E                     	;# 
   708  0F2F                     	;# 
   709  0F30                     	;# 
   710  0F31                     	;# 
   711  0F32                     	;# 
   712  0F33                     	;# 
   713  0F34                     	;# 
   714  0F35                     	;# 
   715  0F36                     	;# 
   716  0F37                     	;# 
   717  0FE4                     	;# 
   718  0FE5                     	;# 
   719  0FE6                     	;# 
   720  0FE7                     	;# 
   721  0FE8                     	;# 
   722  0FE9                     	;# 
   723  0FEA                     	;# 
   724  0FEB                     	;# 
   725  0FED                     	;# 
   726  0FEE                     	;# 
   727  0FEF                     	;# 
   728  0000                     	;# 
   729  0001                     	;# 
   730  0002                     	;# 
   731  0003                     	;# 
   732  0004                     	;# 
   733  0005                     	;# 
   734  0006                     	;# 
   735  0007                     	;# 
   736  0008                     	;# 
   737  0009                     	;# 
   738  000A                     	;# 
   739  000B                     	;# 
   740  000C                     	;# 
   741  000E                     	;# 
   742  0010                     	;# 
   743  0011                     	;# 
   744  0012                     	;# 
   745  0013                     	;# 
   746  0014                     	;# 
   747  0015                     	;# 
   748  0015                     	;# 
   749  0016                     	;# 
   750  0016                     	;# 
   751  0017                     	;# 
   752  0018                     	;# 
   753  0019                     	;# 
   754  0019                     	;# 
   755  001A                     	;# 
   756  001B                     	;# 
   757  001C                     	;# 
   758  001D                     	;# 
   759  001E                     	;# 
   760  001F                     	;# 
   761  008C                     	;# 
   762  008E                     	;# 
   763  0090                     	;# 
   764  0091                     	;# 
   765  0092                     	;# 
   766  0093                     	;# 
   767  0094                     	;# 
   768  0097                     	;# 
   769  009B                     	;# 
   770  009B                     	;# 
   771  009C                     	;# 
   772  009D                     	;# 
   773  009E                     	;# 
   774  009F                     	;# 
   775  010C                     	;# 
   776  010E                     	;# 
   777  0111                     	;# 
   778  0112                     	;# 
   779  0113                     	;# 
   780  0114                     	;# 
   781  0115                     	;# 
   782  0116                     	;# 
   783  0117                     	;# 
   784  0118                     	;# 
   785  0119                     	;# 
   786  018C                     	;# 
   787  018E                     	;# 
   788  0197                     	;# 
   789  0199                     	;# 
   790  0199                     	;# 
   791  0199                     	;# 
   792  019A                     	;# 
   793  019A                     	;# 
   794  019A                     	;# 
   795  019B                     	;# 
   796  019B                     	;# 
   797  019B                     	;# 
   798  019B                     	;# 
   799  019B                     	;# 
   800  019C                     	;# 
   801  019C                     	;# 
   802  019C                     	;# 
   803  019D                     	;# 
   804  019D                     	;# 
   805  019D                     	;# 
   806  019E                     	;# 
   807  019E                     	;# 
   808  019E                     	;# 
   809  019F                     	;# 
   810  019F                     	;# 
   811  019F                     	;# 
   812  019F                     	;# 
   813  019F                     	;# 
   814  020C                     	;# 
   815  020E                     	;# 
   816  0211                     	;# 
   817  0211                     	;# 
   818  0212                     	;# 
   819  0212                     	;# 
   820  0213                     	;# 
   821  0213                     	;# 
   822  0214                     	;# 
   823  0214                     	;# 
   824  0215                     	;# 
   825  0215                     	;# 
   826  0215                     	;# 
   827  0215                     	;# 
   828  0216                     	;# 
   829  0216                     	;# 
   830  0217                     	;# 
   831  0217                     	;# 
   832  0219                     	;# 
   833  021A                     	;# 
   834  021B                     	;# 
   835  021C                     	;# 
   836  021D                     	;# 
   837  021D                     	;# 
   838  021E                     	;# 
   839  021F                     	;# 
   840  028C                     	;# 
   841  028E                     	;# 
   842  0291                     	;# 
   843  0291                     	;# 
   844  0292                     	;# 
   845  0293                     	;# 
   846  0294                     	;# 
   847  0295                     	;# 
   848  0295                     	;# 
   849  0296                     	;# 
   850  0297                     	;# 
   851  0298                     	;# 
   852  029F                     	;# 
   853  030C                     	;# 
   854  030E                     	;# 
   855  0311                     	;# 
   856  0311                     	;# 
   857  0312                     	;# 
   858  0313                     	;# 
   859  0314                     	;# 
   860  0315                     	;# 
   861  0315                     	;# 
   862  0316                     	;# 
   863  0317                     	;# 
   864  0318                     	;# 
   865  038C                     	;# 
   866  038E                     	;# 
   867  0391                     	;# 
   868  0392                     	;# 
   869  0393                     	;# 
   870  0397                     	;# 
   871  0398                     	;# 
   872  0399                     	;# 
   873  039A                     	;# 
   874  039C                     	;# 
   875  039D                     	;# 
   876  039E                     	;# 
   877  039F                     	;# 
   878  0411                     	;# 
   879  0411                     	;# 
   880  0412                     	;# 
   881  0413                     	;# 
   882  0414                     	;# 
   883  0415                     	;# 
   884  0416                     	;# 
   885  0417                     	;# 
   886  0418                     	;# 
   887  0418                     	;# 
   888  0419                     	;# 
   889  041A                     	;# 
   890  041B                     	;# 
   891  041C                     	;# 
   892  041D                     	;# 
   893  041E                     	;# 
   894  041F                     	;# 
   895  0498                     	;# 
   896  0498                     	;# 
   897  0499                     	;# 
   898  049A                     	;# 
   899  049B                     	;# 
   900  049B                     	;# 
   901  049C                     	;# 
   902  049D                     	;# 
   903  049E                     	;# 
   904  049F                     	;# 
   905  0617                     	;# 
   906  0618                     	;# 
   907  0619                     	;# 
   908  0619                     	;# 
   909  061A                     	;# 
   910  061B                     	;# 
   911  061C                     	;# 
   912  061C                     	;# 
   913  061F                     	;# 
   914  0691                     	;# 
   915  0692                     	;# 
   916  0693                     	;# 
   917  0694                     	;# 
   918  0695                     	;# 
   919  0696                     	;# 
   920  0697                     	;# 
   921  0698                     	;# 
   922  0699                     	;# 
   923  0711                     	;# 
   924  0712                     	;# 
   925  0713                     	;# 
   926  0714                     	;# 
   927  0715                     	;# 
   928  0716                     	;# 
   929  0717                     	;# 
   930  0718                     	;# 
   931  0719                     	;# 
   932  0891                     	;# 
   933  0891                     	;# 
   934  0891                     	;# 
   935  0891                     	;# 
   936  0891                     	;# 
   937  0891                     	;# 
   938  0892                     	;# 
   939  0892                     	;# 
   940  0892                     	;# 
   941  0893                     	;# 
   942  0893                     	;# 
   943  0893                     	;# 
   944  0893                     	;# 
   945  0893                     	;# 
   946  0893                     	;# 
   947  0894                     	;# 
   948  0894                     	;# 
   949  0894                     	;# 
   950  0895                     	;# 
   951  0895                     	;# 
   952  0895                     	;# 
   953  0896                     	;# 
   954  0896                     	;# 
   955  0896                     	;# 
   956  089B                     	;# 
   957  0911                     	;# 
   958  0912                     	;# 
   959  0913                     	;# 
   960  0914                     	;# 
   961  0915                     	;# 
   962  0916                     	;# 
   963  0918                     	;# 
   964  0919                     	;# 
   965  091A                     	;# 
   966  091B                     	;# 
   967  091C                     	;# 
   968  091D                     	;# 
   969  091E                     	;# 
   970  091F                     	;# 
   971  0E0F                     	;# 
   972  0E10                     	;# 
   973  0E11                     	;# 
   974  0E12                     	;# 
   975  0E13                     	;# 
   976  0E14                     	;# 
   977  0E15                     	;# 
   978  0E16                     	;# 
   979  0E17                     	;# 
   980  0E18                     	;# 
   981  0E19                     	;# 
   982  0E1A                     	;# 
   983  0E1B                     	;# 
   984  0E1C                     	;# 
   985  0E1D                     	;# 
   986  0E1E                     	;# 
   987  0E1F                     	;# 
   988  0E20                     	;# 
   989  0E21                     	;# 
   990  0E22                     	;# 
   991  0E24                     	;# 
   992  0E25                     	;# 
   993  0E28                     	;# 
   994  0E29                     	;# 
   995  0E2A                     	;# 
   996  0E2B                     	;# 
   997  0E2C                     	;# 
   998  0E2D                     	;# 
   999  0E2E                     	;# 
  1000  0E2F                     	;# 
  1001  0E90                     	;# 
  1002  0E91                     	;# 
  1003  0E92                     	;# 
  1004  0E94                     	;# 
  1005  0E95                     	;# 
  1006  0EA0                     	;# 
  1007  0EA1                     	;# 
  1008  0EA2                     	;# 
  1009  0EA3                     	;# 
  1010  0EA4                     	;# 
  1011  0EA5                     	;# 
  1012  0F0F                     	;# 
  1013  0F10                     	;# 
  1014  0F11                     	;# 
  1015  0F12                     	;# 
  1016  0F13                     	;# 
  1017  0F14                     	;# 
  1018  0F15                     	;# 
  1019  0F16                     	;# 
  1020  0F17                     	;# 
  1021  0F18                     	;# 
  1022  0F19                     	;# 
  1023  0F1A                     	;# 
  1024  0F1B                     	;# 
  1025  0F1C                     	;# 
  1026  0F1D                     	;# 
  1027  0F1E                     	;# 
  1028  0F1F                     	;# 
  1029  0F20                     	;# 
  1030  0F21                     	;# 
  1031  0F22                     	;# 
  1032  0F23                     	;# 
  1033  0F24                     	;# 
  1034  0F25                     	;# 
  1035  0F26                     	;# 
  1036  0F27                     	;# 
  1037  0F28                     	;# 
  1038  0F29                     	;# 
  1039  0F2A                     	;# 
  1040  0F2B                     	;# 
  1041  0F2C                     	;# 
  1042  0F2D                     	;# 
  1043  0F2E                     	;# 
  1044  0F2F                     	;# 
  1045  0F30                     	;# 
  1046  0F31                     	;# 
  1047  0F32                     	;# 
  1048  0F33                     	;# 
  1049  0F34                     	;# 
  1050  0F35                     	;# 
  1051  0F36                     	;# 
  1052  0F37                     	;# 
  1053  0FE4                     	;# 
  1054  0FE5                     	;# 
  1055  0FE6                     	;# 
  1056  0FE7                     	;# 
  1057  0FE8                     	;# 
  1058  0FE9                     	;# 
  1059  0FEA                     	;# 
  1060  0FEB                     	;# 
  1061  0FED                     	;# 
  1062  0FEE                     	;# 
  1063  0FEF                     	;# 
  1064  0000                     	;# 
  1065  0001                     	;# 
  1066  0002                     	;# 
  1067  0003                     	;# 
  1068  0004                     	;# 
  1069  0005                     	;# 
  1070  0006                     	;# 
  1071  0007                     	;# 
  1072  0008                     	;# 
  1073  0009                     	;# 
  1074  000A                     	;# 
  1075  000B                     	;# 
  1076  000C                     	;# 
  1077  000E                     	;# 
  1078  0010                     	;# 
  1079  0011                     	;# 
  1080  0012                     	;# 
  1081  0013                     	;# 
  1082  0014                     	;# 
  1083  0015                     	;# 
  1084  0015                     	;# 
  1085  0016                     	;# 
  1086  0016                     	;# 
  1087  0017                     	;# 
  1088  0018                     	;# 
  1089  0019                     	;# 
  1090  0019                     	;# 
  1091  001A                     	;# 
  1092  001B                     	;# 
  1093  001C                     	;# 
  1094  001D                     	;# 
  1095  001E                     	;# 
  1096  001F                     	;# 
  1097  008C                     	;# 
  1098  008E                     	;# 
  1099  0090                     	;# 
  1100  0091                     	;# 
  1101  0092                     	;# 
  1102  0093                     	;# 
  1103  0094                     	;# 
  1104  0097                     	;# 
  1105  009B                     	;# 
  1106  009B                     	;# 
  1107  009C                     	;# 
  1108  009D                     	;# 
  1109  009E                     	;# 
  1110  009F                     	;# 
  1111  010C                     	;# 
  1112  010E                     	;# 
  1113  0111                     	;# 
  1114  0112                     	;# 
  1115  0113                     	;# 
  1116  0114                     	;# 
  1117  0115                     	;# 
  1118  0116                     	;# 
  1119  0117                     	;# 
  1120  0118                     	;# 
  1121  0119                     	;# 
  1122  018C                     	;# 
  1123  018E                     	;# 
  1124  0197                     	;# 
  1125  0199                     	;# 
  1126  0199                     	;# 
  1127  0199                     	;# 
  1128  019A                     	;# 
  1129  019A                     	;# 
  1130  019A                     	;# 
  1131  019B                     	;# 
  1132  019B                     	;# 
  1133  019B                     	;# 
  1134  019B                     	;# 
  1135  019B                     	;# 
  1136  019C                     	;# 
  1137  019C                     	;# 
  1138  019C                     	;# 
  1139  019D                     	;# 
  1140  019D                     	;# 
  1141  019D                     	;# 
  1142  019E                     	;# 
  1143  019E                     	;# 
  1144  019E                     	;# 
  1145  019F                     	;# 
  1146  019F                     	;# 
  1147  019F                     	;# 
  1148  019F                     	;# 
  1149  019F                     	;# 
  1150  020C                     	;# 
  1151  020E                     	;# 
  1152  0211                     	;# 
  1153  0211                     	;# 
  1154  0212                     	;# 
  1155  0212                     	;# 
  1156  0213                     	;# 
  1157  0213                     	;# 
  1158  0214                     	;# 
  1159  0214                     	;# 
  1160  0215                     	;# 
  1161  0215                     	;# 
  1162  0215                     	;# 
  1163  0215                     	;# 
  1164  0216                     	;# 
  1165  0216                     	;# 
  1166  0217                     	;# 
  1167  0217                     	;# 
  1168  0219                     	;# 
  1169  021A                     	;# 
  1170  021B                     	;# 
  1171  021C                     	;# 
  1172  021D                     	;# 
  1173  021D                     	;# 
  1174  021E                     	;# 
  1175  021F                     	;# 
  1176  028C                     	;# 
  1177  028E                     	;# 
  1178  0291                     	;# 
  1179  0291                     	;# 
  1180  0292                     	;# 
  1181  0293                     	;# 
  1182  0294                     	;# 
  1183  0295                     	;# 
  1184  0295                     	;# 
  1185  0296                     	;# 
  1186  0297                     	;# 
  1187  0298                     	;# 
  1188  029F                     	;# 
  1189  030C                     	;# 
  1190  030E                     	;# 
  1191  0311                     	;# 
  1192  0311                     	;# 
  1193  0312                     	;# 
  1194  0313                     	;# 
  1195  0314                     	;# 
  1196  0315                     	;# 
  1197  0315                     	;# 
  1198  0316                     	;# 
  1199  0317                     	;# 
  1200  0318                     	;# 
  1201  038C                     	;# 
  1202  038E                     	;# 
  1203  0391                     	;# 
  1204  0392                     	;# 
  1205  0393                     	;# 
  1206  0397                     	;# 
  1207  0398                     	;# 
  1208  0399                     	;# 
  1209  039A                     	;# 
  1210  039C                     	;# 
  1211  039D                     	;# 
  1212  039E                     	;# 
  1213  039F                     	;# 
  1214  0411                     	;# 
  1215  0411                     	;# 
  1216  0412                     	;# 
  1217  0413                     	;# 
  1218  0414                     	;# 
  1219  0415                     	;# 
  1220  0416                     	;# 
  1221  0417                     	;# 
  1222  0418                     	;# 
  1223  0418                     	;# 
  1224  0419                     	;# 
  1225  041A                     	;# 
  1226  041B                     	;# 
  1227  041C                     	;# 
  1228  041D                     	;# 
  1229  041E                     	;# 
  1230  041F                     	;# 
  1231  0498                     	;# 
  1232  0498                     	;# 
  1233  0499                     	;# 
  1234  049A                     	;# 
  1235  049B                     	;# 
  1236  049B                     	;# 
  1237  049C                     	;# 
  1238  049D                     	;# 
  1239  049E                     	;# 
  1240  049F                     	;# 
  1241  0617                     	;# 
  1242  0618                     	;# 
  1243  0619                     	;# 
  1244  0619                     	;# 
  1245  061A                     	;# 
  1246  061B                     	;# 
  1247  061C                     	;# 
  1248  061C                     	;# 
  1249  061F                     	;# 
  1250  0691                     	;# 
  1251  0692                     	;# 
  1252  0693                     	;# 
  1253  0694                     	;# 
  1254  0695                     	;# 
  1255  0696                     	;# 
  1256  0697                     	;# 
  1257  0698                     	;# 
  1258  0699                     	;# 
  1259  0711                     	;# 
  1260  0712                     	;# 
  1261  0713                     	;# 
  1262  0714                     	;# 
  1263  0715                     	;# 
  1264  0716                     	;# 
  1265  0717                     	;# 
  1266  0718                     	;# 
  1267  0719                     	;# 
  1268  0891                     	;# 
  1269  0891                     	;# 
  1270  0891                     	;# 
  1271  0891                     	;# 
  1272  0891                     	;# 
  1273  0891                     	;# 
  1274  0892                     	;# 
  1275  0892                     	;# 
  1276  0892                     	;# 
  1277  0893                     	;# 
  1278  0893                     	;# 
  1279  0893                     	;# 
  1280  0893                     	;# 
  1281  0893                     	;# 
  1282  0893                     	;# 
  1283  0894                     	;# 
  1284  0894                     	;# 
  1285  0894                     	;# 
  1286  0895                     	;# 
  1287  0895                     	;# 
  1288  0895                     	;# 
  1289  0896                     	;# 
  1290  0896                     	;# 
  1291  0896                     	;# 
  1292  089B                     	;# 
  1293  0911                     	;# 
  1294  0912                     	;# 
  1295  0913                     	;# 
  1296  0914                     	;# 
  1297  0915                     	;# 
  1298  0916                     	;# 
  1299  0918                     	;# 
  1300  0919                     	;# 
  1301  091A                     	;# 
  1302  091B                     	;# 
  1303  091C                     	;# 
  1304  091D                     	;# 
  1305  091E                     	;# 
  1306  091F                     	;# 
  1307  0E0F                     	;# 
  1308  0E10                     	;# 
  1309  0E11                     	;# 
  1310  0E12                     	;# 
  1311  0E13                     	;# 
  1312  0E14                     	;# 
  1313  0E15                     	;# 
  1314  0E16                     	;# 
  1315  0E17                     	;# 
  1316  0E18                     	;# 
  1317  0E19                     	;# 
  1318  0E1A                     	;# 
  1319  0E1B                     	;# 
  1320  0E1C                     	;# 
  1321  0E1D                     	;# 
  1322  0E1E                     	;# 
  1323  0E1F                     	;# 
  1324  0E20                     	;# 
  1325  0E21                     	;# 
  1326  0E22                     	;# 
  1327  0E24                     	;# 
  1328  0E25                     	;# 
  1329  0E28                     	;# 
  1330  0E29                     	;# 
  1331  0E2A                     	;# 
  1332  0E2B                     	;# 
  1333  0E2C                     	;# 
  1334  0E2D                     	;# 
  1335  0E2E                     	;# 
  1336  0E2F                     	;# 
  1337  0E90                     	;# 
  1338  0E91                     	;# 
  1339  0E92                     	;# 
  1340  0E94                     	;# 
  1341  0E95                     	;# 
  1342  0EA0                     	;# 
  1343  0EA1                     	;# 
  1344  0EA2                     	;# 
  1345  0EA3                     	;# 
  1346  0EA4                     	;# 
  1347  0EA5                     	;# 
  1348  0F0F                     	;# 
  1349  0F10                     	;# 
  1350  0F11                     	;# 
  1351  0F12                     	;# 
  1352  0F13                     	;# 
  1353  0F14                     	;# 
  1354  0F15                     	;# 
  1355  0F16                     	;# 
  1356  0F17                     	;# 
  1357  0F18                     	;# 
  1358  0F19                     	;# 
  1359  0F1A                     	;# 
  1360  0F1B                     	;# 
  1361  0F1C                     	;# 
  1362  0F1D                     	;# 
  1363  0F1E                     	;# 
  1364  0F1F                     	;# 
  1365  0F20                     	;# 
  1366  0F21                     	;# 
  1367  0F22                     	;# 
  1368  0F23                     	;# 
  1369  0F24                     	;# 
  1370  0F25                     	;# 
  1371  0F26                     	;# 
  1372  0F27                     	;# 
  1373  0F28                     	;# 
  1374  0F29                     	;# 
  1375  0F2A                     	;# 
  1376  0F2B                     	;# 
  1377  0F2C                     	;# 
  1378  0F2D                     	;# 
  1379  0F2E                     	;# 
  1380  0F2F                     	;# 
  1381  0F30                     	;# 
  1382  0F31                     	;# 
  1383  0F32                     	;# 
  1384  0F33                     	;# 
  1385  0F34                     	;# 
  1386  0F35                     	;# 
  1387  0F36                     	;# 
  1388  0F37                     	;# 
  1389  0FE4                     	;# 
  1390  0FE5                     	;# 
  1391  0FE6                     	;# 
  1392  0FE7                     	;# 
  1393  0FE8                     	;# 
  1394  0FE9                     	;# 
  1395  0FEA                     	;# 
  1396  0FEB                     	;# 
  1397  0FED                     	;# 
  1398  0FEE                     	;# 
  1399  0FEF                     	;# 
  1400  0000                     	;# 
  1401  0001                     	;# 
  1402  0002                     	;# 
  1403  0003                     	;# 
  1404  0004                     	;# 
  1405  0005                     	;# 
  1406  0006                     	;# 
  1407  0007                     	;# 
  1408  0008                     	;# 
  1409  0009                     	;# 
  1410  000A                     	;# 
  1411  000B                     	;# 
  1412  000C                     	;# 
  1413  000E                     	;# 
  1414  0010                     	;# 
  1415  0011                     	;# 
  1416  0012                     	;# 
  1417  0013                     	;# 
  1418  0014                     	;# 
  1419  0015                     	;# 
  1420  0015                     	;# 
  1421  0016                     	;# 
  1422  0016                     	;# 
  1423  0017                     	;# 
  1424  0018                     	;# 
  1425  0019                     	;# 
  1426  0019                     	;# 
  1427  001A                     	;# 
  1428  001B                     	;# 
  1429  001C                     	;# 
  1430  001D                     	;# 
  1431  001E                     	;# 
  1432  001F                     	;# 
  1433  008C                     	;# 
  1434  008E                     	;# 
  1435  0090                     	;# 
  1436  0091                     	;# 
  1437  0092                     	;# 
  1438  0093                     	;# 
  1439  0094                     	;# 
  1440  0097                     	;# 
  1441  009B                     	;# 
  1442  009B                     	;# 
  1443  009C                     	;# 
  1444  009D                     	;# 
  1445  009E                     	;# 
  1446  009F                     	;# 
  1447  010C                     	;# 
  1448  010E                     	;# 
  1449  0111                     	;# 
  1450  0112                     	;# 
  1451  0113                     	;# 
  1452  0114                     	;# 
  1453  0115                     	;# 
  1454  0116                     	;# 
  1455  0117                     	;# 
  1456  0118                     	;# 
  1457  0119                     	;# 
  1458  018C                     	;# 
  1459  018E                     	;# 
  1460  0197                     	;# 
  1461  0199                     	;# 
  1462  0199                     	;# 
  1463  0199                     	;# 
  1464  019A                     	;# 
  1465  019A                     	;# 
  1466  019A                     	;# 
  1467  019B                     	;# 
  1468  019B                     	;# 
  1469  019B                     	;# 
  1470  019B                     	;# 
  1471  019B                     	;# 
  1472  019C                     	;# 
  1473  019C                     	;# 
  1474  019C                     	;# 
  1475  019D                     	;# 
  1476  019D                     	;# 
  1477  019D                     	;# 
  1478  019E                     	;# 
  1479  019E                     	;# 
  1480  019E                     	;# 
  1481  019F                     	;# 
  1482  019F                     	;# 
  1483  019F                     	;# 
  1484  019F                     	;# 
  1485  019F                     	;# 
  1486  020C                     	;# 
  1487  020E                     	;# 
  1488  0211                     	;# 
  1489  0211                     	;# 
  1490  0212                     	;# 
  1491  0212                     	;# 
  1492  0213                     	;# 
  1493  0213                     	;# 
  1494  0214                     	;# 
  1495  0214                     	;# 
  1496  0215                     	;# 
  1497  0215                     	;# 
  1498  0215                     	;# 
  1499  0215                     	;# 
  1500  0216                     	;# 
  1501  0216                     	;# 
  1502  0217                     	;# 
  1503  0217                     	;# 
  1504  0219                     	;# 
  1505  021A                     	;# 
  1506  021B                     	;# 
  1507  021C                     	;# 
  1508  021D                     	;# 
  1509  021D                     	;# 
  1510  021E                     	;# 
  1511  021F                     	;# 
  1512  028C                     	;# 
  1513  028E                     	;# 
  1514  0291                     	;# 
  1515  0291                     	;# 
  1516  0292                     	;# 
  1517  0293                     	;# 
  1518  0294                     	;# 
  1519  0295                     	;# 
  1520  0295                     	;# 
  1521  0296                     	;# 
  1522  0297                     	;# 
  1523  0298                     	;# 
  1524  029F                     	;# 
  1525  030C                     	;# 
  1526  030E                     	;# 
  1527  0311                     	;# 
  1528  0311                     	;# 
  1529  0312                     	;# 
  1530  0313                     	;# 
  1531  0314                     	;# 
  1532  0315                     	;# 
  1533  0315                     	;# 
  1534  0316                     	;# 
  1535  0317                     	;# 
  1536  0318                     	;# 
  1537  038C                     	;# 
  1538  038E                     	;# 
  1539  0391                     	;# 
  1540  0392                     	;# 
  1541  0393                     	;# 
  1542  0397                     	;# 
  1543  0398                     	;# 
  1544  0399                     	;# 
  1545  039A                     	;# 
  1546  039C                     	;# 
  1547  039D                     	;# 
  1548  039E                     	;# 
  1549  039F                     	;# 
  1550  0411                     	;# 
  1551  0411                     	;# 
  1552  0412                     	;# 
  1553  0413                     	;# 
  1554  0414                     	;# 
  1555  0415                     	;# 
  1556  0416                     	;# 
  1557  0417                     	;# 
  1558  0418                     	;# 
  1559  0418                     	;# 
  1560  0419                     	;# 
  1561  041A                     	;# 
  1562  041B                     	;# 
  1563  041C                     	;# 
  1564  041D                     	;# 
  1565  041E                     	;# 
  1566  041F                     	;# 
  1567  0498                     	;# 
  1568  0498                     	;# 
  1569  0499                     	;# 
  1570  049A                     	;# 
  1571  049B                     	;# 
  1572  049B                     	;# 
  1573  049C                     	;# 
  1574  049D                     	;# 
  1575  049E                     	;# 
  1576  049F                     	;# 
  1577  0617                     	;# 
  1578  0618                     	;# 
  1579  0619                     	;# 
  1580  0619                     	;# 
  1581  061A                     	;# 
  1582  061B                     	;# 
  1583  061C                     	;# 
  1584  061C                     	;# 
  1585  061F                     	;# 
  1586  0691                     	;# 
  1587  0692                     	;# 
  1588  0693                     	;# 
  1589  0694                     	;# 
  1590  0695                     	;# 
  1591  0696                     	;# 
  1592  0697                     	;# 
  1593  0698                     	;# 
  1594  0699                     	;# 
  1595  0711                     	;# 
  1596  0712                     	;# 
  1597  0713                     	;# 
  1598  0714                     	;# 
  1599  0715                     	;# 
  1600  0716                     	;# 
  1601  0717                     	;# 
  1602  0718                     	;# 
  1603  0719                     	;# 
  1604  0891                     	;# 
  1605  0891                     	;# 
  1606  0891                     	;# 
  1607  0891                     	;# 
  1608  0891                     	;# 
  1609  0891                     	;# 
  1610  0892                     	;# 
  1611  0892                     	;# 
  1612  0892                     	;# 
  1613  0893                     	;# 
  1614  0893                     	;# 
  1615  0893                     	;# 
  1616  0893                     	;# 
  1617  0893                     	;# 
  1618  0893                     	;# 
  1619  0894                     	;# 
  1620  0894                     	;# 
  1621  0894                     	;# 
  1622  0895                     	;# 
  1623  0895                     	;# 
  1624  0895                     	;# 
  1625  0896                     	;# 
  1626  0896                     	;# 
  1627  0896                     	;# 
  1628  089B                     	;# 
  1629  0911                     	;# 
  1630  0912                     	;# 
  1631  0913                     	;# 
  1632  0914                     	;# 
  1633  0915                     	;# 
  1634  0916                     	;# 
  1635  0918                     	;# 
  1636  0919                     	;# 
  1637  091A                     	;# 
  1638  091B                     	;# 
  1639  091C                     	;# 
  1640  091D                     	;# 
  1641  091E                     	;# 
  1642  091F                     	;# 
  1643  0E0F                     	;# 
  1644  0E10                     	;# 
  1645  0E11                     	;# 
  1646  0E12                     	;# 
  1647  0E13                     	;# 
  1648  0E14                     	;# 
  1649  0E15                     	;# 
  1650  0E16                     	;# 
  1651  0E17                     	;# 
  1652  0E18                     	;# 
  1653  0E19                     	;# 
  1654  0E1A                     	;# 
  1655  0E1B                     	;# 
  1656  0E1C                     	;# 
  1657  0E1D                     	;# 
  1658  0E1E                     	;# 
  1659  0E1F                     	;# 
  1660  0E20                     	;# 
  1661  0E21                     	;# 
  1662  0E22                     	;# 
  1663  0E24                     	;# 
  1664  0E25                     	;# 
  1665  0E28                     	;# 
  1666  0E29                     	;# 
  1667  0E2A                     	;# 
  1668  0E2B                     	;# 
  1669  0E2C                     	;# 
  1670  0E2D                     	;# 
  1671  0E2E                     	;# 
  1672  0E2F                     	;# 
  1673  0E90                     	;# 
  1674  0E91                     	;# 
  1675  0E92                     	;# 
  1676  0E94                     	;# 
  1677  0E95                     	;# 
  1678  0EA0                     	;# 
  1679  0EA1                     	;# 
  1680  0EA2                     	;# 
  1681  0EA3                     	;# 
  1682  0EA4                     	;# 
  1683  0EA5                     	;# 
  1684  0F0F                     	;# 
  1685  0F10                     	;# 
  1686  0F11                     	;# 
  1687  0F12                     	;# 
  1688  0F13                     	;# 
  1689  0F14                     	;# 
  1690  0F15                     	;# 
  1691  0F16                     	;# 
  1692  0F17                     	;# 
  1693  0F18                     	;# 
  1694  0F19                     	;# 
  1695  0F1A                     	;# 
  1696  0F1B                     	;# 
  1697  0F1C                     	;# 
  1698  0F1D                     	;# 
  1699  0F1E                     	;# 
  1700  0F1F                     	;# 
  1701  0F20                     	;# 
  1702  0F21                     	;# 
  1703  0F22                     	;# 
  1704  0F23                     	;# 
  1705  0F24                     	;# 
  1706  0F25                     	;# 
  1707  0F26                     	;# 
  1708  0F27                     	;# 
  1709  0F28                     	;# 
  1710  0F29                     	;# 
  1711  0F2A                     	;# 
  1712  0F2B                     	;# 
  1713  0F2C                     	;# 
  1714  0F2D                     	;# 
  1715  0F2E                     	;# 
  1716  0F2F                     	;# 
  1717  0F30                     	;# 
  1718  0F31                     	;# 
  1719  0F32                     	;# 
  1720  0F33                     	;# 
  1721  0F34                     	;# 
  1722  0F35                     	;# 
  1723  0F36                     	;# 
  1724  0F37                     	;# 
  1725  0FE4                     	;# 
  1726  0FE5                     	;# 
  1727  0FE6                     	;# 
  1728  0FE7                     	;# 
  1729  0FE8                     	;# 
  1730  0FE9                     	;# 
  1731  0FEA                     	;# 
  1732  0FEB                     	;# 
  1733  0FED                     	;# 
  1734  0FEE                     	;# 
  1735  0FEF                     	;# 
  1736  0000                     	;# 
  1737  0001                     	;# 
  1738  0002                     	;# 
  1739  0003                     	;# 
  1740  0004                     	;# 
  1741  0005                     	;# 
  1742  0006                     	;# 
  1743  0007                     	;# 
  1744  0008                     	;# 
  1745  0009                     	;# 
  1746  000A                     	;# 
  1747  000B                     	;# 
  1748  000C                     	;# 
  1749  000E                     	;# 
  1750  0010                     	;# 
  1751  0011                     	;# 
  1752  0012                     	;# 
  1753  0013                     	;# 
  1754  0014                     	;# 
  1755  0015                     	;# 
  1756  0015                     	;# 
  1757  0016                     	;# 
  1758  0016                     	;# 
  1759  0017                     	;# 
  1760  0018                     	;# 
  1761  0019                     	;# 
  1762  0019                     	;# 
  1763  001A                     	;# 
  1764  001B                     	;# 
  1765  001C                     	;# 
  1766  001D                     	;# 
  1767  001E                     	;# 
  1768  001F                     	;# 
  1769  008C                     	;# 
  1770  008E                     	;# 
  1771  0090                     	;# 
  1772  0091                     	;# 
  1773  0092                     	;# 
  1774  0093                     	;# 
  1775  0094                     	;# 
  1776  0097                     	;# 
  1777  009B                     	;# 
  1778  009B                     	;# 
  1779  009C                     	;# 
  1780  009D                     	;# 
  1781  009E                     	;# 
  1782  009F                     	;# 
  1783  010C                     	;# 
  1784  010E                     	;# 
  1785  0111                     	;# 
  1786  0112                     	;# 
  1787  0113                     	;# 
  1788  0114                     	;# 
  1789  0115                     	;# 
  1790  0116                     	;# 
  1791  0117                     	;# 
  1792  0118                     	;# 
  1793  0119                     	;# 
  1794  018C                     	;# 
  1795  018E                     	;# 
  1796  0197                     	;# 
  1797  0199                     	;# 
  1798  0199                     	;# 
  1799  0199                     	;# 
  1800  019A                     	;# 
  1801  019A                     	;# 
  1802  019A                     	;# 
  1803  019B                     	;# 
  1804  019B                     	;# 
  1805  019B                     	;# 
  1806  019B                     	;# 
  1807  019B                     	;# 
  1808  019C                     	;# 
  1809  019C                     	;# 
  1810  019C                     	;# 
  1811  019D                     	;# 
  1812  019D                     	;# 
  1813  019D                     	;# 
  1814  019E                     	;# 
  1815  019E                     	;# 
  1816  019E                     	;# 
  1817  019F                     	;# 
  1818  019F                     	;# 
  1819  019F                     	;# 
  1820  019F                     	;# 
  1821  019F                     	;# 
  1822  020C                     	;# 
  1823  020E                     	;# 
  1824  0211                     	;# 
  1825  0211                     	;# 
  1826  0212                     	;# 
  1827  0212                     	;# 
  1828  0213                     	;# 
  1829  0213                     	;# 
  1830  0214                     	;# 
  1831  0214                     	;# 
  1832  0215                     	;# 
  1833  0215                     	;# 
  1834  0215                     	;# 
  1835  0215                     	;# 
  1836  0216                     	;# 
  1837  0216                     	;# 
  1838  0217                     	;# 
  1839  0217                     	;# 
  1840  0219                     	;# 
  1841  021A                     	;# 
  1842  021B                     	;# 
  1843  021C                     	;# 
  1844  021D                     	;# 
  1845  021D                     	;# 
  1846  021E                     	;# 
  1847  021F                     	;# 
  1848  028C                     	;# 
  1849  028E                     	;# 
  1850  0291                     	;# 
  1851  0291                     	;# 
  1852  0292                     	;# 
  1853  0293                     	;# 
  1854  0294                     	;# 
  1855  0295                     	;# 
  1856  0295                     	;# 
  1857  0296                     	;# 
  1858  0297                     	;# 
  1859  0298                     	;# 
  1860  029F                     	;# 
  1861  030C                     	;# 
  1862  030E                     	;# 
  1863  0311                     	;# 
  1864  0311                     	;# 
  1865  0312                     	;# 
  1866  0313                     	;# 
  1867  0314                     	;# 
  1868  0315                     	;# 
  1869  0315                     	;# 
  1870  0316                     	;# 
  1871  0317                     	;# 
  1872  0318                     	;# 
  1873  038C                     	;# 
  1874  038E                     	;# 
  1875  0391                     	;# 
  1876  0392                     	;# 
  1877  0393                     	;# 
  1878  0397                     	;# 
  1879  0398                     	;# 
  1880  0399                     	;# 
  1881  039A                     	;# 
  1882  039C                     	;# 
  1883  039D                     	;# 
  1884  039E                     	;# 
  1885  039F                     	;# 
  1886  0411                     	;# 
  1887  0411                     	;# 
  1888  0412                     	;# 
  1889  0413                     	;# 
  1890  0414                     	;# 
  1891  0415                     	;# 
  1892  0416                     	;# 
  1893  0417                     	;# 
  1894  0418                     	;# 
  1895  0418                     	;# 
  1896  0419                     	;# 
  1897  041A                     	;# 
  1898  041B                     	;# 
  1899  041C                     	;# 
  1900  041D                     	;# 
  1901  041E                     	;# 
  1902  041F                     	;# 
  1903  0498                     	;# 
  1904  0498                     	;# 
  1905  0499                     	;# 
  1906  049A                     	;# 
  1907  049B                     	;# 
  1908  049B                     	;# 
  1909  049C                     	;# 
  1910  049D                     	;# 
  1911  049E                     	;# 
  1912  049F                     	;# 
  1913  0617                     	;# 
  1914  0618                     	;# 
  1915  0619                     	;# 
  1916  0619                     	;# 
  1917  061A                     	;# 
  1918  061B                     	;# 
  1919  061C                     	;# 
  1920  061C                     	;# 
  1921  061F                     	;# 
  1922  0691                     	;# 
  1923  0692                     	;# 
  1924  0693                     	;# 
  1925  0694                     	;# 
  1926  0695                     	;# 
  1927  0696                     	;# 
  1928  0697                     	;# 
  1929  0698                     	;# 
  1930  0699                     	;# 
  1931  0711                     	;# 
  1932  0712                     	;# 
  1933  0713                     	;# 
  1934  0714                     	;# 
  1935  0715                     	;# 
  1936  0716                     	;# 
  1937  0717                     	;# 
  1938  0718                     	;# 
  1939  0719                     	;# 
  1940  0891                     	;# 
  1941  0891                     	;# 
  1942  0891                     	;# 
  1943  0891                     	;# 
  1944  0891                     	;# 
  1945  0891                     	;# 
  1946  0892                     	;# 
  1947  0892                     	;# 
  1948  0892                     	;# 
  1949  0893                     	;# 
  1950  0893                     	;# 
  1951  0893                     	;# 
  1952  0893                     	;# 
  1953  0893                     	;# 
  1954  0893                     	;# 
  1955  0894                     	;# 
  1956  0894                     	;# 
  1957  0894                     	;# 
  1958  0895                     	;# 
  1959  0895                     	;# 
  1960  0895                     	;# 
  1961  0896                     	;# 
  1962  0896                     	;# 
  1963  0896                     	;# 
  1964  089B                     	;# 
  1965  0911                     	;# 
  1966  0912                     	;# 
  1967  0913                     	;# 
  1968  0914                     	;# 
  1969  0915                     	;# 
  1970  0916                     	;# 
  1971  0918                     	;# 
  1972  0919                     	;# 
  1973  091A                     	;# 
  1974  091B                     	;# 
  1975  091C                     	;# 
  1976  091D                     	;# 
  1977  091E                     	;# 
  1978  091F                     	;# 
  1979  0E0F                     	;# 
  1980  0E10                     	;# 
  1981  0E11                     	;# 
  1982  0E12                     	;# 
  1983  0E13                     	;# 
  1984  0E14                     	;# 
  1985  0E15                     	;# 
  1986  0E16                     	;# 
  1987  0E17                     	;# 
  1988  0E18                     	;# 
  1989  0E19                     	;# 
  1990  0E1A                     	;# 
  1991  0E1B                     	;# 
  1992  0E1C                     	;# 
  1993  0E1D                     	;# 
  1994  0E1E                     	;# 
  1995  0E1F                     	;# 
  1996  0E20                     	;# 
  1997  0E21                     	;# 
  1998  0E22                     	;# 
  1999  0E24                     	;# 
  2000  0E25                     	;# 
  2001  0E28                     	;# 
  2002  0E29                     	;# 
  2003  0E2A                     	;# 
  2004  0E2B                     	;# 
  2005  0E2C                     	;# 
  2006  0E2D                     	;# 
  2007  0E2E                     	;# 
  2008  0E2F                     	;# 
  2009  0E90                     	;# 
  2010  0E91                     	;# 
  2011  0E92                     	;# 
  2012  0E94                     	;# 
  2013  0E95                     	;# 
  2014  0EA0                     	;# 
  2015  0EA1                     	;# 
  2016  0EA2                     	;# 
  2017  0EA3                     	;# 
  2018  0EA4                     	;# 
  2019  0EA5                     	;# 
  2020  0F0F                     	;# 
  2021  0F10                     	;# 
  2022  0F11                     	;# 
  2023  0F12                     	;# 
  2024  0F13                     	;# 
  2025  0F14                     	;# 
  2026  0F15                     	;# 
  2027  0F16                     	;# 
  2028  0F17                     	;# 
  2029  0F18                     	;# 
  2030  0F19                     	;# 
  2031  0F1A                     	;# 
  2032  0F1B                     	;# 
  2033  0F1C                     	;# 
  2034  0F1D                     	;# 
  2035  0F1E                     	;# 
  2036  0F1F                     	;# 
  2037  0F20                     	;# 
  2038  0F21                     	;# 
  2039  0F22                     	;# 
  2040  0F23                     	;# 
  2041  0F24                     	;# 
  2042  0F25                     	;# 
  2043  0F26                     	;# 
  2044  0F27                     	;# 
  2045  0F28                     	;# 
  2046  0F29                     	;# 
  2047  0F2A                     	;# 
  2048  0F2B                     	;# 
  2049  0F2C                     	;# 
  2050  0F2D                     	;# 
  2051  0F2E                     	;# 
  2052  0F2F                     	;# 
  2053  0F30                     	;# 
  2054  0F31                     	;# 
  2055  0F32                     	;# 
  2056  0F33                     	;# 
  2057  0F34                     	;# 
  2058  0F35                     	;# 
  2059  0F36                     	;# 
  2060  0F37                     	;# 
  2061  0FE4                     	;# 
  2062  0FE5                     	;# 
  2063  0FE6                     	;# 
  2064  0FE7                     	;# 
  2065  0FE8                     	;# 
  2066  0FE9                     	;# 
  2067  0FEA                     	;# 
  2068  0FEB                     	;# 
  2069  0FED                     	;# 
  2070  0FEE                     	;# 
  2071  0FEF                     	;# 
  2072  0000                     	;# 
  2073  0001                     	;# 
  2074  0002                     	;# 
  2075  0003                     	;# 
  2076  0004                     	;# 
  2077  0005                     	;# 
  2078  0006                     	;# 
  2079  0007                     	;# 
  2080  0008                     	;# 
  2081  0009                     	;# 
  2082  000A                     	;# 
  2083  000B                     	;# 
  2084  000C                     	;# 
  2085  000E                     	;# 
  2086  0010                     	;# 
  2087  0011                     	;# 
  2088  0012                     	;# 
  2089  0013                     	;# 
  2090  0014                     	;# 
  2091  0015                     	;# 
  2092  0015                     	;# 
  2093  0016                     	;# 
  2094  0016                     	;# 
  2095  0017                     	;# 
  2096  0018                     	;# 
  2097  0019                     	;# 
  2098  0019                     	;# 
  2099  001A                     	;# 
  2100  001B                     	;# 
  2101  001C                     	;# 
  2102  001D                     	;# 
  2103  001E                     	;# 
  2104  001F                     	;# 
  2105  008C                     	;# 
  2106  008E                     	;# 
  2107  0090                     	;# 
  2108  0091                     	;# 
  2109  0092                     	;# 
  2110  0093                     	;# 
  2111  0094                     	;# 
  2112  0097                     	;# 
  2113  009B                     	;# 
  2114  009B                     	;# 
  2115  009C                     	;# 
  2116  009D                     	;# 
  2117  009E                     	;# 
  2118  009F                     	;# 
  2119  010C                     	;# 
  2120  010E                     	;# 
  2121  0111                     	;# 
  2122  0112                     	;# 
  2123  0113                     	;# 
  2124  0114                     	;# 
  2125  0115                     	;# 
  2126  0116                     	;# 
  2127  0117                     	;# 
  2128  0118                     	;# 
  2129  0119                     	;# 
  2130  018C                     	;# 
  2131  018E                     	;# 
  2132  0197                     	;# 
  2133  0199                     	;# 
  2134  0199                     	;# 
  2135  0199                     	;# 
  2136  019A                     	;# 
  2137  019A                     	;# 
  2138  019A                     	;# 
  2139  019B                     	;# 
  2140  019B                     	;# 
  2141  019B                     	;# 
  2142  019B                     	;# 
  2143  019B                     	;# 
  2144  019C                     	;# 
  2145  019C                     	;# 
  2146  019C                     	;# 
  2147  019D                     	;# 
  2148  019D                     	;# 
  2149  019D                     	;# 
  2150  019E                     	;# 
  2151  019E                     	;# 
  2152  019E                     	;# 
  2153  019F                     	;# 
  2154  019F                     	;# 
  2155  019F                     	;# 
  2156  019F                     	;# 
  2157  019F                     	;# 
  2158  020C                     	;# 
  2159  020E                     	;# 
  2160  0211                     	;# 
  2161  0211                     	;# 
  2162  0212                     	;# 
  2163  0212                     	;# 
  2164  0213                     	;# 
  2165  0213                     	;# 
  2166  0214                     	;# 
  2167  0214                     	;# 
  2168  0215                     	;# 
  2169  0215                     	;# 
  2170  0215                     	;# 
  2171  0215                     	;# 
  2172  0216                     	;# 
  2173  0216                     	;# 
  2174  0217                     	;# 
  2175  0217                     	;# 
  2176  0219                     	;# 
  2177  021A                     	;# 
  2178  021B                     	;# 
  2179  021C                     	;# 
  2180  021D                     	;# 
  2181  021D                     	;# 
  2182  021E                     	;# 
  2183  021F                     	;# 
  2184  028C                     	;# 
  2185  028E                     	;# 
  2186  0291                     	;# 
  2187  0291                     	;# 
  2188  0292                     	;# 
  2189  0293                     	;# 
  2190  0294                     	;# 
  2191  0295                     	;# 
  2192  0295                     	;# 
  2193  0296                     	;# 
  2194  0297                     	;# 
  2195  0298                     	;# 
  2196  029F                     	;# 
  2197  030C                     	;# 
  2198  030E                     	;# 
  2199  0311                     	;# 
  2200  0311                     	;# 
  2201  0312                     	;# 
  2202  0313                     	;# 
  2203  0314                     	;# 
  2204  0315                     	;# 
  2205  0315                     	;# 
  2206  0316                     	;# 
  2207  0317                     	;# 
  2208  0318                     	;# 
  2209  038C                     	;# 
  2210  038E                     	;# 
  2211  0391                     	;# 
  2212  0392                     	;# 
  2213  0393                     	;# 
  2214  0397                     	;# 
  2215  0398                     	;# 
  2216  0399                     	;# 
  2217  039A                     	;# 
  2218  039C                     	;# 
  2219  039D                     	;# 
  2220  039E                     	;# 
  2221  039F                     	;# 
  2222  0411                     	;# 
  2223  0411                     	;# 
  2224  0412                     	;# 
  2225  0413                     	;# 
  2226  0414                     	;# 
  2227  0415                     	;# 
  2228  0416                     	;# 
  2229  0417                     	;# 
  2230  0418                     	;# 
  2231  0418                     	;# 
  2232  0419                     	;# 
  2233  041A                     	;# 
  2234  041B                     	;# 
  2235  041C                     	;# 
  2236  041D                     	;# 
  2237  041E                     	;# 
  2238  041F                     	;# 
  2239  0498                     	;# 
  2240  0498                     	;# 
  2241  0499                     	;# 
  2242  049A                     	;# 
  2243  049B                     	;# 
  2244  049B                     	;# 
  2245  049C                     	;# 
  2246  049D                     	;# 
  2247  049E                     	;# 
  2248  049F                     	;# 
  2249  0617                     	;# 
  2250  0618                     	;# 
  2251  0619                     	;# 
  2252  0619                     	;# 
  2253  061A                     	;# 
  2254  061B                     	;# 
  2255  061C                     	;# 
  2256  061C                     	;# 
  2257  061F                     	;# 
  2258  0691                     	;# 
  2259  0692                     	;# 
  2260  0693                     	;# 
  2261  0694                     	;# 
  2262  0695                     	;# 
  2263  0696                     	;# 
  2264  0697                     	;# 
  2265  0698                     	;# 
  2266  0699                     	;# 
  2267  0711                     	;# 
  2268  0712                     	;# 
  2269  0713                     	;# 
  2270  0714                     	;# 
  2271  0715                     	;# 
  2272  0716                     	;# 
  2273  0717                     	;# 
  2274  0718                     	;# 
  2275  0719                     	;# 
  2276  0891                     	;# 
  2277  0891                     	;# 
  2278  0891                     	;# 
  2279  0891                     	;# 
  2280  0891                     	;# 
  2281  0891                     	;# 
  2282  0892                     	;# 
  2283  0892                     	;# 
  2284  0892                     	;# 
  2285  0893                     	;# 
  2286  0893                     	;# 
  2287  0893                     	;# 
  2288  0893                     	;# 
  2289  0893                     	;# 
  2290  0893                     	;# 
  2291  0894                     	;# 
  2292  0894                     	;# 
  2293  0894                     	;# 
  2294  0895                     	;# 
  2295  0895                     	;# 
  2296  0895                     	;# 
  2297  0896                     	;# 
  2298  0896                     	;# 
  2299  0896                     	;# 
  2300  089B                     	;# 
  2301  0911                     	;# 
  2302  0912                     	;# 
  2303  0913                     	;# 
  2304  0914                     	;# 
  2305  0915                     	;# 
  2306  0916                     	;# 
  2307  0918                     	;# 
  2308  0919                     	;# 
  2309  091A                     	;# 
  2310  091B                     	;# 
  2311  091C                     	;# 
  2312  091D                     	;# 
  2313  091E                     	;# 
  2314  091F                     	;# 
  2315  0E0F                     	;# 
  2316  0E10                     	;# 
  2317  0E11                     	;# 
  2318  0E12                     	;# 
  2319  0E13                     	;# 
  2320  0E14                     	;# 
  2321  0E15                     	;# 
  2322  0E16                     	;# 
  2323  0E17                     	;# 
  2324  0E18                     	;# 
  2325  0E19                     	;# 
  2326  0E1A                     	;# 
  2327  0E1B                     	;# 
  2328  0E1C                     	;# 
  2329  0E1D                     	;# 
  2330  0E1E                     	;# 
  2331  0E1F                     	;# 
  2332  0E20                     	;# 
  2333  0E21                     	;# 
  2334  0E22                     	;# 
  2335  0E24                     	;# 
  2336  0E25                     	;# 
  2337  0E28                     	;# 
  2338  0E29                     	;# 
  2339  0E2A                     	;# 
  2340  0E2B                     	;# 
  2341  0E2C                     	;# 
  2342  0E2D                     	;# 
  2343  0E2E                     	;# 
  2344  0E2F                     	;# 
  2345  0E90                     	;# 
  2346  0E91                     	;# 
  2347  0E92                     	;# 
  2348  0E94                     	;# 
  2349  0E95                     	;# 
  2350  0EA0                     	;# 
  2351  0EA1                     	;# 
  2352  0EA2                     	;# 
  2353  0EA3                     	;# 
  2354  0EA4                     	;# 
  2355  0EA5                     	;# 
  2356  0F0F                     	;# 
  2357  0F10                     	;# 
  2358  0F11                     	;# 
  2359  0F12                     	;# 
  2360  0F13                     	;# 
  2361  0F14                     	;# 
  2362  0F15                     	;# 
  2363  0F16                     	;# 
  2364  0F17                     	;# 
  2365  0F18                     	;# 
  2366  0F19                     	;# 
  2367  0F1A                     	;# 
  2368  0F1B                     	;# 
  2369  0F1C                     	;# 
  2370  0F1D                     	;# 
  2371  0F1E                     	;# 
  2372  0F1F                     	;# 
  2373  0F20                     	;# 
  2374  0F21                     	;# 
  2375  0F22                     	;# 
  2376  0F23                     	;# 
  2377  0F24                     	;# 
  2378  0F25                     	;# 
  2379  0F26                     	;# 
  2380  0F27                     	;# 
  2381  0F28                     	;# 
  2382  0F29                     	;# 
  2383  0F2A                     	;# 
  2384  0F2B                     	;# 
  2385  0F2C                     	;# 
  2386  0F2D                     	;# 
  2387  0F2E                     	;# 
  2388  0F2F                     	;# 
  2389  0F30                     	;# 
  2390  0F31                     	;# 
  2391  0F32                     	;# 
  2392  0F33                     	;# 
  2393  0F34                     	;# 
  2394  0F35                     	;# 
  2395  0F36                     	;# 
  2396  0F37                     	;# 
  2397  0FE4                     	;# 
  2398  0FE5                     	;# 
  2399  0FE6                     	;# 
  2400  0FE7                     	;# 
  2401  0FE8                     	;# 
  2402  0FE9                     	;# 
  2403  0FEA                     	;# 
  2404  0FEB                     	;# 
  2405  0FED                     	;# 
  2406  0FEE                     	;# 
  2407  0FEF                     	;# 
  2408  000E                     _PORTCbits	set	14
  2409  0011                     _PIR1bits	set	17
  2410  008C                     _TRISAbits	set	140
  2411  008E                     _TRISCbits	set	142
  2412  008E                     _TRISC	set	142
  2413  008C                     _TRISA	set	140
  2414  0097                     _WDTCON	set	151
  2415  010E                     _LATC	set	270
  2416  010C                     _LATA	set	268
  2417  018C                     _ANSELA	set	396
  2418  018E                     _ANSELC	set	398
  2419  019A                     _TX1REG	set	410
  2420  0199                     _RC1REG	set	409
  2421  019D                     _RC1STAbits	set	413
  2422  019E                     _TX1STAbits	set	414
  2423  019C                     _SP1BRGH	set	412
  2424  019B                     _SP1BRGL	set	411
  2425  019E                     _TX1STA	set	414
  2426  019D                     _RC1STA	set	413
  2427  019F                     _BAUD1CON	set	415
  2428  0219                     _SSP2BUF	set	537
  2429  021C                     _SSP2STATbits	set	540
  2430  021D                     _SSP2CON1	set	541
  2431  021C                     _SSP2STAT	set	540
  2432  0211                     _SSPBUF	set	529
  2433  0216                     _SSP1CON2bits	set	534
  2434  0214                     _SSP1STAT	set	532
  2435  0212                     _SSP1ADD	set	530
  2436  0216                     _SSP1CON2	set	534
  2437  0215                     _SSP1CON1	set	533
  2438  020E                     _WPUC	set	526
  2439  020C                     _WPUA	set	524
  2440  028E                     _ODCONC	set	654
  2441  028C                     _ODCONA	set	652
  2442  0916                     _PMD5	set	2326
  2443  0915                     _PMD4	set	2325
  2444  0914                     _PMD3	set	2324
  2445  0913                     _PMD2	set	2323
  2446  0912                     _PMD1	set	2322
  2447  0911                     _PMD0	set	2321
  2448  091E                     _OSCTUNE	set	2334
  2449  091F                     _OSCFRQ	set	2335
  2450  091D                     _OSCEN	set	2333
  2451  091B                     _OSCCON3	set	2331
  2452  0919                     _OSCCON1	set	2329
  2453  0E1E                     _SSP2DATPPSbits	set	3614
  2454  0E1D                     _SSP2CLKPPSbits	set	3613
  2455  0E24                     _RXPPSbits	set	3620
  2456  0E20                     _SSP1CLKPPSbits	set	3616
  2457  0E21                     _SSP1DATPPSbits	set	3617
  2458  0EA5                     _RC5PPSbits	set	3749
  2459  0E95                     _RA5PPSbits	set	3733
  2460  0EA2                     _RC2PPSbits	set	3746
  2461  0EA0                     _RC0PPSbits	set	3744
  2462  0EA4                     _RC4PPSbits	set	3748
  2463  0E94                     _RA4PPSbits	set	3732
  2464                           
  2465                           ; #config settings
  2466  0000                     
  2467                           	psect	cinit
  2468  07F6                     start_initialization:	
  2469  07F6                     __initialization:	
  2470                           
  2471                           ; Clear objects allocated to BANK0
  2472  07F6  3020               	movlw	low __pbssBANK0
  2473  07F7  0084               	movwf	4
  2474  07F8  3000               	movlw	high __pbssBANK0
  2475  07F9  0085               	movwf	5
  2476  07FA  3025               	movlw	37
  2477  07FB  3186  26A6         	fcall	clear_ram0
  2478  07FD                     end_of_initialization:	
  2479                           ;End of C runtime variable initialization code
  2480                           
  2481  07FD                     __end_of__initialization:	
  2482  07FD  0020               	movlb	0
  2483  07FE  3187  2F25         	ljmp	_main	;jump to C main() function
  2484                           
  2485                           	psect	bssBANK0
  2486  0020                     __pbssBANK0:	
  2487  0020                     _t_fine:	
  2488  0020                     	ds	4
  2489  0024                     _cal_data:	
  2490  0024                     	ds	33
  2491                           
  2492                           	psect	clrtext
  2493  06A6                     clear_ram0:	
  2494                           ;	Called with FSR0 containing the base address, and
  2495                           ;	WREG with the size to clear
  2496                           
  2497  06A6  0064               	clrwdt	;clear the watchdog before getting into this loop
  2498  06A7                     clrloop0:	
  2499  06A7  0180               	clrf	0	;clear RAM location pointed to by FSR
  2500  06A8  3101               	addfsr 0,1
  2501  06A9  0B89               	decfsz	9,f	;Have we reached the end of clearing yet?
  2502  06AA  2EA7               	goto	clrloop0	;have we reached the end yet?
  2503  06AB  3400               	retlw	0	;all done for this memory range, return
  2504                           
  2505                           	psect	cstackCOMMON
  2506  0070                     __pcstackCOMMON:	
  2507  0070                     ?_PMD_Initialize:	
  2508  0070                     ??_PMD_Initialize:	
  2509                           ; 1 bytes @ 0x0
  2510                           
  2511  0070                     ?_PIN_MANAGER_Initialize:	
  2512                           ; 1 bytes @ 0x0
  2513                           
  2514  0070                     ??_PIN_MANAGER_Initialize:	
  2515                           ; 1 bytes @ 0x0
  2516                           
  2517  0070                     ?_OSCILLATOR_Initialize:	
  2518                           ; 1 bytes @ 0x0
  2519                           
  2520  0070                     ??_OSCILLATOR_Initialize:	
  2521                           ; 1 bytes @ 0x0
  2522                           
  2523  0070                     ?_WDT_Initialize:	
  2524                           ; 1 bytes @ 0x0
  2525                           
  2526  0070                     ??_WDT_Initialize:	
  2527                           ; 1 bytes @ 0x0
  2528                           
  2529  0070                     ?_spiInit:	
  2530                           ; 1 bytes @ 0x0
  2531                           
  2532  0070                     ?_EUSART_Initialize:	
  2533                           ; 1 bytes @ 0x0
  2534                           
  2535  0070                     ??_EUSART_Initialize:	
  2536                           ; 1 bytes @ 0x0
  2537                           
  2538  0070                     ?_EUSART_Write:	
  2539                           ; 1 bytes @ 0x0
  2540                           
  2541  0070                     ??_EUSART_Write:	
  2542                           ; 1 bytes @ 0x0
  2543                           
  2544  0070                     ?_SYSTEM_Initialize:	
  2545                           ; 1 bytes @ 0x0
  2546                           
  2547  0070                     ??_SYSTEM_Initialize:	
  2548                           ; 1 bytes @ 0x0
  2549                           
  2550  0070                     ?_main:	
  2551                           ; 1 bytes @ 0x0
  2552                           
  2553  0070                     ?___lldiv:	
  2554                           ; 1 bytes @ 0x0
  2555                           
  2556  0070                     EUSART_Write@txData:	
  2557                           ; 4 bytes @ 0x0
  2558                           
  2559  0070                     spiInit@sDataSample:	
  2560                           ; 1 bytes @ 0x0
  2561                           
  2562  0070                     ___lldiv@divisor:	
  2563                           ; 1 bytes @ 0x0
  2564                           
  2565                           
  2566                           ; 4 bytes @ 0x0
  2567  0070                     	ds	1
  2568  0071                     spiInit@sClockIdle:	
  2569                           
  2570                           ; 1 bytes @ 0x1
  2571  0071                     	ds	1
  2572  0072                     spiInit@sTransmitEdge:	
  2573                           
  2574                           ; 1 bytes @ 0x2
  2575  0072                     	ds	1
  2576  0073                     ??_spiInit:	
  2577  0073                     spiInit@sType:	
  2578                           ; 1 bytes @ 0x3
  2579                           
  2580                           
  2581                           ; 1 bytes @ 0x3
  2582  0073                     	ds	1
  2583  0074                     ___lldiv@dividend:	
  2584                           
  2585                           ; 4 bytes @ 0x4
  2586  0074                     	ds	4
  2587  0078                     ??___lldiv:	
  2588                           
  2589                           ; 1 bytes @ 0x8
  2590  0078                     	ds	1
  2591  0079                     ___lldiv@quotient:	
  2592                           
  2593                           ; 4 bytes @ 0x9
  2594  0079                     	ds	4
  2595  007D                     ___lldiv@counter:	
  2596                           
  2597                           ; 1 bytes @ 0xD
  2598  007D                     	ds	1
  2599                           
  2600                           	psect	cstackBANK0
  2601  0045                     __pcstackBANK0:	
  2602  0045                     ?_I2C_Master_Init:	
  2603  0045                     I2C_Master_Init@c:	
  2604                           ; 1 bytes @ 0x0
  2605                           
  2606                           
  2607                           ; 4 bytes @ 0x0
  2608  0045                     	ds	4
  2609  0049                     ??_I2C_Master_Init:	
  2610                           
  2611                           ; 1 bytes @ 0x4
  2612  0049                     	ds	4
  2613  004D                     ??_main:	
  2614                           
  2615                           ; 1 bytes @ 0x8
  2616  004D                     	ds	2
  2617                           
  2618                           	psect	maintext
  2619  0725                     __pmaintext:	
  2620 ;;
  2621 ;;Main: autosize = 0, tempsize = 2, incstack = 0, save=0
  2622 ;;
  2623 ;; *************** function _main *****************
  2624 ;; Defined at:
  2625 ;;		line 43 in file "main.c"
  2626 ;; Parameters:    Size  Location     Type
  2627 ;;		None
  2628 ;; Auto vars:     Size  Location     Type
  2629 ;;  lux             2    0        unsigned int 
  2630 ;; Return value:  Size  Location     Type
  2631 ;;                  1    wreg      void 
  2632 ;; Registers used:
  2633 ;;		wreg, status,2, status,0, pclath, cstack
  2634 ;; Tracked objects:
  2635 ;;		On entry : B1F/0
  2636 ;;		On exit  : 0/0
  2637 ;;		Unchanged: 0/0
  2638 ;; Data sizes:     COMMON   BANK0   BANK1   BANK2   BANK3   BANK4   BANK5   BANK6   BANK7   BANK8   BANK9  BANK10  BANK1
      +1  BANK12
  2639 ;;      Params:         0       0       0       0       0       0       0       0       0       0       0       0       
      +0       0
  2640 ;;      Locals:         0       0       0       0       0       0       0       0       0       0       0       0       
      +0       0
  2641 ;;      Temps:          0       2       0       0       0       0       0       0       0       0       0       0       
      +0       0
  2642 ;;      Totals:         0       2       0       0       0       0       0       0       0       0       0       0       
      +0       0
  2643 ;;Total ram usage:        2 bytes
  2644 ;; Hardware stack levels required when called:    2
  2645 ;; This function calls:
  2646 ;;		_EUSART_Write
  2647 ;;		_I2C_Master_Init
  2648 ;;		_SYSTEM_Initialize
  2649 ;;		_spiInit
  2650 ;; This function is called by:
  2651 ;;		Startup code after reset
  2652 ;; This function uses a non-reentrant model
  2653 ;;
  2654                           
  2655                           
  2656                           ;psect for function _main
  2657  0725                     _main:	
  2658                           
  2659                           ;main.c: 46: SYSTEM_Initialize();
  2660                           
  2661                           ;incstack = 0
  2662                           ; Regs used in _main: [wreg+status,2+status,0+pclath+cstack]
  2663  0725  3186  26D0  3187   	fcall	_SYSTEM_Initialize
  2664                           
  2665                           ;main.c: 47: I2C_Master_Init(100000);
  2666  0728  3000               	movlw	0
  2667  0729  0020               	movlb	0	; select bank0
  2668  072A  00C8               	movwf	I2C_Master_Init@c+3
  2669  072B  3001               	movlw	1
  2670  072C  00C7               	movwf	I2C_Master_Init@c+2
  2671  072D  3086               	movlw	134
  2672  072E  00C6               	movwf	I2C_Master_Init@c+1
  2673  072F  30A0               	movlw	160
  2674  0730  00C5               	movwf	I2C_Master_Init@c
  2675  0731  3186  26F6  3187   	fcall	_I2C_Master_Init
  2676                           
  2677                           ;main.c: 48: spiInit(SPI_MASTER_OSC_DIV4,SPI_DATA_SAMPLE_MIDDLE,SPI_CLOCK_IDLE_LOW,SPI_I
      +                          DLE_2_ACTIVE);
  2678  0734  01F0               	clrf	spiInit@sDataSample
  2679  0735  01F1               	clrf	spiInit@sClockIdle
  2680  0736  01F2               	clrf	spiInit@sTransmitEdge
  2681  0737  3020               	movlw	32
  2682  0738  3186  26DF  3187   	fcall	_spiInit
  2683                           
  2684                           ;main.c: 49: uint16_t lux ;
  2685                           ;main.c: 57: TRISCbits.TRISC3 = 0 ;
  2686  073B  0021               	movlb	1	; select bank1
  2687  073C  118E               	bcf	14,3	;volatile
  2688  073D                     l1342:	
  2689                           ;main.c: 58: while(1)
  2690                           
  2691                           
  2692                           ;main.c: 59: {
  2693                           ;main.c: 61: PORTCbits.RC3 =1;
  2694  073D  0020               	movlb	0	; select bank0
  2695  073E  158E               	bsf	14,3	;volatile
  2696                           
  2697                           ;main.c: 62: _delay((unsigned long)((1000)*(2000000/4000.0)));
  2698  073F  3003               	movlw	3
  2699  0740  0020               	movlb	0	; select bank0
  2700  0741  00CE               	movwf	??_main+1
  2701  0742  308A               	movlw	138
  2702  0743  00CD               	movwf	??_main
  2703  0744  3055               	movlw	85
  2704  0745                     u1627:	
  2705  0745  0B89               	decfsz	9,f
  2706  0746  2F45               	goto	u1627
  2707  0747  0BCD               	decfsz	??_main,f
  2708  0748  2F45               	goto	u1627
  2709  0749  0BCE               	decfsz	??_main+1,f
  2710  074A  2F45               	goto	u1627
  2711  074B  3200               	nop2
  2712                           
  2713                           ;main.c: 64: PORTCbits.RC3 =0;
  2714  074C  0020               	movlb	0	; select bank0
  2715  074D  118E               	bcf	14,3	;volatile
  2716                           
  2717                           ;main.c: 66: _delay((unsigned long)((1000)*(2000000/4000.0)));
  2718  074E  3003               	movlw	3
  2719  074F  0020               	movlb	0	; select bank0
  2720  0750  00CE               	movwf	??_main+1
  2721  0751  308A               	movlw	138
  2722  0752  00CD               	movwf	??_main
  2723  0753  3055               	movlw	85
  2724  0754                     u1637:	
  2725  0754  0B89               	decfsz	9,f
  2726  0755  2F54               	goto	u1637
  2727  0756  0BCD               	decfsz	??_main,f
  2728  0757  2F54               	goto	u1637
  2729  0758  0BCE               	decfsz	??_main+1,f
  2730  0759  2F54               	goto	u1637
  2731  075A  3200               	nop2
  2732                           
  2733                           ;main.c: 67: EUSART_Write('p');
  2734  075B  3070               	movlw	112
  2735  075C  3186  26AC  3187   	fcall	_EUSART_Write
  2736  075F  2F3D               	goto	l1342
  2737  0760                     __end_of_main:	
  2738                           
  2739                           	psect	text1
  2740  06DF                     __ptext1:	
  2741 ;; *************** function _spiInit *****************
  2742 ;; Defined at:
  2743 ;;		line 7 in file "SPI2.c"
  2744 ;; Parameters:    Size  Location     Type
  2745 ;;  sType           1    wreg     enum E7501
  2746 ;;  sDataSample     1    0[COMMON] enum E7509
  2747 ;;  sClockIdle      1    1[COMMON] enum E7513
  2748 ;;  sTransmitEdg    1    2[COMMON] enum E7517
  2749 ;; Auto vars:     Size  Location     Type
  2750 ;;  sType           1    3[COMMON] enum E7501
  2751 ;; Return value:  Size  Location     Type
  2752 ;;                  1    wreg      void 
  2753 ;; Registers used:
  2754 ;;		wreg, status,2, status,0
  2755 ;; Tracked objects:
  2756 ;;		On entry : 0/0
  2757 ;;		On exit  : 0/0
  2758 ;;		Unchanged: 0/0
  2759 ;; Data sizes:     COMMON   BANK0   BANK1   BANK2   BANK3   BANK4   BANK5   BANK6   BANK7   BANK8   BANK9  BANK10  BANK1
      +1  BANK12
  2760 ;;      Params:         3       0       0       0       0       0       0       0       0       0       0       0       
      +0       0
  2761 ;;      Locals:         1       0       0       0       0       0       0       0       0       0       0       0       
      +0       0
  2762 ;;      Temps:          0       0       0       0       0       0       0       0       0       0       0       0       
      +0       0
  2763 ;;      Totals:         4       0       0       0       0       0       0       0       0       0       0       0       
      +0       0
  2764 ;;Total ram usage:        4 bytes
  2765 ;; Hardware stack levels used:    1
  2766 ;; This function calls:
  2767 ;;		Nothing
  2768 ;; This function is called by:
  2769 ;;		_main
  2770 ;; This function uses a non-reentrant model
  2771 ;;
  2772                           
  2773                           
  2774                           ;psect for function _spiInit
  2775  06DF                     _spiInit:	
  2776                           
  2777                           ;incstack = 0
  2778                           ; Regs used in _spiInit: [wreg+status,2+status,0]
  2779                           ;spiInit@sType stored from wreg
  2780  06DF  00F3               	movwf	spiInit@sType
  2781                           
  2782                           ;SPI2.c: 9: TRISCbits.TRISC2 = 0;
  2783  06E0  0021               	movlb	1	; select bank1
  2784  06E1  110E               	bcf	14,2	;volatile
  2785                           
  2786                           ;SPI2.c: 10: TRISCbits.TRISC1 = 1;
  2787  06E2  148E               	bsf	14,1	;volatile
  2788                           
  2789                           ;SPI2.c: 11: if(sType & 0b00000100)
  2790  06E3  1D73               	btfss	spiInit@sType,2
  2791  06E4  2EEB               	goto	l1250
  2792                           
  2793                           ;SPI2.c: 12: {
  2794                           ;SPI2.c: 13: SSP2STAT = sTransmitEdge;
  2795  06E5  0872               	movf	spiInit@sTransmitEdge,w
  2796  06E6  0024               	movlb	4	; select bank4
  2797  06E7  009C               	movwf	28	;volatile
  2798                           
  2799                           ;SPI2.c: 14: TRISCbits.TRISC0 = 1;
  2800  06E8  0021               	movlb	1	; select bank1
  2801  06E9  140E               	bsf	14,0	;volatile
  2802                           
  2803                           ;SPI2.c: 15: }
  2804  06EA  2EF1               	goto	l298
  2805  06EB                     l1250:	
  2806                           
  2807                           ;SPI2.c: 16: else
  2808                           ;SPI2.c: 17: {
  2809                           ;SPI2.c: 18: SSP2STAT = sDataSample | sTransmitEdge;
  2810  06EB  0870               	movf	spiInit@sDataSample,w
  2811  06EC  0472               	iorwf	spiInit@sTransmitEdge,w
  2812  06ED  0024               	movlb	4	; select bank4
  2813  06EE  009C               	movwf	28	;volatile
  2814                           
  2815                           ;SPI2.c: 19: TRISCbits.TRISC0 = 0;
  2816  06EF  0021               	movlb	1	; select bank1
  2817  06F0  100E               	bcf	14,0	;volatile
  2818  06F1                     l298:	
  2819                           
  2820                           ;SPI2.c: 20: }
  2821                           ;SPI2.c: 22: SSP2CON1 = sType | sClockIdle;
  2822  06F1  0873               	movf	spiInit@sType,w
  2823  06F2  0471               	iorwf	spiInit@sClockIdle,w
  2824  06F3  0024               	movlb	4	; select bank4
  2825  06F4  009D               	movwf	29	;volatile
  2826  06F5  0008               	return
  2827  06F6                     __end_of_spiInit:	
  2828                           
  2829                           	psect	text2
  2830  06D0                     __ptext2:	
  2831 ;; *************** function _SYSTEM_Initialize *****************
  2832 ;; Defined at:
  2833 ;;		line 6 in file "system.c"
  2834 ;; Parameters:    Size  Location     Type
  2835 ;;		None
  2836 ;; Auto vars:     Size  Location     Type
  2837 ;;		None
  2838 ;; Return value:  Size  Location     Type
  2839 ;;                  1    wreg      void 
  2840 ;; Registers used:
  2841 ;;		wreg, status,2, status,0, pclath, cstack
  2842 ;; Tracked objects:
  2843 ;;		On entry : 0/0
  2844 ;;		On exit  : 0/0
  2845 ;;		Unchanged: 0/0
  2846 ;; Data sizes:     COMMON   BANK0   BANK1   BANK2   BANK3   BANK4   BANK5   BANK6   BANK7   BANK8   BANK9  BANK10  BANK1
      +1  BANK12
  2847 ;;      Params:         0       0       0       0       0       0       0       0       0       0       0       0       
      +0       0
  2848 ;;      Locals:         0       0       0       0       0       0       0       0       0       0       0       0       
      +0       0
  2849 ;;      Temps:          0       0       0       0       0       0       0       0       0       0       0       0       
      +0       0
  2850 ;;      Totals:         0       0       0       0       0       0       0       0       0       0       0       0       
      +0       0
  2851 ;;Total ram usage:        0 bytes
  2852 ;; Hardware stack levels used:    1
  2853 ;; Hardware stack levels required when called:    1
  2854 ;; This function calls:
  2855 ;;		_EUSART_Initialize
  2856 ;;		_OSCILLATOR_Initialize
  2857 ;;		_PIN_MANAGER_Initialize
  2858 ;;		_PMD_Initialize
  2859 ;;		_WDT_Initialize
  2860 ;; This function is called by:
  2861 ;;		_main
  2862 ;; This function uses a non-reentrant model
  2863 ;;
  2864                           
  2865                           
  2866                           ;psect for function _SYSTEM_Initialize
  2867  06D0                     _SYSTEM_Initialize:	
  2868                           
  2869                           ;system.c: 9: PMD_Initialize();
  2870                           
  2871                           ;incstack = 0
  2872                           ; Regs used in _SYSTEM_Initialize: [wreg+status,2+status,0+pclath+cstack]
  2873  06D0  3186  26B4  3186   	fcall	_PMD_Initialize
  2874                           
  2875                           ;system.c: 10: PIN_MANAGER_Initialize();
  2876  06D3  3187  2760  3186   	fcall	_PIN_MANAGER_Initialize
  2877                           
  2878                           ;system.c: 11: OSCILLATOR_Initialize();
  2879  06D6  3186  26BC  3186   	fcall	_OSCILLATOR_Initialize
  2880                           
  2881                           ;system.c: 12: WDT_Initialize();
  2882  06D9  3186  26A2  3186   	fcall	_WDT_Initialize
  2883                           
  2884                           ;system.c: 13: EUSART_Initialize();
  2885  06DC  3186  26C5         	fcall	_EUSART_Initialize
  2886  06DE  0008               	return
  2887  06DF                     __end_of_SYSTEM_Initialize:	
  2888                           
  2889                           	psect	text3
  2890  06A2                     __ptext3:	
  2891 ;; *************** function _WDT_Initialize *****************
  2892 ;; Defined at:
  2893 ;;		line 30 in file "system.c"
  2894 ;; Parameters:    Size  Location     Type
  2895 ;;		None
  2896 ;; Auto vars:     Size  Location     Type
  2897 ;;		None
  2898 ;; Return value:  Size  Location     Type
  2899 ;;                  1    wreg      void 
  2900 ;; Registers used:
  2901 ;;		wreg
  2902 ;; Tracked objects:
  2903 ;;		On entry : 0/0
  2904 ;;		On exit  : 0/0
  2905 ;;		Unchanged: 0/0
  2906 ;; Data sizes:     COMMON   BANK0   BANK1   BANK2   BANK3   BANK4   BANK5   BANK6   BANK7   BANK8   BANK9  BANK10  BANK1
      +1  BANK12
  2907 ;;      Params:         0       0       0       0       0       0       0       0       0       0       0       0       
      +0       0
  2908 ;;      Locals:         0       0       0       0       0       0       0       0       0       0       0       0       
      +0       0
  2909 ;;      Temps:          0       0       0       0       0       0       0       0       0       0       0       0       
      +0       0
  2910 ;;      Totals:         0       0       0       0       0       0       0       0       0       0       0       0       
      +0       0
  2911 ;;Total ram usage:        0 bytes
  2912 ;; Hardware stack levels used:    1
  2913 ;; This function calls:
  2914 ;;		Nothing
  2915 ;; This function is called by:
  2916 ;;		_SYSTEM_Initialize
  2917 ;; This function uses a non-reentrant model
  2918 ;;
  2919                           
  2920                           
  2921                           ;psect for function _WDT_Initialize
  2922  06A2                     _WDT_Initialize:	
  2923                           
  2924                           ;system.c: 33: WDTCON = 0x16;
  2925                           
  2926                           ;incstack = 0
  2927                           ; Regs used in _WDT_Initialize: [wreg]
  2928  06A2  3016               	movlw	22
  2929  06A3  0021               	movlb	1	; select bank1
  2930  06A4  0097               	movwf	23	;volatile
  2931  06A5  0008               	return
  2932  06A6                     __end_of_WDT_Initialize:	
  2933                           
  2934                           	psect	text4
  2935  06B4                     __ptext4:	
  2936 ;; *************** function _PMD_Initialize *****************
  2937 ;; Defined at:
  2938 ;;		line 36 in file "system.c"
  2939 ;; Parameters:    Size  Location     Type
  2940 ;;		None
  2941 ;; Auto vars:     Size  Location     Type
  2942 ;;		None
  2943 ;; Return value:  Size  Location     Type
  2944 ;;                  1    wreg      void 
  2945 ;; Registers used:
  2946 ;;		status,2
  2947 ;; Tracked objects:
  2948 ;;		On entry : 0/0
  2949 ;;		On exit  : 0/0
  2950 ;;		Unchanged: 0/0
  2951 ;; Data sizes:     COMMON   BANK0   BANK1   BANK2   BANK3   BANK4   BANK5   BANK6   BANK7   BANK8   BANK9  BANK10  BANK1
      +1  BANK12
  2952 ;;      Params:         0       0       0       0       0       0       0       0       0       0       0       0       
      +0       0
  2953 ;;      Locals:         0       0       0       0       0       0       0       0       0       0       0       0       
      +0       0
  2954 ;;      Temps:          0       0       0       0       0       0       0       0       0       0       0       0       
      +0       0
  2955 ;;      Totals:         0       0       0       0       0       0       0       0       0       0       0       0       
      +0       0
  2956 ;;Total ram usage:        0 bytes
  2957 ;; Hardware stack levels used:    1
  2958 ;; This function calls:
  2959 ;;		Nothing
  2960 ;; This function is called by:
  2961 ;;		_SYSTEM_Initialize
  2962 ;; This function uses a non-reentrant model
  2963 ;;
  2964                           
  2965                           
  2966                           ;psect for function _PMD_Initialize
  2967  06B4                     _PMD_Initialize:	
  2968                           
  2969                           ;system.c: 39: PMD0 = 0x00;
  2970                           
  2971                           ;incstack = 0
  2972                           ; Regs used in _PMD_Initialize: [status,2]
  2973  06B4  0032               	movlb	18	; select bank18
  2974  06B5  0191               	clrf	17	;volatile
  2975                           
  2976                           ;system.c: 41: PMD1 = 0x00;
  2977  06B6  0192               	clrf	18	;volatile
  2978                           
  2979                           ;system.c: 43: PMD2 = 0x00;
  2980  06B7  0193               	clrf	19	;volatile
  2981                           
  2982                           ;system.c: 45: PMD3 = 0x00;
  2983  06B8  0194               	clrf	20	;volatile
  2984                           
  2985                           ;system.c: 47: PMD4 = 0x00;
  2986  06B9  0195               	clrf	21	;volatile
  2987                           
  2988                           ;system.c: 49: PMD5 = 0x00;
  2989  06BA  0196               	clrf	22	;volatile
  2990  06BB  0008               	return
  2991  06BC                     __end_of_PMD_Initialize:	
  2992                           
  2993                           	psect	text5
  2994  0760                     __ptext5:	
  2995 ;; *************** function _PIN_MANAGER_Initialize *****************
  2996 ;; Defined at:
  2997 ;;		line 52 in file "system.c"
  2998 ;; Parameters:    Size  Location     Type
  2999 ;;		None
  3000 ;; Auto vars:     Size  Location     Type
  3001 ;;		None
  3002 ;; Return value:  Size  Location     Type
  3003 ;;                  1    wreg      void 
  3004 ;; Registers used:
  3005 ;;		wreg, status,2, status,0
  3006 ;; Tracked objects:
  3007 ;;		On entry : 0/0
  3008 ;;		On exit  : 0/0
  3009 ;;		Unchanged: 0/0
  3010 ;; Data sizes:     COMMON   BANK0   BANK1   BANK2   BANK3   BANK4   BANK5   BANK6   BANK7   BANK8   BANK9  BANK10  BANK1
      +1  BANK12
  3011 ;;      Params:         0       0       0       0       0       0       0       0       0       0       0       0       
      +0       0
  3012 ;;      Locals:         0       0       0       0       0       0       0       0       0       0       0       0       
      +0       0
  3013 ;;      Temps:          0       0       0       0       0       0       0       0       0       0       0       0       
      +0       0
  3014 ;;      Totals:         0       0       0       0       0       0       0       0       0       0       0       0       
      +0       0
  3015 ;;Total ram usage:        0 bytes
  3016 ;; Hardware stack levels used:    1
  3017 ;; This function calls:
  3018 ;;		Nothing
  3019 ;; This function is called by:
  3020 ;;		_SYSTEM_Initialize
  3021 ;; This function uses a non-reentrant model
  3022 ;;
  3023                           
  3024                           
  3025                           ;psect for function _PIN_MANAGER_Initialize
  3026  0760                     _PIN_MANAGER_Initialize:	
  3027                           
  3028                           ;system.c: 57: LATA = 0x00;
  3029                           
  3030                           ;incstack = 0
  3031                           ; Regs used in _PIN_MANAGER_Initialize: [wreg+status,2+status,0]
  3032  0760  0022               	movlb	2	; select bank2
  3033  0761  018C               	clrf	12	;volatile
  3034                           
  3035                           ;system.c: 58: LATC = 0x00;
  3036  0762  018E               	clrf	14	;volatile
  3037                           
  3038                           ;system.c: 63: TRISA = 0x37;
  3039  0763  3037               	movlw	55
  3040  0764  0021               	movlb	1	; select bank1
  3041  0765  008C               	movwf	12	;volatile
  3042                           
  3043                           ;system.c: 64: TRISC = 0x2A;
  3044  0766  302A               	movlw	42
  3045  0767  008E               	movwf	14	;volatile
  3046                           
  3047                           ;system.c: 69: ANSELC = 0x1C;
  3048  0768  301C               	movlw	28
  3049  0769  0023               	movlb	3	; select bank3
  3050  076A  008E               	movwf	14	;volatile
  3051                           
  3052                           ;system.c: 70: ANSELA = 0x07;
  3053  076B  3007               	movlw	7
  3054  076C  008C               	movwf	12	;volatile
  3055                           
  3056                           ;system.c: 75: WPUA = 0x00;
  3057  076D  0024               	movlb	4	; select bank4
  3058  076E  018C               	clrf	12	;volatile
  3059                           
  3060                           ;system.c: 76: WPUC = 0x00;
  3061  076F  018E               	clrf	14	;volatile
  3062                           
  3063                           ;system.c: 81: ODCONA = 0x00;
  3064  0770  0025               	movlb	5	; select bank5
  3065  0771  018C               	clrf	12	;volatile
  3066                           
  3067                           ;system.c: 82: ODCONC = 0x00;
  3068  0772  018E               	clrf	14	;volatile
  3069                           
  3070                           ;system.c: 83: SSP1DATPPSbits.SSP1DATPPS = 0x04;
  3071  0773  003C               	movlb	28	; select bank28
  3072  0774  0821               	movf	33,w	;volatile
  3073  0775  39E0               	andlw	-32
  3074  0776  3804               	iorlw	4
  3075  0777  00A1               	movwf	33	;volatile
  3076                           
  3077                           ;system.c: 84: SSP1CLKPPSbits.SSP1CLKPPS = 0x05;
  3078  0778  0820               	movf	32,w	;volatile
  3079  0779  39E0               	andlw	-32
  3080  077A  3805               	iorlw	5
  3081  077B  00A0               	movwf	32	;volatile
  3082                           
  3083                           ;system.c: 85: RXPPSbits.RXPPS = 0x15;
  3084  077C  0824               	movf	36,w	;volatile
  3085  077D  39E0               	andlw	-32
  3086  077E  3815               	iorlw	21
  3087  077F  00A4               	movwf	36	;volatile
  3088                           
  3089                           ;system.c: 86: RA4PPSbits.RA4PPS = 0x19;
  3090  0780  003D               	movlb	29	; select bank29
  3091  0781  0814               	movf	20,w	;volatile
  3092  0782  39E0               	andlw	-32
  3093  0783  3819               	iorlw	25
  3094  0784  0094               	movwf	20	;volatile
  3095                           
  3096                           ;system.c: 87: RC4PPSbits.RC4PPS = 0x14;
  3097  0785  0824               	movf	36,w	;volatile
  3098  0786  39E0               	andlw	-32
  3099  0787  3814               	iorlw	20
  3100  0788  00A4               	movwf	36	;volatile
  3101                           
  3102                           ;system.c: 88: RC0PPSbits.RC0PPS = 0x1A;
  3103  0789  0820               	movf	32,w	;volatile
  3104  078A  39E0               	andlw	-32
  3105  078B  381A               	iorlw	26
  3106  078C  00A0               	movwf	32	;volatile
  3107                           
  3108                           ;system.c: 89: RC2PPSbits.RC2PPS = 0x1B;
  3109  078D  0822               	movf	34,w	;volatile
  3110  078E  39E0               	andlw	-32
  3111  078F  381B               	iorlw	27
  3112  0790  00A2               	movwf	34	;volatile
  3113                           
  3114                           ;system.c: 90: SSP2CLKPPSbits.SSP2CLKPPS = 0x10;
  3115  0791  003C               	movlb	28	; select bank28
  3116  0792  081D               	movf	29,w	;volatile
  3117  0793  39E0               	andlw	-32
  3118  0794  3810               	iorlw	16
  3119  0795  009D               	movwf	29	;volatile
  3120                           
  3121                           ;system.c: 91: SSP2DATPPSbits.SSP2DATPPS = 0x11;
  3122  0796  081E               	movf	30,w	;volatile
  3123  0797  39E0               	andlw	-32
  3124  0798  3811               	iorlw	17
  3125  0799  009E               	movwf	30	;volatile
  3126                           
  3127                           ;system.c: 92: RA5PPSbits.RA5PPS = 0x18;
  3128  079A  003D               	movlb	29	; select bank29
  3129  079B  0815               	movf	21,w	;volatile
  3130  079C  39E0               	andlw	-32
  3131  079D  3818               	iorlw	24
  3132  079E  0095               	movwf	21	;volatile
  3133                           
  3134                           ;system.c: 93: RC5PPSbits.RC5PPS = 0x1B;
  3135  079F  0825               	movf	37,w	;volatile
  3136  07A0  39E0               	andlw	-32
  3137  07A1  381B               	iorlw	27
  3138  07A2  00A5               	movwf	37	;volatile
  3139  07A3  0008               	return
  3140  07A4                     __end_of_PIN_MANAGER_Initialize:	
  3141                           
  3142                           	psect	text6
  3143  06BC                     __ptext6:	
  3144 ;; *************** function _OSCILLATOR_Initialize *****************
  3145 ;; Defined at:
  3146 ;;		line 16 in file "system.c"
  3147 ;; Parameters:    Size  Location     Type
  3148 ;;		None
  3149 ;; Auto vars:     Size  Location     Type
  3150 ;;		None
  3151 ;; Return value:  Size  Location     Type
  3152 ;;                  1    wreg      void 
  3153 ;; Registers used:
  3154 ;;		wreg, status,2
  3155 ;; Tracked objects:
  3156 ;;		On entry : 0/0
  3157 ;;		On exit  : 0/0
  3158 ;;		Unchanged: 0/0
  3159 ;; Data sizes:     COMMON   BANK0   BANK1   BANK2   BANK3   BANK4   BANK5   BANK6   BANK7   BANK8   BANK9  BANK10  BANK1
      +1  BANK12
  3160 ;;      Params:         0       0       0       0       0       0       0       0       0       0       0       0       
      +0       0
  3161 ;;      Locals:         0       0       0       0       0       0       0       0       0       0       0       0       
      +0       0
  3162 ;;      Temps:          0       0       0       0       0       0       0       0       0       0       0       0       
      +0       0
  3163 ;;      Totals:         0       0       0       0       0       0       0       0       0       0       0       0       
      +0       0
  3164 ;;Total ram usage:        0 bytes
  3165 ;; Hardware stack levels used:    1
  3166 ;; This function calls:
  3167 ;;		Nothing
  3168 ;; This function is called by:
  3169 ;;		_SYSTEM_Initialize
  3170 ;; This function uses a non-reentrant model
  3171 ;;
  3172                           
  3173                           
  3174                           ;psect for function _OSCILLATOR_Initialize
  3175  06BC                     _OSCILLATOR_Initialize:	
  3176                           
  3177                           ;system.c: 19: OSCCON1 = 0x60;
  3178                           
  3179                           ;incstack = 0
  3180                           ; Regs used in _OSCILLATOR_Initialize: [wreg+status,2]
  3181  06BC  3060               	movlw	96
  3182  06BD  0032               	movlb	18	; select bank18
  3183  06BE  0099               	movwf	25	;volatile
  3184                           
  3185                           ;system.c: 21: OSCCON3 = 0x00;
  3186  06BF  019B               	clrf	27	;volatile
  3187                           
  3188                           ;system.c: 23: OSCEN = 0x00;
  3189  06C0  019D               	clrf	29	;volatile
  3190                           
  3191                           ;system.c: 25: OSCFRQ = 0x01;
  3192  06C1  3001               	movlw	1
  3193  06C2  009F               	movwf	31	;volatile
  3194                           
  3195                           ;system.c: 27: OSCTUNE = 0x00;
  3196  06C3  019E               	clrf	30	;volatile
  3197  06C4  0008               	return
  3198  06C5                     __end_of_OSCILLATOR_Initialize:	
  3199                           
  3200                           	psect	text7
  3201  06C5                     __ptext7:	
  3202 ;; *************** function _EUSART_Initialize *****************
  3203 ;; Defined at:
  3204 ;;		line 15 in file "eusart.c"
  3205 ;; Parameters:    Size  Location     Type
  3206 ;;		None
  3207 ;; Auto vars:     Size  Location     Type
  3208 ;;		None
  3209 ;; Return value:  Size  Location     Type
  3210 ;;                  1    wreg      void 
  3211 ;; Registers used:
  3212 ;;		wreg, status,2
  3213 ;; Tracked objects:
  3214 ;;		On entry : 0/0
  3215 ;;		On exit  : 0/0
  3216 ;;		Unchanged: 0/0
  3217 ;; Data sizes:     COMMON   BANK0   BANK1   BANK2   BANK3   BANK4   BANK5   BANK6   BANK7   BANK8   BANK9  BANK10  BANK1
      +1  BANK12
  3218 ;;      Params:         0       0       0       0       0       0       0       0       0       0       0       0       
      +0       0
  3219 ;;      Locals:         0       0       0       0       0       0       0       0       0       0       0       0       
      +0       0
  3220 ;;      Temps:          0       0       0       0       0       0       0       0       0       0       0       0       
      +0       0
  3221 ;;      Totals:         0       0       0       0       0       0       0       0       0       0       0       0       
      +0       0
  3222 ;;Total ram usage:        0 bytes
  3223 ;; Hardware stack levels used:    1
  3224 ;; This function calls:
  3225 ;;		Nothing
  3226 ;; This function is called by:
  3227 ;;		_SYSTEM_Initialize
  3228 ;; This function uses a non-reentrant model
  3229 ;;
  3230                           
  3231                           
  3232                           ;psect for function _EUSART_Initialize
  3233  06C5                     _EUSART_Initialize:	
  3234                           
  3235                           ;eusart.c: 20: BAUD1CON = 0x0A;
  3236                           
  3237                           ;incstack = 0
  3238                           ; Regs used in _EUSART_Initialize: [wreg+status,2]
  3239  06C5  300A               	movlw	10
  3240  06C6  0023               	movlb	3	; select bank3
  3241  06C7  009F               	movwf	31	;volatile
  3242                           
  3243                           ;eusart.c: 24: RC1STA = 0x90;
  3244  06C8  3090               	movlw	144
  3245  06C9  009D               	movwf	29	;volatile
  3246                           
  3247                           ;eusart.c: 27: TX1STA = 0x24;
  3248  06CA  3024               	movlw	36
  3249  06CB  009E               	movwf	30	;volatile
  3250                           
  3251                           ;eusart.c: 30: SP1BRGL = 0x33;
  3252  06CC  3033               	movlw	51
  3253  06CD  009B               	movwf	27	;volatile
  3254                           
  3255                           ;eusart.c: 33: SP1BRGH = 0x00;
  3256  06CE  019C               	clrf	28	;volatile
  3257  06CF  0008               	return
  3258  06D0                     __end_of_EUSART_Initialize:	
  3259                           
  3260                           	psect	text8
  3261  06F6                     __ptext8:	
  3262 ;; *************** function _I2C_Master_Init *****************
  3263 ;; Defined at:
  3264 ;;		line 10 in file "I2C1.c"
  3265 ;; Parameters:    Size  Location     Type
  3266 ;;  c               4    0[BANK0 ] const unsigned long 
  3267 ;; Auto vars:     Size  Location     Type
  3268 ;;		None
  3269 ;; Return value:  Size  Location     Type
  3270 ;;                  1    wreg      void 
  3271 ;; Registers used:
  3272 ;;		wreg, status,2, status,0, pclath, cstack
  3273 ;; Tracked objects:
  3274 ;;		On entry : 0/0
  3275 ;;		On exit  : 0/0
  3276 ;;		Unchanged: 0/0
  3277 ;; Data sizes:     COMMON   BANK0   BANK1   BANK2   BANK3   BANK4   BANK5   BANK6   BANK7   BANK8   BANK9  BANK10  BANK1
      +1  BANK12
  3278 ;;      Params:         0       4       0       0       0       0       0       0       0       0       0       0       
      +0       0
  3279 ;;      Locals:         0       0       0       0       0       0       0       0       0       0       0       0       
      +0       0
  3280 ;;      Temps:          0       4       0       0       0       0       0       0       0       0       0       0       
      +0       0
  3281 ;;      Totals:         0       8       0       0       0       0       0       0       0       0       0       0       
      +0       0
  3282 ;;Total ram usage:        8 bytes
  3283 ;; Hardware stack levels used:    1
  3284 ;; Hardware stack levels required when called:    1
  3285 ;; This function calls:
  3286 ;;		___lldiv
  3287 ;; This function is called by:
  3288 ;;		_main
  3289 ;; This function uses a non-reentrant model
  3290 ;;
  3291                           
  3292                           
  3293                           ;psect for function _I2C_Master_Init
  3294  06F6                     _I2C_Master_Init:	
  3295                           
  3296                           ;I2C1.c: 12: SSP1CON1 = 0b00101000;
  3297                           
  3298                           ;incstack = 0
  3299                           ; Regs used in _I2C_Master_Init: [wreg+status,2+status,0+pclath+cstack]
  3300  06F6  3028               	movlw	40
  3301  06F7  0024               	movlb	4	; select bank4
  3302  06F8  0095               	movwf	21	;volatile
  3303                           
  3304                           ;I2C1.c: 13: SSP1CON2 = 0;
  3305  06F9  0196               	clrf	22	;volatile
  3306                           
  3307                           ;I2C1.c: 14: SSP1ADD = (2000000/(4*c))-1;
  3308  06FA  0020               	movlb	0	; select bank0
  3309  06FB  0845               	movf	I2C_Master_Init@c,w
  3310  06FC  00C9               	movwf	??_I2C_Master_Init
  3311  06FD  0846               	movf	I2C_Master_Init@c+1,w
  3312  06FE  00CA               	movwf	??_I2C_Master_Init+1
  3313  06FF  0847               	movf	I2C_Master_Init@c+2,w
  3314  0700  00CB               	movwf	??_I2C_Master_Init+2
  3315  0701  0848               	movf	I2C_Master_Init@c+3,w
  3316  0702  00CC               	movwf	??_I2C_Master_Init+3
  3317  0703  3002               	movlw	2
  3318  0704                     u815:	
  3319  0704  35C9               	lslf	??_I2C_Master_Init,f
  3320  0705  0DCA               	rlf	??_I2C_Master_Init+1,f
  3321  0706  0DCB               	rlf	??_I2C_Master_Init+2,f
  3322  0707  0DCC               	rlf	??_I2C_Master_Init+3,f
  3323  0708  0B89               	decfsz	9,f
  3324  0709  2F04               	goto	u815
  3325  070A  084C               	movf	??_I2C_Master_Init+3,w
  3326  070B  00F3               	movwf	___lldiv@divisor+3
  3327  070C  084B               	movf	??_I2C_Master_Init+2,w
  3328  070D  00F2               	movwf	___lldiv@divisor+2
  3329  070E  084A               	movf	??_I2C_Master_Init+1,w
  3330  070F  00F1               	movwf	___lldiv@divisor+1
  3331  0710  0849               	movf	??_I2C_Master_Init,w
  3332  0711  00F0               	movwf	___lldiv@divisor
  3333  0712  3000               	movlw	0
  3334  0713  00F7               	movwf	___lldiv@dividend+3
  3335  0714  301E               	movlw	30
  3336  0715  00F6               	movwf	___lldiv@dividend+2
  3337  0716  3084               	movlw	132
  3338  0717  00F5               	movwf	___lldiv@dividend+1
  3339  0718  3080               	movlw	128
  3340  0719  00F4               	movwf	___lldiv@dividend
  3341  071A  3187  27A4         	fcall	___lldiv
  3342  071C  0870               	movf	?___lldiv,w
  3343  071D  3EFF               	addlw	255
  3344  071E  0024               	movlb	4	; select bank4
  3345  071F  0092               	movwf	18	;volatile
  3346                           
  3347                           ;I2C1.c: 15: SSP1STAT = 0;
  3348  0720  0194               	clrf	20	;volatile
  3349                           
  3350                           ;I2C1.c: 16: TRISAbits.TRISA5 = 1;
  3351  0721  0021               	movlb	1	; select bank1
  3352  0722  168C               	bsf	12,5	;volatile
  3353                           
  3354                           ;I2C1.c: 17: TRISAbits.TRISA4 = 1;
  3355  0723  160C               	bsf	12,4	;volatile
  3356  0724  0008               	return
  3357  0725                     __end_of_I2C_Master_Init:	
  3358                           
  3359                           	psect	text9
  3360  07A4                     __ptext9:	
  3361 ;; *************** function ___lldiv *****************
  3362 ;; Defined at:
  3363 ;;		line 6 in file "/opt/microchip/xc8/v1.45/sources/common/lldiv.c"
  3364 ;; Parameters:    Size  Location     Type
  3365 ;;  divisor         4    0[COMMON] unsigned long 
  3366 ;;  dividend        4    4[COMMON] unsigned long 
  3367 ;; Auto vars:     Size  Location     Type
  3368 ;;  quotient        4    9[COMMON] unsigned long 
  3369 ;;  counter         1   13[COMMON] unsigned char 
  3370 ;; Return value:  Size  Location     Type
  3371 ;;                  4    0[COMMON] unsigned long 
  3372 ;; Registers used:
  3373 ;;		wreg, status,2, status,0
  3374 ;; Tracked objects:
  3375 ;;		On entry : 0/0
  3376 ;;		On exit  : 0/0
  3377 ;;		Unchanged: 0/0
  3378 ;; Data sizes:     COMMON   BANK0   BANK1   BANK2   BANK3   BANK4   BANK5   BANK6   BANK7   BANK8   BANK9  BANK10  BANK1
      +1  BANK12
  3379 ;;      Params:         8       0       0       0       0       0       0       0       0       0       0       0       
      +0       0
  3380 ;;      Locals:         5       0       0       0       0       0       0       0       0       0       0       0       
      +0       0
  3381 ;;      Temps:          1       0       0       0       0       0       0       0       0       0       0       0       
      +0       0
  3382 ;;      Totals:        14       0       0       0       0       0       0       0       0       0       0       0       
      +0       0
  3383 ;;Total ram usage:       14 bytes
  3384 ;; Hardware stack levels used:    1
  3385 ;; This function calls:
  3386 ;;		Nothing
  3387 ;; This function is called by:
  3388 ;;		_I2C_Master_Init
  3389 ;;		_BME280_readPressure
  3390 ;; This function uses a non-reentrant model
  3391 ;;
  3392                           
  3393                           
  3394                           ;psect for function ___lldiv
  3395  07A4                     ___lldiv:	
  3396                           
  3397                           ;incstack = 0
  3398                           ; Regs used in ___lldiv: [wreg+status,2+status,0]
  3399  07A4  3000               	movlw	0
  3400  07A5  00FC               	movwf	___lldiv@quotient+3
  3401  07A6  3000               	movlw	0
  3402  07A7  00FB               	movwf	___lldiv@quotient+2
  3403  07A8  3000               	movlw	0
  3404  07A9  00FA               	movwf	___lldiv@quotient+1
  3405  07AA  3000               	movlw	0
  3406  07AB  00F9               	movwf	___lldiv@quotient
  3407  07AC  0873               	movf	___lldiv@divisor+3,w
  3408  07AD  0472               	iorwf	___lldiv@divisor+2,w
  3409  07AE  0471               	iorwf	___lldiv@divisor+1,w
  3410  07AF  0470               	iorwf	___lldiv@divisor,w
  3411  07B0  1903               	skipnz
  3412  07B1  2FED               	goto	l1226
  3413  07B2  01FD               	clrf	___lldiv@counter
  3414  07B3  0AFD               	incf	___lldiv@counter,f
  3415  07B4                     l1212:	
  3416  07B4  1BF3               	btfsc	___lldiv@divisor+3,7
  3417  07B5  2FC2               	goto	l1214
  3418  07B6  3001               	movlw	1
  3419  07B7                     u755:	
  3420  07B7  35F0               	lslf	___lldiv@divisor,f
  3421  07B8  0DF1               	rlf	___lldiv@divisor+1,f
  3422  07B9  0DF2               	rlf	___lldiv@divisor+2,f
  3423  07BA  0DF3               	rlf	___lldiv@divisor+3,f
  3424  07BB  0B89               	decfsz	9,f
  3425  07BC  2FB7               	goto	u755
  3426  07BD  3001               	movlw	1
  3427  07BE  00F8               	movwf	??___lldiv
  3428  07BF  0878               	movf	??___lldiv,w
  3429  07C0  07FD               	addwf	___lldiv@counter,f
  3430  07C1  2FB4               	goto	l1212
  3431  07C2                     l1214:	
  3432  07C2  3001               	movlw	1
  3433  07C3                     u775:	
  3434  07C3  35F9               	lslf	___lldiv@quotient,f
  3435  07C4  0DFA               	rlf	___lldiv@quotient+1,f
  3436  07C5  0DFB               	rlf	___lldiv@quotient+2,f
  3437  07C6  0DFC               	rlf	___lldiv@quotient+3,f
  3438  07C7  0B89               	decfsz	9,f
  3439  07C8  2FC3               	goto	u775
  3440  07C9  0873               	movf	___lldiv@divisor+3,w
  3441  07CA  0277               	subwf	___lldiv@dividend+3,w
  3442  07CB  1D03               	skipz
  3443  07CC  2FD7               	goto	u785
  3444  07CD  0872               	movf	___lldiv@divisor+2,w
  3445  07CE  0276               	subwf	___lldiv@dividend+2,w
  3446  07CF  1D03               	skipz
  3447  07D0  2FD7               	goto	u785
  3448  07D1  0871               	movf	___lldiv@divisor+1,w
  3449  07D2  0275               	subwf	___lldiv@dividend+1,w
  3450  07D3  1D03               	skipz
  3451  07D4  2FD7               	goto	u785
  3452  07D5  0870               	movf	___lldiv@divisor,w
  3453  07D6  0274               	subwf	___lldiv@dividend,w
  3454  07D7                     u785:	
  3455  07D7  1C03               	skipc
  3456  07D8  2FE2               	goto	l1222
  3457  07D9  0870               	movf	___lldiv@divisor,w
  3458  07DA  02F4               	subwf	___lldiv@dividend,f
  3459  07DB  0871               	movf	___lldiv@divisor+1,w
  3460  07DC  3BF5               	subwfb	___lldiv@dividend+1,f
  3461  07DD  0872               	movf	___lldiv@divisor+2,w
  3462  07DE  3BF6               	subwfb	___lldiv@dividend+2,f
  3463  07DF  0873               	movf	___lldiv@divisor+3,w
  3464  07E0  3BF7               	subwfb	___lldiv@dividend+3,f
  3465  07E1  1479               	bsf	___lldiv@quotient,0
  3466  07E2                     l1222:	
  3467  07E2  3001               	movlw	1
  3468  07E3                     u795:	
  3469  07E3  36F3               	lsrf	___lldiv@divisor+3,f
  3470  07E4  0CF2               	rrf	___lldiv@divisor+2,f
  3471  07E5  0CF1               	rrf	___lldiv@divisor+1,f
  3472  07E6  0CF0               	rrf	___lldiv@divisor,f
  3473  07E7  0B89               	decfsz	9,f
  3474  07E8  2FE3               	goto	u795
  3475  07E9  3001               	movlw	1
  3476  07EA  02FD               	subwf	___lldiv@counter,f
  3477  07EB  1D03               	btfss	3,2
  3478  07EC  2FC2               	goto	l1214
  3479  07ED                     l1226:	
  3480  07ED  087C               	movf	___lldiv@quotient+3,w
  3481  07EE  00F3               	movwf	?___lldiv+3
  3482  07EF  087B               	movf	___lldiv@quotient+2,w
  3483  07F0  00F2               	movwf	?___lldiv+2
  3484  07F1  087A               	movf	___lldiv@quotient+1,w
  3485  07F2  00F1               	movwf	?___lldiv+1
  3486  07F3  0879               	movf	___lldiv@quotient,w
  3487  07F4  00F0               	movwf	?___lldiv
  3488  07F5  0008               	return
  3489  07F6                     __end_of___lldiv:	
  3490                           
  3491                           	psect	text10
  3492  06AC                     __ptext10:	
  3493 ;; *************** function _EUSART_Write *****************
  3494 ;; Defined at:
  3495 ;;		line 73 in file "eusart.c"
  3496 ;; Parameters:    Size  Location     Type
  3497 ;;  txData          1    wreg     unsigned char 
  3498 ;; Auto vars:     Size  Location     Type
  3499 ;;  txData          1    0[COMMON] unsigned char 
  3500 ;; Return value:  Size  Location     Type
  3501 ;;                  1    wreg      void 
  3502 ;; Registers used:
  3503 ;;		wreg
  3504 ;; Tracked objects:
  3505 ;;		On entry : 0/0
  3506 ;;		On exit  : 0/0
  3507 ;;		Unchanged: 0/0
  3508 ;; Data sizes:     COMMON   BANK0   BANK1   BANK2   BANK3   BANK4   BANK5   BANK6   BANK7   BANK8   BANK9  BANK10  BANK1
      +1  BANK12
  3509 ;;      Params:         0       0       0       0       0       0       0       0       0       0       0       0       
      +0       0
  3510 ;;      Locals:         1       0       0       0       0       0       0       0       0       0       0       0       
      +0       0
  3511 ;;      Temps:          0       0       0       0       0       0       0       0       0       0       0       0       
      +0       0
  3512 ;;      Totals:         1       0       0       0       0       0       0       0       0       0       0       0       
      +0       0
  3513 ;;Total ram usage:        1 bytes
  3514 ;; Hardware stack levels used:    1
  3515 ;; This function calls:
  3516 ;;		Nothing
  3517 ;; This function is called by:
  3518 ;;		_main
  3519 ;;		_putch
  3520 ;; This function uses a non-reentrant model
  3521 ;;
  3522                           
  3523                           
  3524                           ;psect for function _EUSART_Write
  3525  06AC                     _EUSART_Write:	
  3526                           
  3527                           ;incstack = 0
  3528                           ; Regs used in _EUSART_Write: [wreg]
  3529                           ;EUSART_Write@txData stored from wreg
  3530  06AC  00F0               	movwf	EUSART_Write@txData
  3531  06AD                     l44:	
  3532                           ;eusart.c: 76: {
  3533                           
  3534                           ;eusart.c: 75: while(0 == PIR1bits.TXIF)
  3535                           
  3536  06AD  0020               	movlb	0	; select bank0
  3537  06AE  1E11               	btfss	17,4	;volatile
  3538  06AF  2EAD               	goto	l44
  3539                           
  3540                           ;eusart.c: 77: }
  3541                           ;eusart.c: 79: TX1REG = txData;
  3542  06B0  0870               	movf	EUSART_Write@txData,w
  3543  06B1  0023               	movlb	3	; select bank3
  3544  06B2  009A               	movwf	26	;volatile
  3545  06B3  0008               	return
  3546  06B4                     __end_of_EUSART_Write:	
  3547  007E                     btemp	set	126	;btemp
  3548  007E                     wtemp0	set	126


Data Sizes:
    Strings     0
    Constant    0
    Data        0
    BSS         37
    Persistent  0
    Stack       0

Auto Spaces:
    Space          Size  Autos    Used
    COMMON           14     14      14
    BANK0            80     10      47
    BANK1            80      0       0
    BANK2            80      0       0
    BANK3            80      0       0
    BANK4            80      0       0
    BANK5            80      0       0
    BANK6            80      0       0
    BANK7            80      0       0
    BANK8            80      0       0
    BANK9            80      0       0
    BANK10           80      0       0
    BANK11           80      0       0
    BANK12           48      0       0

Pointer List with Targets:

    None.

Critical Paths under _main in COMMON

    _I2C_Master_Init->___lldiv

Critical Paths under _main in BANK0

    _main->_I2C_Master_Init

Critical Paths under _main in BANK1

    None.

Critical Paths under _main in BANK2

    None.

Critical Paths under _main in BANK3

    None.

Critical Paths under _main in BANK4

    None.

Critical Paths under _main in BANK5

    None.

Critical Paths under _main in BANK6

    None.

Critical Paths under _main in BANK7

    None.

Critical Paths under _main in BANK8

    None.

Critical Paths under _main in BANK9

    None.

Critical Paths under _main in BANK10

    None.

Critical Paths under _main in BANK11

    None.

Critical Paths under _main in BANK12

    None.

Call Graph Tables:

 ---------------------------------------------------------------------------------
 (Depth) Function   	        Calls       Base Space   Used Autos Params    Refs
 ---------------------------------------------------------------------------------
 (0) _main                                                 4     4      0     971
                                              8 BANK0      2     2      0
                       _EUSART_Write
                    _I2C_Master_Init
                  _SYSTEM_Initialize
                            _spiInit
 ---------------------------------------------------------------------------------
 (1) _spiInit                                              4     1      3     324
                                              0 COMMON     4     1      3
 ---------------------------------------------------------------------------------
 (1) _SYSTEM_Initialize                                    0     0      0       0
                  _EUSART_Initialize
              _OSCILLATOR_Initialize
             _PIN_MANAGER_Initialize
                     _PMD_Initialize
                     _WDT_Initialize
 ---------------------------------------------------------------------------------
 (2) _WDT_Initialize                                       0     0      0       0
 ---------------------------------------------------------------------------------
 (2) _PMD_Initialize                                       0     0      0       0
 ---------------------------------------------------------------------------------
 (2) _PIN_MANAGER_Initialize                               0     0      0       0
 ---------------------------------------------------------------------------------
 (2) _OSCILLATOR_Initialize                                0     0      0       0
 ---------------------------------------------------------------------------------
 (2) _EUSART_Initialize                                    0     0      0       0
 ---------------------------------------------------------------------------------
 (1) _I2C_Master_Init                                      8     4      4     632
                                              0 BANK0      8     4      4
                            ___lldiv
 ---------------------------------------------------------------------------------
 (2) ___lldiv                                             14     6      8     546
                                              0 COMMON    14     6      8
 ---------------------------------------------------------------------------------
 (1) _EUSART_Write                                         1     1      0      15
                                              0 COMMON     1     1      0
 ---------------------------------------------------------------------------------
 Estimated maximum stack depth 2
 ---------------------------------------------------------------------------------

 Call Graph Graphs:

 _main (ROOT)
   _EUSART_Write
   _I2C_Master_Init
     ___lldiv
   _SYSTEM_Initialize
     _EUSART_Initialize
     _OSCILLATOR_Initialize
     _PIN_MANAGER_Initialize
     _PMD_Initialize
     _WDT_Initialize
   _spiInit

 Address spaces:
Name               Size   Autos  Total    Cost      Usage
BIGRAM             3F0      0       0       0        0.0%
EEDATA             100      0       0       0        0.0%
NULL                 0      0       0       0        0.0%
CODE                 0      0       0       0        0.0%
BITCOMMON            E      0       0       1        0.0%
BITSFR0              0      0       0       1        0.0%
SFR0                 0      0       0       1        0.0%
COMMON               E      E       E       2      100.0%
BITSFR1              0      0       0       2        0.0%
SFR1                 0      0       0       2        0.0%
BITSFR2              0      0       0       3        0.0%
SFR2                 0      0       0       3        0.0%
STACK                0      0       0       3        0.0%
BITBANK0            50      0       0       4        0.0%
BITSFR3              0      0       0       4        0.0%
SFR3                 0      0       0       4        0.0%
BANK0               50      A      2F       5       58.8%
BITSFR4              0      0       0       5        0.0%
SFR4                 0      0       0       5        0.0%
BITBANK1            50      0       0       6        0.0%
BITSFR5              0      0       0       6        0.0%
SFR5                 0      0       0       6        0.0%
BANK1               50      0       0       7        0.0%
BITSFR6              0      0       0       7        0.0%
SFR6                 0      0       0       7        0.0%
BITBANK2            50      0       0       8        0.0%
BITSFR7              0      0       0       8        0.0%
SFR7                 0      0       0       8        0.0%
BANK2               50      0       0       9        0.0%
BITSFR8              0      0       0       9        0.0%
SFR8                 0      0       0       9        0.0%
BITBANK3            50      0       0      10        0.0%
BITSFR9              0      0       0      10        0.0%
SFR9                 0      0       0      10        0.0%
BANK3               50      0       0      11        0.0%
BITSFR10             0      0       0      11        0.0%
SFR10                0      0       0      11        0.0%
BITBANK4            50      0       0      12        0.0%
BITSFR11             0      0       0      12        0.0%
SFR11                0      0       0      12        0.0%
BANK4               50      0       0      13        0.0%
BITSFR12             0      0       0      13        0.0%
SFR12                0      0       0      13        0.0%
BITBANK5            50      0       0      14        0.0%
BITSFR13             0      0       0      14        0.0%
SFR13                0      0       0      14        0.0%
BANK5               50      0       0      15        0.0%
BITSFR14             0      0       0      15        0.0%
SFR14                0      0       0      15        0.0%
BITBANK6            50      0       0      16        0.0%
BITSFR15             0      0       0      16        0.0%
SFR15                0      0       0      16        0.0%
BANK6               50      0       0      17        0.0%
BITSFR16             0      0       0      17        0.0%
SFR16                0      0       0      17        0.0%
BITBANK7            50      0       0      18        0.0%
BITSFR17             0      0       0      18        0.0%
SFR17                0      0       0      18        0.0%
BANK7               50      0       0      19        0.0%
BITSFR18             0      0       0      19        0.0%
SFR18                0      0       0      19        0.0%
BITSFR19             0      0       0      20        0.0%
SFR19                0      0       0      20        0.0%
ABS                  0      0      3D      20        0.0%
BITBANK8            50      0       0      21        0.0%
BITSFR20             0      0       0      21        0.0%
SFR20                0      0       0      21        0.0%
BANK8               50      0       0      22        0.0%
BITSFR21             0      0       0      22        0.0%
SFR21                0      0       0      22        0.0%
BITBANK9            50      0       0      23        0.0%
BITSFR22             0      0       0      23        0.0%
SFR22                0      0       0      23        0.0%
BANK9               50      0       0      24        0.0%
BITSFR23             0      0       0      24        0.0%
SFR23                0      0       0      24        0.0%
BITBANK10           50      0       0      25        0.0%
BITSFR24             0      0       0      25        0.0%
SFR24                0      0       0      25        0.0%
BANK10              50      0       0      26        0.0%
BITSFR25             0      0       0      26        0.0%
SFR25                0      0       0      26        0.0%
BITBANK11           50      0       0      27        0.0%
BITSFR26             0      0       0      27        0.0%
SFR26                0      0       0      27        0.0%
BANK11              50      0       0      28        0.0%
BITSFR27             0      0       0      28        0.0%
SFR27                0      0       0      28        0.0%
BITBANK12           30      0       0      29        0.0%
BITSFR28             0      0       0      29        0.0%
SFR28                0      0       0      29        0.0%
BANK12              30      0       0      30        0.0%
BITSFR29             0      0       0      30        0.0%
SFR29                0      0       0      30        0.0%
BITSFR30             0      0       0      31        0.0%
SFR30                0      0       0      31        0.0%
DATA                 0      0      3D      31        0.0%
BITSFR31             0      0       0      32        0.0%
SFR31                0      0       0      32        0.0%


Microchip Technology PIC Macro Assembler V1.45 build -152302408 
Symbol Table                                                                                   Sat May  5 12:22:09 2018

                    __CFG_CP$OFF 0000                               l44 06AD                      __CFG_LVP$ON 0000  
                            l298 06F1                     __CFG_CPD$OFF 0000                              u815 0704  
                            u755 07B7                              u775 07C3                              u785 07D7  
                            u795 07E3          __size_of_PMD_Initialize 0008                              wreg 0009  
                           l1212 07B4                             l1222 07E2                             l1214 07C2  
                           l1226 07ED                             l1250 06EB                             l1342 073D  
                           _LATA 010C                             _LATC 010E                             u1627 0745  
                           u1637 0754                             _PMD0 0911                             _PMD1 0912  
                           _PMD2 0913                             _PMD3 0914                             _PMD4 0915  
                           _PMD5 0916                             _WPUA 020C                             _WPUC 020E  
                   __CFG_WRT$OFF 0000                    __CFG_FCMEN$ON 0000                             _main 0725  
                           fsr0h 0005                             indf0 0000                             fsr0l 0004  
                           btemp 007E                    __CFG_BOREN$ON 0000                    __CFG_BORV$LOW 0000  
                           start 0002                    __CFG_CSWEN$ON 0000                    __CFG_MCLRE$ON 0000  
               ?_I2C_Master_Init 0045                    ?_EUSART_Write 0070   __size_of_OSCILLATOR_Initialize 0009  
  __end_of_OSCILLATOR_Initialize 06C5                            ?_main 0070                    __CFG_WDTE$OFF 0000  
                __end_of___lldiv 07F6                   __CFG_DEBUG$OFF 0000                            _OSCEN 091D  
                          _TRISA 008C                            _TRISC 008E                   _WDT_Initialize 06A2  
                __end_of_spiInit 06F6                            status 0003                            wtemp0 007E  
                __initialization 07F6                     __end_of_main 0760                   ??_EUSART_Write 0070  
                         ??_main 004D           __end_of_WDT_Initialize 06A6                           _ANSELA 018C  
                         _ANSELC 018E               __CFG_RSTOSC$HFINT1 0000                           _RC1REG 0199  
                         _RC1STA 019D                           _ODCONA 028C                           _ODCONC 028E  
                         _OSCFRQ 091F                           _TX1REG 019A                           _WDTCON 0097  
                         _TX1STA 019E                           _SSPBUF 0211                   __CFG_PWRTE$OFF 0000  
                 __CFG_STVREN$ON 0000                        ??___lldiv 0078                           _t_fine 0020  
                 _PMD_Initialize 06B4                  ?_WDT_Initialize 0070                        ??_spiInit 0073  
              _SYSTEM_Initialize 06D0          __end_of__initialization 07FD               ?_SYSTEM_Initialize 0070  
                 __pcstackCOMMON 0070              ??_SYSTEM_Initialize 0070           __end_of_PMD_Initialize 06BC  
      __end_of_SYSTEM_Initialize 06DF                       __pbssBANK0 0020             __end_of_EUSART_Write 06B4  
                 _SSP1DATPPSbits 0E21                       __pmaintext 0725                  __CFG_PPS1WAY$ON 0000  
                 _SSP2DATPPSbits 0E1E                   _SSP1CLKPPSbits 0E20                  ?_PMD_Initialize 0070  
                        _SP1BRGH 019C                          _SP1BRGL 019B                          _OSCCON1 0919  
                        _OSCCON3 091B                   _SSP2CLKPPSbits 0E1D                          _OSCTUNE 091E  
                        _SSP1ADD 0212                          _SSP2BUF 0219                          ___lldiv 07A4  
                        __ptext1 06DF                          __ptext2 06D0                          __ptext3 06A2  
                        __ptext4 06B4                          __ptext5 0760                          __ptext6 06BC  
                        __ptext7 06C5                          __ptext8 06F6                          __ptext9 07A4  
          _OSCILLATOR_Initialize 06BC         ??_PIN_MANAGER_Initialize 0070         __size_of_I2C_Master_Init 002F  
                        _spiInit 06DF       __size_of_SYSTEM_Initialize 000F                          clrloop0 06A7  
           end_of_initialization 07FD                _EUSART_Initialize 06C5                  ___lldiv@divisor 0070  
                ___lldiv@counter 007D               ?_EUSART_Initialize 0070                 I2C_Master_Init@c 0045  
            ??_EUSART_Initialize 0070                 ??_WDT_Initialize 0070                        _PORTCbits 000E  
                      _TRISAbits 008C                        _TRISCbits 008E            __size_of_EUSART_Write 0008  
               __CFG_FEXTOSC$OFF 0000                        _RXPPSbits 0E24        __end_of_EUSART_Initialize 06D0  
                   _EUSART_Write 06AC           ?_OSCILLATOR_Initialize 0070              start_initialization 07F6  
__size_of_PIN_MANAGER_Initialize 0044                ??_I2C_Master_Init 0049                 __CFG_LPBOREN$OFF 0000  
               ??_PMD_Initialize 0070                        ___latbits 0002                    __pcstackBANK0 0045  
     __size_of_EUSART_Initialize 000B           _PIN_MANAGER_Initialize 0760                         ?___lldiv 0070  
                       _BAUD1CON 019F                         ?_spiInit 0070             spiInit@sTransmitEdge 0072  
                      clear_ram0 06A6               spiInit@sDataSample 0070                         _PIR1bits 0011  
                       _SSP1CON1 0215                         _SSP1CON2 0216                         _SSP2CON1 021D  
                       _SSP1STAT 0214                         _SSP2STAT 021C          ??_OSCILLATOR_Initialize 0070  
               __size_of___lldiv 0052                         _cal_data 0024                  _I2C_Master_Init 06F6  
                       __ptext10 06AC                 __size_of_spiInit 0017                     _SSP1CON2bits 0216  
                  __size_of_main 003B                       _RA4PPSbits 0E94                       _RC0PPSbits 0EA0  
                     _RA5PPSbits 0E95                       _RC1STAbits 019D                       _RC2PPSbits 0EA2  
                     _RC4PPSbits 0EA4                       _RC5PPSbits 0EA5                     spiInit@sType 0073  
              spiInit@sClockIdle 0071                     _SSP2STATbits 021C          __size_of_WDT_Initialize 0004  
               ___lldiv@dividend 0074          ?_PIN_MANAGER_Initialize 0070                __CFG_CLKOUTEN$OFF 0000  
        __end_of_I2C_Master_Init 0725                 ___lldiv@quotient 0079                       _TX1STAbits 019E  
             EUSART_Write@txData 0070   __end_of_PIN_MANAGER_Initialize 07A4  
