

Microchip Technology PIC LITE Macro Assembler V1.45 build -152302408 
                                                                                               Wed May  2 19:50:28 2018

Microchip Technology Omniscient Code Generator v1.45 (Free mode) build 201711160504
     1                           	processor	16F18325
     2                           	opt	pw 120
     3                           	opt	lm
     4                           	psect	nvBANK1,global,class=BANK1,space=1,delta=1
     5                           	psect	cinit,global,class=CODE,merge=1,delta=2
     6                           	psect	bssBANK1,global,class=BANK1,space=1,delta=1
     7                           	psect	clrtext,global,class=CODE,delta=2
     8                           	psect	cstackCOMMON,global,class=COMMON,space=1,delta=1
     9                           	psect	cstackBANK0,global,class=BANK0,space=1,delta=1
    10                           	psect	maintext,global,class=CODE,merge=1,split=1,delta=2
    11                           	psect	text1,local,class=CODE,merge=1,delta=2
    12                           	psect	text2,local,class=CODE,merge=1,delta=2
    13                           	psect	text3,local,class=CODE,merge=1,delta=2
    14                           	psect	text4,local,class=CODE,merge=1,delta=2
    15                           	psect	text5,local,class=CODE,merge=1,delta=2
    16                           	psect	text6,local,class=CODE,merge=1,delta=2
    17                           	psect	text7,local,class=CODE,merge=1,delta=2
    18                           	psect	text8,local,class=CODE,merge=1,delta=2
    19                           	psect	text9,local,class=CODE,merge=1,delta=2
    20                           	psect	text10,local,class=CODE,merge=1,delta=2
    21                           	psect	text11,local,class=CODE,merge=1,delta=2
    22                           	psect	text12,local,class=CODE,merge=1,delta=2
    23                           	psect	text13,local,class=CODE,merge=1,delta=2,group=2
    24                           	psect	text14,local,class=CODE,merge=1,delta=2,group=2
    25                           	psect	text15,local,class=CODE,merge=1,delta=2
    26                           	psect	text16,local,class=CODE,merge=1,delta=2
    27                           	psect	text17,local,class=CODE,merge=1,delta=2
    28                           	psect	text18,local,class=CODE,merge=1,delta=2
    29                           	psect	text19,local,class=CODE,merge=1,delta=2
    30                           	psect	text20,local,class=CODE,merge=1,delta=2,group=2
    31                           	psect	text21,local,class=CODE,merge=1,delta=2,group=2
    32                           	psect	text22,local,class=CODE,merge=1,inline,delta=2
    33                           	psect	text23,local,class=CODE,merge=1,delta=2
    34                           	psect	text24,local,class=CODE,merge=1,delta=2,group=2
    35                           	psect	text25,local,class=CODE,merge=1,delta=2,group=2
    36                           	psect	text26,local,class=CODE,merge=1,delta=2,group=2
    37                           	psect	text27,local,class=CODE,merge=1,delta=2,group=2
    38                           	psect	text28,local,class=CODE,merge=1,inline,delta=2
    39                           	psect	text29,local,class=CODE,merge=1,delta=2
    40                           	psect	text30,local,class=CODE,merge=1,inline,delta=2
    41                           	psect	text31,local,class=CODE,merge=1,inline,delta=2
    42                           	psect	text32,local,class=CODE,merge=1,delta=2
    43                           	psect	text33,local,class=CODE,merge=1,delta=2
    44                           	psect	text34,local,class=CODE,merge=1,delta=2
    45                           	psect	text35,local,class=CODE,merge=1,delta=2
    46                           	psect	text36,local,class=CODE,merge=1,delta=2
    47                           	dabs	1,0x7E,2
    48  0000                     
    49                           ; Version 1.45
    50                           ; Generated 16/11/2017 GMT
    51                           ; 
    52                           ; Copyright © 2017, Microchip Technology Inc. and its subsidiaries ("Microchip")
    53                           ; All rights reserved.
    54                           ; 
    55                           ; This software is developed by Microchip Technology Inc. and its subsidiaries ("Microch
      +                          ip").
    56                           ; 
    57                           ; Redistribution and use in source and binary forms, with or without modification, are
    58                           ; permitted provided that the following conditions are met:
    59                           ; 
    60                           ;     1. Redistributions of source code must retain the above copyright notice, this lis
      +                          t of
    61                           ;        conditions and the following disclaimer.
    62                           ; 
    63                           ;     2. Redistributions in binary form must reproduce the above copyright notice, this 
      +                          list
    64                           ;        of conditions and the following disclaimer in the documentation and/or other
    65                           ;        materials provided with the distribution.
    66                           ; 
    67                           ;     3. Microchip's name may not be used to endorse or promote products derived from th
      +                          is
    68                           ;        software without specific prior written permission.
    69                           ; 
    70                           ; THIS SOFTWARE IS PROVIDED BY MICROCHIP "AS IS" AND ANY EXPRESS OR IMPLIED WARRANTIES,
    71                           ; INCLUDING, BUT NOT LIMITED TO, THE IMPLIED WARRANTIES OF MERCHANTABILITY AND FITNESS F
      +                          OR
    72                           ; PURPOSE ARE DISCLAIMED.  IN NO EVENT SHALL MICROCHIP BE LIABLE FOR ANY DIRECT, INDIREC
      +                          T,
    73                           ; INCIDENTAL, SPECIAL, EXEMPLARY, OR CONSEQUENTIAL DAMAGES (INCLUDING BUT NOT LIMITED TO
    74                           ; PROCUREMENT OF SUBSTITUTE GOODS OR SERVICES; LOSS OF USE, DATA OR PROFITS; OR BUSINESS
    75                           ; INTERRUPTION) HOWSOEVER CAUSED AND ON ANY THEORY OF LIABILITY, WHETHER IN CONTRACT, ST
      +                          RICT
    76                           ; LIABILITY, OR TORT (INCLUDING NEGLIGENCE OR OTHERWISE) ARISING IN ANY WAY OUT OF THE U
      +                          SE OF
    77                           ; THIS SOFTWARE, EVEN IF ADVISED OF THE POSSIBILITY OF SUCH DAMAGE.
    78                           ; 
    79                           ; 
    80                           ; Code-generator required, PIC16F18325 Definitions
    81                           ; 
    82                           ; SFR Addresses
    83  0000                     	;# 
    84  0001                     	;# 
    85  0002                     	;# 
    86  0003                     	;# 
    87  0004                     	;# 
    88  0005                     	;# 
    89  0006                     	;# 
    90  0007                     	;# 
    91  0008                     	;# 
    92  0009                     	;# 
    93  000A                     	;# 
    94  000B                     	;# 
    95  000C                     	;# 
    96  000E                     	;# 
    97  0010                     	;# 
    98  0011                     	;# 
    99  0012                     	;# 
   100  0013                     	;# 
   101  0014                     	;# 
   102  0015                     	;# 
   103  0015                     	;# 
   104  0016                     	;# 
   105  0016                     	;# 
   106  0017                     	;# 
   107  0018                     	;# 
   108  0019                     	;# 
   109  0019                     	;# 
   110  001A                     	;# 
   111  001B                     	;# 
   112  001C                     	;# 
   113  001D                     	;# 
   114  001E                     	;# 
   115  001F                     	;# 
   116  008C                     	;# 
   117  008E                     	;# 
   118  0090                     	;# 
   119  0091                     	;# 
   120  0092                     	;# 
   121  0093                     	;# 
   122  0094                     	;# 
   123  0097                     	;# 
   124  009B                     	;# 
   125  009B                     	;# 
   126  009C                     	;# 
   127  009D                     	;# 
   128  009E                     	;# 
   129  009F                     	;# 
   130  010C                     	;# 
   131  010E                     	;# 
   132  0111                     	;# 
   133  0112                     	;# 
   134  0113                     	;# 
   135  0114                     	;# 
   136  0115                     	;# 
   137  0116                     	;# 
   138  0117                     	;# 
   139  0118                     	;# 
   140  0119                     	;# 
   141  018C                     	;# 
   142  018E                     	;# 
   143  0197                     	;# 
   144  0199                     	;# 
   145  0199                     	;# 
   146  0199                     	;# 
   147  019A                     	;# 
   148  019A                     	;# 
   149  019A                     	;# 
   150  019B                     	;# 
   151  019B                     	;# 
   152  019B                     	;# 
   153  019B                     	;# 
   154  019B                     	;# 
   155  019C                     	;# 
   156  019C                     	;# 
   157  019C                     	;# 
   158  019D                     	;# 
   159  019D                     	;# 
   160  019D                     	;# 
   161  019E                     	;# 
   162  019E                     	;# 
   163  019E                     	;# 
   164  019F                     	;# 
   165  019F                     	;# 
   166  019F                     	;# 
   167  019F                     	;# 
   168  019F                     	;# 
   169  020C                     	;# 
   170  020E                     	;# 
   171  0211                     	;# 
   172  0211                     	;# 
   173  0212                     	;# 
   174  0212                     	;# 
   175  0213                     	;# 
   176  0213                     	;# 
   177  0214                     	;# 
   178  0214                     	;# 
   179  0215                     	;# 
   180  0215                     	;# 
   181  0215                     	;# 
   182  0215                     	;# 
   183  0216                     	;# 
   184  0216                     	;# 
   185  0217                     	;# 
   186  0217                     	;# 
   187  0219                     	;# 
   188  021A                     	;# 
   189  021B                     	;# 
   190  021C                     	;# 
   191  021D                     	;# 
   192  021D                     	;# 
   193  021E                     	;# 
   194  021F                     	;# 
   195  028C                     	;# 
   196  028E                     	;# 
   197  0291                     	;# 
   198  0291                     	;# 
   199  0292                     	;# 
   200  0293                     	;# 
   201  0294                     	;# 
   202  0295                     	;# 
   203  0295                     	;# 
   204  0296                     	;# 
   205  0297                     	;# 
   206  0298                     	;# 
   207  029F                     	;# 
   208  030C                     	;# 
   209  030E                     	;# 
   210  0311                     	;# 
   211  0311                     	;# 
   212  0312                     	;# 
   213  0313                     	;# 
   214  0314                     	;# 
   215  0315                     	;# 
   216  0315                     	;# 
   217  0316                     	;# 
   218  0317                     	;# 
   219  0318                     	;# 
   220  038C                     	;# 
   221  038E                     	;# 
   222  0391                     	;# 
   223  0392                     	;# 
   224  0393                     	;# 
   225  0397                     	;# 
   226  0398                     	;# 
   227  0399                     	;# 
   228  039A                     	;# 
   229  039C                     	;# 
   230  039D                     	;# 
   231  039E                     	;# 
   232  039F                     	;# 
   233  0411                     	;# 
   234  0411                     	;# 
   235  0412                     	;# 
   236  0413                     	;# 
   237  0414                     	;# 
   238  0415                     	;# 
   239  0416                     	;# 
   240  0417                     	;# 
   241  0418                     	;# 
   242  0418                     	;# 
   243  0419                     	;# 
   244  041A                     	;# 
   245  041B                     	;# 
   246  041C                     	;# 
   247  041D                     	;# 
   248  041E                     	;# 
   249  041F                     	;# 
   250  0498                     	;# 
   251  0498                     	;# 
   252  0499                     	;# 
   253  049A                     	;# 
   254  049B                     	;# 
   255  049B                     	;# 
   256  049C                     	;# 
   257  049D                     	;# 
   258  049E                     	;# 
   259  049F                     	;# 
   260  0617                     	;# 
   261  0618                     	;# 
   262  0619                     	;# 
   263  0619                     	;# 
   264  061A                     	;# 
   265  061B                     	;# 
   266  061C                     	;# 
   267  061C                     	;# 
   268  061F                     	;# 
   269  0691                     	;# 
   270  0692                     	;# 
   271  0693                     	;# 
   272  0694                     	;# 
   273  0695                     	;# 
   274  0696                     	;# 
   275  0697                     	;# 
   276  0698                     	;# 
   277  0699                     	;# 
   278  0711                     	;# 
   279  0712                     	;# 
   280  0713                     	;# 
   281  0714                     	;# 
   282  0715                     	;# 
   283  0716                     	;# 
   284  0717                     	;# 
   285  0718                     	;# 
   286  0719                     	;# 
   287  0891                     	;# 
   288  0891                     	;# 
   289  0891                     	;# 
   290  0891                     	;# 
   291  0891                     	;# 
   292  0891                     	;# 
   293  0892                     	;# 
   294  0892                     	;# 
   295  0892                     	;# 
   296  0893                     	;# 
   297  0893                     	;# 
   298  0893                     	;# 
   299  0893                     	;# 
   300  0893                     	;# 
   301  0893                     	;# 
   302  0894                     	;# 
   303  0894                     	;# 
   304  0894                     	;# 
   305  0895                     	;# 
   306  0895                     	;# 
   307  0895                     	;# 
   308  0896                     	;# 
   309  0896                     	;# 
   310  0896                     	;# 
   311  089B                     	;# 
   312  0911                     	;# 
   313  0912                     	;# 
   314  0913                     	;# 
   315  0914                     	;# 
   316  0915                     	;# 
   317  0916                     	;# 
   318  0918                     	;# 
   319  0919                     	;# 
   320  091A                     	;# 
   321  091B                     	;# 
   322  091C                     	;# 
   323  091D                     	;# 
   324  091E                     	;# 
   325  091F                     	;# 
   326  0E0F                     	;# 
   327  0E10                     	;# 
   328  0E11                     	;# 
   329  0E12                     	;# 
   330  0E13                     	;# 
   331  0E14                     	;# 
   332  0E15                     	;# 
   333  0E16                     	;# 
   334  0E17                     	;# 
   335  0E18                     	;# 
   336  0E19                     	;# 
   337  0E1A                     	;# 
   338  0E1B                     	;# 
   339  0E1C                     	;# 
   340  0E1D                     	;# 
   341  0E1E                     	;# 
   342  0E1F                     	;# 
   343  0E20                     	;# 
   344  0E21                     	;# 
   345  0E22                     	;# 
   346  0E24                     	;# 
   347  0E25                     	;# 
   348  0E28                     	;# 
   349  0E29                     	;# 
   350  0E2A                     	;# 
   351  0E2B                     	;# 
   352  0E2C                     	;# 
   353  0E2D                     	;# 
   354  0E2E                     	;# 
   355  0E2F                     	;# 
   356  0E90                     	;# 
   357  0E91                     	;# 
   358  0E92                     	;# 
   359  0E94                     	;# 
   360  0E95                     	;# 
   361  0EA0                     	;# 
   362  0EA1                     	;# 
   363  0EA2                     	;# 
   364  0EA3                     	;# 
   365  0EA4                     	;# 
   366  0EA5                     	;# 
   367  0F0F                     	;# 
   368  0F10                     	;# 
   369  0F11                     	;# 
   370  0F12                     	;# 
   371  0F13                     	;# 
   372  0F14                     	;# 
   373  0F15                     	;# 
   374  0F16                     	;# 
   375  0F17                     	;# 
   376  0F18                     	;# 
   377  0F19                     	;# 
   378  0F1A                     	;# 
   379  0F1B                     	;# 
   380  0F1C                     	;# 
   381  0F1D                     	;# 
   382  0F1E                     	;# 
   383  0F1F                     	;# 
   384  0F20                     	;# 
   385  0F21                     	;# 
   386  0F22                     	;# 
   387  0F23                     	;# 
   388  0F24                     	;# 
   389  0F25                     	;# 
   390  0F26                     	;# 
   391  0F27                     	;# 
   392  0F28                     	;# 
   393  0F29                     	;# 
   394  0F2A                     	;# 
   395  0F2B                     	;# 
   396  0F2C                     	;# 
   397  0F2D                     	;# 
   398  0F2E                     	;# 
   399  0F2F                     	;# 
   400  0F30                     	;# 
   401  0F31                     	;# 
   402  0F32                     	;# 
   403  0F33                     	;# 
   404  0F34                     	;# 
   405  0F35                     	;# 
   406  0F36                     	;# 
   407  0F37                     	;# 
   408  0FE4                     	;# 
   409  0FE5                     	;# 
   410  0FE6                     	;# 
   411  0FE7                     	;# 
   412  0FE8                     	;# 
   413  0FE9                     	;# 
   414  0FEA                     	;# 
   415  0FEB                     	;# 
   416  0FED                     	;# 
   417  0FEE                     	;# 
   418  0FEF                     	;# 
   419  0000                     	;# 
   420  0001                     	;# 
   421  0002                     	;# 
   422  0003                     	;# 
   423  0004                     	;# 
   424  0005                     	;# 
   425  0006                     	;# 
   426  0007                     	;# 
   427  0008                     	;# 
   428  0009                     	;# 
   429  000A                     	;# 
   430  000B                     	;# 
   431  000C                     	;# 
   432  000E                     	;# 
   433  0010                     	;# 
   434  0011                     	;# 
   435  0012                     	;# 
   436  0013                     	;# 
   437  0014                     	;# 
   438  0015                     	;# 
   439  0015                     	;# 
   440  0016                     	;# 
   441  0016                     	;# 
   442  0017                     	;# 
   443  0018                     	;# 
   444  0019                     	;# 
   445  0019                     	;# 
   446  001A                     	;# 
   447  001B                     	;# 
   448  001C                     	;# 
   449  001D                     	;# 
   450  001E                     	;# 
   451  001F                     	;# 
   452  008C                     	;# 
   453  008E                     	;# 
   454  0090                     	;# 
   455  0091                     	;# 
   456  0092                     	;# 
   457  0093                     	;# 
   458  0094                     	;# 
   459  0097                     	;# 
   460  009B                     	;# 
   461  009B                     	;# 
   462  009C                     	;# 
   463  009D                     	;# 
   464  009E                     	;# 
   465  009F                     	;# 
   466  010C                     	;# 
   467  010E                     	;# 
   468  0111                     	;# 
   469  0112                     	;# 
   470  0113                     	;# 
   471  0114                     	;# 
   472  0115                     	;# 
   473  0116                     	;# 
   474  0117                     	;# 
   475  0118                     	;# 
   476  0119                     	;# 
   477  018C                     	;# 
   478  018E                     	;# 
   479  0197                     	;# 
   480  0199                     	;# 
   481  0199                     	;# 
   482  0199                     	;# 
   483  019A                     	;# 
   484  019A                     	;# 
   485  019A                     	;# 
   486  019B                     	;# 
   487  019B                     	;# 
   488  019B                     	;# 
   489  019B                     	;# 
   490  019B                     	;# 
   491  019C                     	;# 
   492  019C                     	;# 
   493  019C                     	;# 
   494  019D                     	;# 
   495  019D                     	;# 
   496  019D                     	;# 
   497  019E                     	;# 
   498  019E                     	;# 
   499  019E                     	;# 
   500  019F                     	;# 
   501  019F                     	;# 
   502  019F                     	;# 
   503  019F                     	;# 
   504  019F                     	;# 
   505  020C                     	;# 
   506  020E                     	;# 
   507  0211                     	;# 
   508  0211                     	;# 
   509  0212                     	;# 
   510  0212                     	;# 
   511  0213                     	;# 
   512  0213                     	;# 
   513  0214                     	;# 
   514  0214                     	;# 
   515  0215                     	;# 
   516  0215                     	;# 
   517  0215                     	;# 
   518  0215                     	;# 
   519  0216                     	;# 
   520  0216                     	;# 
   521  0217                     	;# 
   522  0217                     	;# 
   523  0219                     	;# 
   524  021A                     	;# 
   525  021B                     	;# 
   526  021C                     	;# 
   527  021D                     	;# 
   528  021D                     	;# 
   529  021E                     	;# 
   530  021F                     	;# 
   531  028C                     	;# 
   532  028E                     	;# 
   533  0291                     	;# 
   534  0291                     	;# 
   535  0292                     	;# 
   536  0293                     	;# 
   537  0294                     	;# 
   538  0295                     	;# 
   539  0295                     	;# 
   540  0296                     	;# 
   541  0297                     	;# 
   542  0298                     	;# 
   543  029F                     	;# 
   544  030C                     	;# 
   545  030E                     	;# 
   546  0311                     	;# 
   547  0311                     	;# 
   548  0312                     	;# 
   549  0313                     	;# 
   550  0314                     	;# 
   551  0315                     	;# 
   552  0315                     	;# 
   553  0316                     	;# 
   554  0317                     	;# 
   555  0318                     	;# 
   556  038C                     	;# 
   557  038E                     	;# 
   558  0391                     	;# 
   559  0392                     	;# 
   560  0393                     	;# 
   561  0397                     	;# 
   562  0398                     	;# 
   563  0399                     	;# 
   564  039A                     	;# 
   565  039C                     	;# 
   566  039D                     	;# 
   567  039E                     	;# 
   568  039F                     	;# 
   569  0411                     	;# 
   570  0411                     	;# 
   571  0412                     	;# 
   572  0413                     	;# 
   573  0414                     	;# 
   574  0415                     	;# 
   575  0416                     	;# 
   576  0417                     	;# 
   577  0418                     	;# 
   578  0418                     	;# 
   579  0419                     	;# 
   580  041A                     	;# 
   581  041B                     	;# 
   582  041C                     	;# 
   583  041D                     	;# 
   584  041E                     	;# 
   585  041F                     	;# 
   586  0498                     	;# 
   587  0498                     	;# 
   588  0499                     	;# 
   589  049A                     	;# 
   590  049B                     	;# 
   591  049B                     	;# 
   592  049C                     	;# 
   593  049D                     	;# 
   594  049E                     	;# 
   595  049F                     	;# 
   596  0617                     	;# 
   597  0618                     	;# 
   598  0619                     	;# 
   599  0619                     	;# 
   600  061A                     	;# 
   601  061B                     	;# 
   602  061C                     	;# 
   603  061C                     	;# 
   604  061F                     	;# 
   605  0691                     	;# 
   606  0692                     	;# 
   607  0693                     	;# 
   608  0694                     	;# 
   609  0695                     	;# 
   610  0696                     	;# 
   611  0697                     	;# 
   612  0698                     	;# 
   613  0699                     	;# 
   614  0711                     	;# 
   615  0712                     	;# 
   616  0713                     	;# 
   617  0714                     	;# 
   618  0715                     	;# 
   619  0716                     	;# 
   620  0717                     	;# 
   621  0718                     	;# 
   622  0719                     	;# 
   623  0891                     	;# 
   624  0891                     	;# 
   625  0891                     	;# 
   626  0891                     	;# 
   627  0891                     	;# 
   628  0891                     	;# 
   629  0892                     	;# 
   630  0892                     	;# 
   631  0892                     	;# 
   632  0893                     	;# 
   633  0893                     	;# 
   634  0893                     	;# 
   635  0893                     	;# 
   636  0893                     	;# 
   637  0893                     	;# 
   638  0894                     	;# 
   639  0894                     	;# 
   640  0894                     	;# 
   641  0895                     	;# 
   642  0895                     	;# 
   643  0895                     	;# 
   644  0896                     	;# 
   645  0896                     	;# 
   646  0896                     	;# 
   647  089B                     	;# 
   648  0911                     	;# 
   649  0912                     	;# 
   650  0913                     	;# 
   651  0914                     	;# 
   652  0915                     	;# 
   653  0916                     	;# 
   654  0918                     	;# 
   655  0919                     	;# 
   656  091A                     	;# 
   657  091B                     	;# 
   658  091C                     	;# 
   659  091D                     	;# 
   660  091E                     	;# 
   661  091F                     	;# 
   662  0E0F                     	;# 
   663  0E10                     	;# 
   664  0E11                     	;# 
   665  0E12                     	;# 
   666  0E13                     	;# 
   667  0E14                     	;# 
   668  0E15                     	;# 
   669  0E16                     	;# 
   670  0E17                     	;# 
   671  0E18                     	;# 
   672  0E19                     	;# 
   673  0E1A                     	;# 
   674  0E1B                     	;# 
   675  0E1C                     	;# 
   676  0E1D                     	;# 
   677  0E1E                     	;# 
   678  0E1F                     	;# 
   679  0E20                     	;# 
   680  0E21                     	;# 
   681  0E22                     	;# 
   682  0E24                     	;# 
   683  0E25                     	;# 
   684  0E28                     	;# 
   685  0E29                     	;# 
   686  0E2A                     	;# 
   687  0E2B                     	;# 
   688  0E2C                     	;# 
   689  0E2D                     	;# 
   690  0E2E                     	;# 
   691  0E2F                     	;# 
   692  0E90                     	;# 
   693  0E91                     	;# 
   694  0E92                     	;# 
   695  0E94                     	;# 
   696  0E95                     	;# 
   697  0EA0                     	;# 
   698  0EA1                     	;# 
   699  0EA2                     	;# 
   700  0EA3                     	;# 
   701  0EA4                     	;# 
   702  0EA5                     	;# 
   703  0F0F                     	;# 
   704  0F10                     	;# 
   705  0F11                     	;# 
   706  0F12                     	;# 
   707  0F13                     	;# 
   708  0F14                     	;# 
   709  0F15                     	;# 
   710  0F16                     	;# 
   711  0F17                     	;# 
   712  0F18                     	;# 
   713  0F19                     	;# 
   714  0F1A                     	;# 
   715  0F1B                     	;# 
   716  0F1C                     	;# 
   717  0F1D                     	;# 
   718  0F1E                     	;# 
   719  0F1F                     	;# 
   720  0F20                     	;# 
   721  0F21                     	;# 
   722  0F22                     	;# 
   723  0F23                     	;# 
   724  0F24                     	;# 
   725  0F25                     	;# 
   726  0F26                     	;# 
   727  0F27                     	;# 
   728  0F28                     	;# 
   729  0F29                     	;# 
   730  0F2A                     	;# 
   731  0F2B                     	;# 
   732  0F2C                     	;# 
   733  0F2D                     	;# 
   734  0F2E                     	;# 
   735  0F2F                     	;# 
   736  0F30                     	;# 
   737  0F31                     	;# 
   738  0F32                     	;# 
   739  0F33                     	;# 
   740  0F34                     	;# 
   741  0F35                     	;# 
   742  0F36                     	;# 
   743  0F37                     	;# 
   744  0FE4                     	;# 
   745  0FE5                     	;# 
   746  0FE6                     	;# 
   747  0FE7                     	;# 
   748  0FE8                     	;# 
   749  0FE9                     	;# 
   750  0FEA                     	;# 
   751  0FEB                     	;# 
   752  0FED                     	;# 
   753  0FEE                     	;# 
   754  0FEF                     	;# 
   755  0000                     	;# 
   756  0001                     	;# 
   757  0002                     	;# 
   758  0003                     	;# 
   759  0004                     	;# 
   760  0005                     	;# 
   761  0006                     	;# 
   762  0007                     	;# 
   763  0008                     	;# 
   764  0009                     	;# 
   765  000A                     	;# 
   766  000B                     	;# 
   767  000C                     	;# 
   768  000E                     	;# 
   769  0010                     	;# 
   770  0011                     	;# 
   771  0012                     	;# 
   772  0013                     	;# 
   773  0014                     	;# 
   774  0015                     	;# 
   775  0015                     	;# 
   776  0016                     	;# 
   777  0016                     	;# 
   778  0017                     	;# 
   779  0018                     	;# 
   780  0019                     	;# 
   781  0019                     	;# 
   782  001A                     	;# 
   783  001B                     	;# 
   784  001C                     	;# 
   785  001D                     	;# 
   786  001E                     	;# 
   787  001F                     	;# 
   788  008C                     	;# 
   789  008E                     	;# 
   790  0090                     	;# 
   791  0091                     	;# 
   792  0092                     	;# 
   793  0093                     	;# 
   794  0094                     	;# 
   795  0097                     	;# 
   796  009B                     	;# 
   797  009B                     	;# 
   798  009C                     	;# 
   799  009D                     	;# 
   800  009E                     	;# 
   801  009F                     	;# 
   802  010C                     	;# 
   803  010E                     	;# 
   804  0111                     	;# 
   805  0112                     	;# 
   806  0113                     	;# 
   807  0114                     	;# 
   808  0115                     	;# 
   809  0116                     	;# 
   810  0117                     	;# 
   811  0118                     	;# 
   812  0119                     	;# 
   813  018C                     	;# 
   814  018E                     	;# 
   815  0197                     	;# 
   816  0199                     	;# 
   817  0199                     	;# 
   818  0199                     	;# 
   819  019A                     	;# 
   820  019A                     	;# 
   821  019A                     	;# 
   822  019B                     	;# 
   823  019B                     	;# 
   824  019B                     	;# 
   825  019B                     	;# 
   826  019B                     	;# 
   827  019C                     	;# 
   828  019C                     	;# 
   829  019C                     	;# 
   830  019D                     	;# 
   831  019D                     	;# 
   832  019D                     	;# 
   833  019E                     	;# 
   834  019E                     	;# 
   835  019E                     	;# 
   836  019F                     	;# 
   837  019F                     	;# 
   838  019F                     	;# 
   839  019F                     	;# 
   840  019F                     	;# 
   841  020C                     	;# 
   842  020E                     	;# 
   843  0211                     	;# 
   844  0211                     	;# 
   845  0212                     	;# 
   846  0212                     	;# 
   847  0213                     	;# 
   848  0213                     	;# 
   849  0214                     	;# 
   850  0214                     	;# 
   851  0215                     	;# 
   852  0215                     	;# 
   853  0215                     	;# 
   854  0215                     	;# 
   855  0216                     	;# 
   856  0216                     	;# 
   857  0217                     	;# 
   858  0217                     	;# 
   859  0219                     	;# 
   860  021A                     	;# 
   861  021B                     	;# 
   862  021C                     	;# 
   863  021D                     	;# 
   864  021D                     	;# 
   865  021E                     	;# 
   866  021F                     	;# 
   867  028C                     	;# 
   868  028E                     	;# 
   869  0291                     	;# 
   870  0291                     	;# 
   871  0292                     	;# 
   872  0293                     	;# 
   873  0294                     	;# 
   874  0295                     	;# 
   875  0295                     	;# 
   876  0296                     	;# 
   877  0297                     	;# 
   878  0298                     	;# 
   879  029F                     	;# 
   880  030C                     	;# 
   881  030E                     	;# 
   882  0311                     	;# 
   883  0311                     	;# 
   884  0312                     	;# 
   885  0313                     	;# 
   886  0314                     	;# 
   887  0315                     	;# 
   888  0315                     	;# 
   889  0316                     	;# 
   890  0317                     	;# 
   891  0318                     	;# 
   892  038C                     	;# 
   893  038E                     	;# 
   894  0391                     	;# 
   895  0392                     	;# 
   896  0393                     	;# 
   897  0397                     	;# 
   898  0398                     	;# 
   899  0399                     	;# 
   900  039A                     	;# 
   901  039C                     	;# 
   902  039D                     	;# 
   903  039E                     	;# 
   904  039F                     	;# 
   905  0411                     	;# 
   906  0411                     	;# 
   907  0412                     	;# 
   908  0413                     	;# 
   909  0414                     	;# 
   910  0415                     	;# 
   911  0416                     	;# 
   912  0417                     	;# 
   913  0418                     	;# 
   914  0418                     	;# 
   915  0419                     	;# 
   916  041A                     	;# 
   917  041B                     	;# 
   918  041C                     	;# 
   919  041D                     	;# 
   920  041E                     	;# 
   921  041F                     	;# 
   922  0498                     	;# 
   923  0498                     	;# 
   924  0499                     	;# 
   925  049A                     	;# 
   926  049B                     	;# 
   927  049B                     	;# 
   928  049C                     	;# 
   929  049D                     	;# 
   930  049E                     	;# 
   931  049F                     	;# 
   932  0617                     	;# 
   933  0618                     	;# 
   934  0619                     	;# 
   935  0619                     	;# 
   936  061A                     	;# 
   937  061B                     	;# 
   938  061C                     	;# 
   939  061C                     	;# 
   940  061F                     	;# 
   941  0691                     	;# 
   942  0692                     	;# 
   943  0693                     	;# 
   944  0694                     	;# 
   945  0695                     	;# 
   946  0696                     	;# 
   947  0697                     	;# 
   948  0698                     	;# 
   949  0699                     	;# 
   950  0711                     	;# 
   951  0712                     	;# 
   952  0713                     	;# 
   953  0714                     	;# 
   954  0715                     	;# 
   955  0716                     	;# 
   956  0717                     	;# 
   957  0718                     	;# 
   958  0719                     	;# 
   959  0891                     	;# 
   960  0891                     	;# 
   961  0891                     	;# 
   962  0891                     	;# 
   963  0891                     	;# 
   964  0891                     	;# 
   965  0892                     	;# 
   966  0892                     	;# 
   967  0892                     	;# 
   968  0893                     	;# 
   969  0893                     	;# 
   970  0893                     	;# 
   971  0893                     	;# 
   972  0893                     	;# 
   973  0893                     	;# 
   974  0894                     	;# 
   975  0894                     	;# 
   976  0894                     	;# 
   977  0895                     	;# 
   978  0895                     	;# 
   979  0895                     	;# 
   980  0896                     	;# 
   981  0896                     	;# 
   982  0896                     	;# 
   983  089B                     	;# 
   984  0911                     	;# 
   985  0912                     	;# 
   986  0913                     	;# 
   987  0914                     	;# 
   988  0915                     	;# 
   989  0916                     	;# 
   990  0918                     	;# 
   991  0919                     	;# 
   992  091A                     	;# 
   993  091B                     	;# 
   994  091C                     	;# 
   995  091D                     	;# 
   996  091E                     	;# 
   997  091F                     	;# 
   998  0E0F                     	;# 
   999  0E10                     	;# 
  1000  0E11                     	;# 
  1001  0E12                     	;# 
  1002  0E13                     	;# 
  1003  0E14                     	;# 
  1004  0E15                     	;# 
  1005  0E16                     	;# 
  1006  0E17                     	;# 
  1007  0E18                     	;# 
  1008  0E19                     	;# 
  1009  0E1A                     	;# 
  1010  0E1B                     	;# 
  1011  0E1C                     	;# 
  1012  0E1D                     	;# 
  1013  0E1E                     	;# 
  1014  0E1F                     	;# 
  1015  0E20                     	;# 
  1016  0E21                     	;# 
  1017  0E22                     	;# 
  1018  0E24                     	;# 
  1019  0E25                     	;# 
  1020  0E28                     	;# 
  1021  0E29                     	;# 
  1022  0E2A                     	;# 
  1023  0E2B                     	;# 
  1024  0E2C                     	;# 
  1025  0E2D                     	;# 
  1026  0E2E                     	;# 
  1027  0E2F                     	;# 
  1028  0E90                     	;# 
  1029  0E91                     	;# 
  1030  0E92                     	;# 
  1031  0E94                     	;# 
  1032  0E95                     	;# 
  1033  0EA0                     	;# 
  1034  0EA1                     	;# 
  1035  0EA2                     	;# 
  1036  0EA3                     	;# 
  1037  0EA4                     	;# 
  1038  0EA5                     	;# 
  1039  0F0F                     	;# 
  1040  0F10                     	;# 
  1041  0F11                     	;# 
  1042  0F12                     	;# 
  1043  0F13                     	;# 
  1044  0F14                     	;# 
  1045  0F15                     	;# 
  1046  0F16                     	;# 
  1047  0F17                     	;# 
  1048  0F18                     	;# 
  1049  0F19                     	;# 
  1050  0F1A                     	;# 
  1051  0F1B                     	;# 
  1052  0F1C                     	;# 
  1053  0F1D                     	;# 
  1054  0F1E                     	;# 
  1055  0F1F                     	;# 
  1056  0F20                     	;# 
  1057  0F21                     	;# 
  1058  0F22                     	;# 
  1059  0F23                     	;# 
  1060  0F24                     	;# 
  1061  0F25                     	;# 
  1062  0F26                     	;# 
  1063  0F27                     	;# 
  1064  0F28                     	;# 
  1065  0F29                     	;# 
  1066  0F2A                     	;# 
  1067  0F2B                     	;# 
  1068  0F2C                     	;# 
  1069  0F2D                     	;# 
  1070  0F2E                     	;# 
  1071  0F2F                     	;# 
  1072  0F30                     	;# 
  1073  0F31                     	;# 
  1074  0F32                     	;# 
  1075  0F33                     	;# 
  1076  0F34                     	;# 
  1077  0F35                     	;# 
  1078  0F36                     	;# 
  1079  0F37                     	;# 
  1080  0FE4                     	;# 
  1081  0FE5                     	;# 
  1082  0FE6                     	;# 
  1083  0FE7                     	;# 
  1084  0FE8                     	;# 
  1085  0FE9                     	;# 
  1086  0FEA                     	;# 
  1087  0FEB                     	;# 
  1088  0FED                     	;# 
  1089  0FEE                     	;# 
  1090  0FEF                     	;# 
  1091  0000                     	;# 
  1092  0001                     	;# 
  1093  0002                     	;# 
  1094  0003                     	;# 
  1095  0004                     	;# 
  1096  0005                     	;# 
  1097  0006                     	;# 
  1098  0007                     	;# 
  1099  0008                     	;# 
  1100  0009                     	;# 
  1101  000A                     	;# 
  1102  000B                     	;# 
  1103  000C                     	;# 
  1104  000E                     	;# 
  1105  0010                     	;# 
  1106  0011                     	;# 
  1107  0012                     	;# 
  1108  0013                     	;# 
  1109  0014                     	;# 
  1110  0015                     	;# 
  1111  0015                     	;# 
  1112  0016                     	;# 
  1113  0016                     	;# 
  1114  0017                     	;# 
  1115  0018                     	;# 
  1116  0019                     	;# 
  1117  0019                     	;# 
  1118  001A                     	;# 
  1119  001B                     	;# 
  1120  001C                     	;# 
  1121  001D                     	;# 
  1122  001E                     	;# 
  1123  001F                     	;# 
  1124  008C                     	;# 
  1125  008E                     	;# 
  1126  0090                     	;# 
  1127  0091                     	;# 
  1128  0092                     	;# 
  1129  0093                     	;# 
  1130  0094                     	;# 
  1131  0097                     	;# 
  1132  009B                     	;# 
  1133  009B                     	;# 
  1134  009C                     	;# 
  1135  009D                     	;# 
  1136  009E                     	;# 
  1137  009F                     	;# 
  1138  010C                     	;# 
  1139  010E                     	;# 
  1140  0111                     	;# 
  1141  0112                     	;# 
  1142  0113                     	;# 
  1143  0114                     	;# 
  1144  0115                     	;# 
  1145  0116                     	;# 
  1146  0117                     	;# 
  1147  0118                     	;# 
  1148  0119                     	;# 
  1149  018C                     	;# 
  1150  018E                     	;# 
  1151  0197                     	;# 
  1152  0199                     	;# 
  1153  0199                     	;# 
  1154  0199                     	;# 
  1155  019A                     	;# 
  1156  019A                     	;# 
  1157  019A                     	;# 
  1158  019B                     	;# 
  1159  019B                     	;# 
  1160  019B                     	;# 
  1161  019B                     	;# 
  1162  019B                     	;# 
  1163  019C                     	;# 
  1164  019C                     	;# 
  1165  019C                     	;# 
  1166  019D                     	;# 
  1167  019D                     	;# 
  1168  019D                     	;# 
  1169  019E                     	;# 
  1170  019E                     	;# 
  1171  019E                     	;# 
  1172  019F                     	;# 
  1173  019F                     	;# 
  1174  019F                     	;# 
  1175  019F                     	;# 
  1176  019F                     	;# 
  1177  020C                     	;# 
  1178  020E                     	;# 
  1179  0211                     	;# 
  1180  0211                     	;# 
  1181  0212                     	;# 
  1182  0212                     	;# 
  1183  0213                     	;# 
  1184  0213                     	;# 
  1185  0214                     	;# 
  1186  0214                     	;# 
  1187  0215                     	;# 
  1188  0215                     	;# 
  1189  0215                     	;# 
  1190  0215                     	;# 
  1191  0216                     	;# 
  1192  0216                     	;# 
  1193  0217                     	;# 
  1194  0217                     	;# 
  1195  0219                     	;# 
  1196  021A                     	;# 
  1197  021B                     	;# 
  1198  021C                     	;# 
  1199  021D                     	;# 
  1200  021D                     	;# 
  1201  021E                     	;# 
  1202  021F                     	;# 
  1203  028C                     	;# 
  1204  028E                     	;# 
  1205  0291                     	;# 
  1206  0291                     	;# 
  1207  0292                     	;# 
  1208  0293                     	;# 
  1209  0294                     	;# 
  1210  0295                     	;# 
  1211  0295                     	;# 
  1212  0296                     	;# 
  1213  0297                     	;# 
  1214  0298                     	;# 
  1215  029F                     	;# 
  1216  030C                     	;# 
  1217  030E                     	;# 
  1218  0311                     	;# 
  1219  0311                     	;# 
  1220  0312                     	;# 
  1221  0313                     	;# 
  1222  0314                     	;# 
  1223  0315                     	;# 
  1224  0315                     	;# 
  1225  0316                     	;# 
  1226  0317                     	;# 
  1227  0318                     	;# 
  1228  038C                     	;# 
  1229  038E                     	;# 
  1230  0391                     	;# 
  1231  0392                     	;# 
  1232  0393                     	;# 
  1233  0397                     	;# 
  1234  0398                     	;# 
  1235  0399                     	;# 
  1236  039A                     	;# 
  1237  039C                     	;# 
  1238  039D                     	;# 
  1239  039E                     	;# 
  1240  039F                     	;# 
  1241  0411                     	;# 
  1242  0411                     	;# 
  1243  0412                     	;# 
  1244  0413                     	;# 
  1245  0414                     	;# 
  1246  0415                     	;# 
  1247  0416                     	;# 
  1248  0417                     	;# 
  1249  0418                     	;# 
  1250  0418                     	;# 
  1251  0419                     	;# 
  1252  041A                     	;# 
  1253  041B                     	;# 
  1254  041C                     	;# 
  1255  041D                     	;# 
  1256  041E                     	;# 
  1257  041F                     	;# 
  1258  0498                     	;# 
  1259  0498                     	;# 
  1260  0499                     	;# 
  1261  049A                     	;# 
  1262  049B                     	;# 
  1263  049B                     	;# 
  1264  049C                     	;# 
  1265  049D                     	;# 
  1266  049E                     	;# 
  1267  049F                     	;# 
  1268  0617                     	;# 
  1269  0618                     	;# 
  1270  0619                     	;# 
  1271  0619                     	;# 
  1272  061A                     	;# 
  1273  061B                     	;# 
  1274  061C                     	;# 
  1275  061C                     	;# 
  1276  061F                     	;# 
  1277  0691                     	;# 
  1278  0692                     	;# 
  1279  0693                     	;# 
  1280  0694                     	;# 
  1281  0695                     	;# 
  1282  0696                     	;# 
  1283  0697                     	;# 
  1284  0698                     	;# 
  1285  0699                     	;# 
  1286  0711                     	;# 
  1287  0712                     	;# 
  1288  0713                     	;# 
  1289  0714                     	;# 
  1290  0715                     	;# 
  1291  0716                     	;# 
  1292  0717                     	;# 
  1293  0718                     	;# 
  1294  0719                     	;# 
  1295  0891                     	;# 
  1296  0891                     	;# 
  1297  0891                     	;# 
  1298  0891                     	;# 
  1299  0891                     	;# 
  1300  0891                     	;# 
  1301  0892                     	;# 
  1302  0892                     	;# 
  1303  0892                     	;# 
  1304  0893                     	;# 
  1305  0893                     	;# 
  1306  0893                     	;# 
  1307  0893                     	;# 
  1308  0893                     	;# 
  1309  0893                     	;# 
  1310  0894                     	;# 
  1311  0894                     	;# 
  1312  0894                     	;# 
  1313  0895                     	;# 
  1314  0895                     	;# 
  1315  0895                     	;# 
  1316  0896                     	;# 
  1317  0896                     	;# 
  1318  0896                     	;# 
  1319  089B                     	;# 
  1320  0911                     	;# 
  1321  0912                     	;# 
  1322  0913                     	;# 
  1323  0914                     	;# 
  1324  0915                     	;# 
  1325  0916                     	;# 
  1326  0918                     	;# 
  1327  0919                     	;# 
  1328  091A                     	;# 
  1329  091B                     	;# 
  1330  091C                     	;# 
  1331  091D                     	;# 
  1332  091E                     	;# 
  1333  091F                     	;# 
  1334  0E0F                     	;# 
  1335  0E10                     	;# 
  1336  0E11                     	;# 
  1337  0E12                     	;# 
  1338  0E13                     	;# 
  1339  0E14                     	;# 
  1340  0E15                     	;# 
  1341  0E16                     	;# 
  1342  0E17                     	;# 
  1343  0E18                     	;# 
  1344  0E19                     	;# 
  1345  0E1A                     	;# 
  1346  0E1B                     	;# 
  1347  0E1C                     	;# 
  1348  0E1D                     	;# 
  1349  0E1E                     	;# 
  1350  0E1F                     	;# 
  1351  0E20                     	;# 
  1352  0E21                     	;# 
  1353  0E22                     	;# 
  1354  0E24                     	;# 
  1355  0E25                     	;# 
  1356  0E28                     	;# 
  1357  0E29                     	;# 
  1358  0E2A                     	;# 
  1359  0E2B                     	;# 
  1360  0E2C                     	;# 
  1361  0E2D                     	;# 
  1362  0E2E                     	;# 
  1363  0E2F                     	;# 
  1364  0E90                     	;# 
  1365  0E91                     	;# 
  1366  0E92                     	;# 
  1367  0E94                     	;# 
  1368  0E95                     	;# 
  1369  0EA0                     	;# 
  1370  0EA1                     	;# 
  1371  0EA2                     	;# 
  1372  0EA3                     	;# 
  1373  0EA4                     	;# 
  1374  0EA5                     	;# 
  1375  0F0F                     	;# 
  1376  0F10                     	;# 
  1377  0F11                     	;# 
  1378  0F12                     	;# 
  1379  0F13                     	;# 
  1380  0F14                     	;# 
  1381  0F15                     	;# 
  1382  0F16                     	;# 
  1383  0F17                     	;# 
  1384  0F18                     	;# 
  1385  0F19                     	;# 
  1386  0F1A                     	;# 
  1387  0F1B                     	;# 
  1388  0F1C                     	;# 
  1389  0F1D                     	;# 
  1390  0F1E                     	;# 
  1391  0F1F                     	;# 
  1392  0F20                     	;# 
  1393  0F21                     	;# 
  1394  0F22                     	;# 
  1395  0F23                     	;# 
  1396  0F24                     	;# 
  1397  0F25                     	;# 
  1398  0F26                     	;# 
  1399  0F27                     	;# 
  1400  0F28                     	;# 
  1401  0F29                     	;# 
  1402  0F2A                     	;# 
  1403  0F2B                     	;# 
  1404  0F2C                     	;# 
  1405  0F2D                     	;# 
  1406  0F2E                     	;# 
  1407  0F2F                     	;# 
  1408  0F30                     	;# 
  1409  0F31                     	;# 
  1410  0F32                     	;# 
  1411  0F33                     	;# 
  1412  0F34                     	;# 
  1413  0F35                     	;# 
  1414  0F36                     	;# 
  1415  0F37                     	;# 
  1416  0FE4                     	;# 
  1417  0FE5                     	;# 
  1418  0FE6                     	;# 
  1419  0FE7                     	;# 
  1420  0FE8                     	;# 
  1421  0FE9                     	;# 
  1422  0FEA                     	;# 
  1423  0FEB                     	;# 
  1424  0FED                     	;# 
  1425  0FEE                     	;# 
  1426  0FEF                     	;# 
  1427  0000                     	;# 
  1428  0001                     	;# 
  1429  0002                     	;# 
  1430  0003                     	;# 
  1431  0004                     	;# 
  1432  0005                     	;# 
  1433  0006                     	;# 
  1434  0007                     	;# 
  1435  0008                     	;# 
  1436  0009                     	;# 
  1437  000A                     	;# 
  1438  000B                     	;# 
  1439  000C                     	;# 
  1440  000E                     	;# 
  1441  0010                     	;# 
  1442  0011                     	;# 
  1443  0012                     	;# 
  1444  0013                     	;# 
  1445  0014                     	;# 
  1446  0015                     	;# 
  1447  0015                     	;# 
  1448  0016                     	;# 
  1449  0016                     	;# 
  1450  0017                     	;# 
  1451  0018                     	;# 
  1452  0019                     	;# 
  1453  0019                     	;# 
  1454  001A                     	;# 
  1455  001B                     	;# 
  1456  001C                     	;# 
  1457  001D                     	;# 
  1458  001E                     	;# 
  1459  001F                     	;# 
  1460  008C                     	;# 
  1461  008E                     	;# 
  1462  0090                     	;# 
  1463  0091                     	;# 
  1464  0092                     	;# 
  1465  0093                     	;# 
  1466  0094                     	;# 
  1467  0097                     	;# 
  1468  009B                     	;# 
  1469  009B                     	;# 
  1470  009C                     	;# 
  1471  009D                     	;# 
  1472  009E                     	;# 
  1473  009F                     	;# 
  1474  010C                     	;# 
  1475  010E                     	;# 
  1476  0111                     	;# 
  1477  0112                     	;# 
  1478  0113                     	;# 
  1479  0114                     	;# 
  1480  0115                     	;# 
  1481  0116                     	;# 
  1482  0117                     	;# 
  1483  0118                     	;# 
  1484  0119                     	;# 
  1485  018C                     	;# 
  1486  018E                     	;# 
  1487  0197                     	;# 
  1488  0199                     	;# 
  1489  0199                     	;# 
  1490  0199                     	;# 
  1491  019A                     	;# 
  1492  019A                     	;# 
  1493  019A                     	;# 
  1494  019B                     	;# 
  1495  019B                     	;# 
  1496  019B                     	;# 
  1497  019B                     	;# 
  1498  019B                     	;# 
  1499  019C                     	;# 
  1500  019C                     	;# 
  1501  019C                     	;# 
  1502  019D                     	;# 
  1503  019D                     	;# 
  1504  019D                     	;# 
  1505  019E                     	;# 
  1506  019E                     	;# 
  1507  019E                     	;# 
  1508  019F                     	;# 
  1509  019F                     	;# 
  1510  019F                     	;# 
  1511  019F                     	;# 
  1512  019F                     	;# 
  1513  020C                     	;# 
  1514  020E                     	;# 
  1515  0211                     	;# 
  1516  0211                     	;# 
  1517  0212                     	;# 
  1518  0212                     	;# 
  1519  0213                     	;# 
  1520  0213                     	;# 
  1521  0214                     	;# 
  1522  0214                     	;# 
  1523  0215                     	;# 
  1524  0215                     	;# 
  1525  0215                     	;# 
  1526  0215                     	;# 
  1527  0216                     	;# 
  1528  0216                     	;# 
  1529  0217                     	;# 
  1530  0217                     	;# 
  1531  0219                     	;# 
  1532  021A                     	;# 
  1533  021B                     	;# 
  1534  021C                     	;# 
  1535  021D                     	;# 
  1536  021D                     	;# 
  1537  021E                     	;# 
  1538  021F                     	;# 
  1539  028C                     	;# 
  1540  028E                     	;# 
  1541  0291                     	;# 
  1542  0291                     	;# 
  1543  0292                     	;# 
  1544  0293                     	;# 
  1545  0294                     	;# 
  1546  0295                     	;# 
  1547  0295                     	;# 
  1548  0296                     	;# 
  1549  0297                     	;# 
  1550  0298                     	;# 
  1551  029F                     	;# 
  1552  030C                     	;# 
  1553  030E                     	;# 
  1554  0311                     	;# 
  1555  0311                     	;# 
  1556  0312                     	;# 
  1557  0313                     	;# 
  1558  0314                     	;# 
  1559  0315                     	;# 
  1560  0315                     	;# 
  1561  0316                     	;# 
  1562  0317                     	;# 
  1563  0318                     	;# 
  1564  038C                     	;# 
  1565  038E                     	;# 
  1566  0391                     	;# 
  1567  0392                     	;# 
  1568  0393                     	;# 
  1569  0397                     	;# 
  1570  0398                     	;# 
  1571  0399                     	;# 
  1572  039A                     	;# 
  1573  039C                     	;# 
  1574  039D                     	;# 
  1575  039E                     	;# 
  1576  039F                     	;# 
  1577  0411                     	;# 
  1578  0411                     	;# 
  1579  0412                     	;# 
  1580  0413                     	;# 
  1581  0414                     	;# 
  1582  0415                     	;# 
  1583  0416                     	;# 
  1584  0417                     	;# 
  1585  0418                     	;# 
  1586  0418                     	;# 
  1587  0419                     	;# 
  1588  041A                     	;# 
  1589  041B                     	;# 
  1590  041C                     	;# 
  1591  041D                     	;# 
  1592  041E                     	;# 
  1593  041F                     	;# 
  1594  0498                     	;# 
  1595  0498                     	;# 
  1596  0499                     	;# 
  1597  049A                     	;# 
  1598  049B                     	;# 
  1599  049B                     	;# 
  1600  049C                     	;# 
  1601  049D                     	;# 
  1602  049E                     	;# 
  1603  049F                     	;# 
  1604  0617                     	;# 
  1605  0618                     	;# 
  1606  0619                     	;# 
  1607  0619                     	;# 
  1608  061A                     	;# 
  1609  061B                     	;# 
  1610  061C                     	;# 
  1611  061C                     	;# 
  1612  061F                     	;# 
  1613  0691                     	;# 
  1614  0692                     	;# 
  1615  0693                     	;# 
  1616  0694                     	;# 
  1617  0695                     	;# 
  1618  0696                     	;# 
  1619  0697                     	;# 
  1620  0698                     	;# 
  1621  0699                     	;# 
  1622  0711                     	;# 
  1623  0712                     	;# 
  1624  0713                     	;# 
  1625  0714                     	;# 
  1626  0715                     	;# 
  1627  0716                     	;# 
  1628  0717                     	;# 
  1629  0718                     	;# 
  1630  0719                     	;# 
  1631  0891                     	;# 
  1632  0891                     	;# 
  1633  0891                     	;# 
  1634  0891                     	;# 
  1635  0891                     	;# 
  1636  0891                     	;# 
  1637  0892                     	;# 
  1638  0892                     	;# 
  1639  0892                     	;# 
  1640  0893                     	;# 
  1641  0893                     	;# 
  1642  0893                     	;# 
  1643  0893                     	;# 
  1644  0893                     	;# 
  1645  0893                     	;# 
  1646  0894                     	;# 
  1647  0894                     	;# 
  1648  0894                     	;# 
  1649  0895                     	;# 
  1650  0895                     	;# 
  1651  0895                     	;# 
  1652  0896                     	;# 
  1653  0896                     	;# 
  1654  0896                     	;# 
  1655  089B                     	;# 
  1656  0911                     	;# 
  1657  0912                     	;# 
  1658  0913                     	;# 
  1659  0914                     	;# 
  1660  0915                     	;# 
  1661  0916                     	;# 
  1662  0918                     	;# 
  1663  0919                     	;# 
  1664  091A                     	;# 
  1665  091B                     	;# 
  1666  091C                     	;# 
  1667  091D                     	;# 
  1668  091E                     	;# 
  1669  091F                     	;# 
  1670  0E0F                     	;# 
  1671  0E10                     	;# 
  1672  0E11                     	;# 
  1673  0E12                     	;# 
  1674  0E13                     	;# 
  1675  0E14                     	;# 
  1676  0E15                     	;# 
  1677  0E16                     	;# 
  1678  0E17                     	;# 
  1679  0E18                     	;# 
  1680  0E19                     	;# 
  1681  0E1A                     	;# 
  1682  0E1B                     	;# 
  1683  0E1C                     	;# 
  1684  0E1D                     	;# 
  1685  0E1E                     	;# 
  1686  0E1F                     	;# 
  1687  0E20                     	;# 
  1688  0E21                     	;# 
  1689  0E22                     	;# 
  1690  0E24                     	;# 
  1691  0E25                     	;# 
  1692  0E28                     	;# 
  1693  0E29                     	;# 
  1694  0E2A                     	;# 
  1695  0E2B                     	;# 
  1696  0E2C                     	;# 
  1697  0E2D                     	;# 
  1698  0E2E                     	;# 
  1699  0E2F                     	;# 
  1700  0E90                     	;# 
  1701  0E91                     	;# 
  1702  0E92                     	;# 
  1703  0E94                     	;# 
  1704  0E95                     	;# 
  1705  0EA0                     	;# 
  1706  0EA1                     	;# 
  1707  0EA2                     	;# 
  1708  0EA3                     	;# 
  1709  0EA4                     	;# 
  1710  0EA5                     	;# 
  1711  0F0F                     	;# 
  1712  0F10                     	;# 
  1713  0F11                     	;# 
  1714  0F12                     	;# 
  1715  0F13                     	;# 
  1716  0F14                     	;# 
  1717  0F15                     	;# 
  1718  0F16                     	;# 
  1719  0F17                     	;# 
  1720  0F18                     	;# 
  1721  0F19                     	;# 
  1722  0F1A                     	;# 
  1723  0F1B                     	;# 
  1724  0F1C                     	;# 
  1725  0F1D                     	;# 
  1726  0F1E                     	;# 
  1727  0F1F                     	;# 
  1728  0F20                     	;# 
  1729  0F21                     	;# 
  1730  0F22                     	;# 
  1731  0F23                     	;# 
  1732  0F24                     	;# 
  1733  0F25                     	;# 
  1734  0F26                     	;# 
  1735  0F27                     	;# 
  1736  0F28                     	;# 
  1737  0F29                     	;# 
  1738  0F2A                     	;# 
  1739  0F2B                     	;# 
  1740  0F2C                     	;# 
  1741  0F2D                     	;# 
  1742  0F2E                     	;# 
  1743  0F2F                     	;# 
  1744  0F30                     	;# 
  1745  0F31                     	;# 
  1746  0F32                     	;# 
  1747  0F33                     	;# 
  1748  0F34                     	;# 
  1749  0F35                     	;# 
  1750  0F36                     	;# 
  1751  0F37                     	;# 
  1752  0FE4                     	;# 
  1753  0FE5                     	;# 
  1754  0FE6                     	;# 
  1755  0FE7                     	;# 
  1756  0FE8                     	;# 
  1757  0FE9                     	;# 
  1758  0FEA                     	;# 
  1759  0FEB                     	;# 
  1760  0FED                     	;# 
  1761  0FEE                     	;# 
  1762  0FEF                     	;# 
  1763  0000                     	;# 
  1764  0001                     	;# 
  1765  0002                     	;# 
  1766  0003                     	;# 
  1767  0004                     	;# 
  1768  0005                     	;# 
  1769  0006                     	;# 
  1770  0007                     	;# 
  1771  0008                     	;# 
  1772  0009                     	;# 
  1773  000A                     	;# 
  1774  000B                     	;# 
  1775  000C                     	;# 
  1776  000E                     	;# 
  1777  0010                     	;# 
  1778  0011                     	;# 
  1779  0012                     	;# 
  1780  0013                     	;# 
  1781  0014                     	;# 
  1782  0015                     	;# 
  1783  0015                     	;# 
  1784  0016                     	;# 
  1785  0016                     	;# 
  1786  0017                     	;# 
  1787  0018                     	;# 
  1788  0019                     	;# 
  1789  0019                     	;# 
  1790  001A                     	;# 
  1791  001B                     	;# 
  1792  001C                     	;# 
  1793  001D                     	;# 
  1794  001E                     	;# 
  1795  001F                     	;# 
  1796  008C                     	;# 
  1797  008E                     	;# 
  1798  0090                     	;# 
  1799  0091                     	;# 
  1800  0092                     	;# 
  1801  0093                     	;# 
  1802  0094                     	;# 
  1803  0097                     	;# 
  1804  009B                     	;# 
  1805  009B                     	;# 
  1806  009C                     	;# 
  1807  009D                     	;# 
  1808  009E                     	;# 
  1809  009F                     	;# 
  1810  010C                     	;# 
  1811  010E                     	;# 
  1812  0111                     	;# 
  1813  0112                     	;# 
  1814  0113                     	;# 
  1815  0114                     	;# 
  1816  0115                     	;# 
  1817  0116                     	;# 
  1818  0117                     	;# 
  1819  0118                     	;# 
  1820  0119                     	;# 
  1821  018C                     	;# 
  1822  018E                     	;# 
  1823  0197                     	;# 
  1824  0199                     	;# 
  1825  0199                     	;# 
  1826  0199                     	;# 
  1827  019A                     	;# 
  1828  019A                     	;# 
  1829  019A                     	;# 
  1830  019B                     	;# 
  1831  019B                     	;# 
  1832  019B                     	;# 
  1833  019B                     	;# 
  1834  019B                     	;# 
  1835  019C                     	;# 
  1836  019C                     	;# 
  1837  019C                     	;# 
  1838  019D                     	;# 
  1839  019D                     	;# 
  1840  019D                     	;# 
  1841  019E                     	;# 
  1842  019E                     	;# 
  1843  019E                     	;# 
  1844  019F                     	;# 
  1845  019F                     	;# 
  1846  019F                     	;# 
  1847  019F                     	;# 
  1848  019F                     	;# 
  1849  020C                     	;# 
  1850  020E                     	;# 
  1851  0211                     	;# 
  1852  0211                     	;# 
  1853  0212                     	;# 
  1854  0212                     	;# 
  1855  0213                     	;# 
  1856  0213                     	;# 
  1857  0214                     	;# 
  1858  0214                     	;# 
  1859  0215                     	;# 
  1860  0215                     	;# 
  1861  0215                     	;# 
  1862  0215                     	;# 
  1863  0216                     	;# 
  1864  0216                     	;# 
  1865  0217                     	;# 
  1866  0217                     	;# 
  1867  0219                     	;# 
  1868  021A                     	;# 
  1869  021B                     	;# 
  1870  021C                     	;# 
  1871  021D                     	;# 
  1872  021D                     	;# 
  1873  021E                     	;# 
  1874  021F                     	;# 
  1875  028C                     	;# 
  1876  028E                     	;# 
  1877  0291                     	;# 
  1878  0291                     	;# 
  1879  0292                     	;# 
  1880  0293                     	;# 
  1881  0294                     	;# 
  1882  0295                     	;# 
  1883  0295                     	;# 
  1884  0296                     	;# 
  1885  0297                     	;# 
  1886  0298                     	;# 
  1887  029F                     	;# 
  1888  030C                     	;# 
  1889  030E                     	;# 
  1890  0311                     	;# 
  1891  0311                     	;# 
  1892  0312                     	;# 
  1893  0313                     	;# 
  1894  0314                     	;# 
  1895  0315                     	;# 
  1896  0315                     	;# 
  1897  0316                     	;# 
  1898  0317                     	;# 
  1899  0318                     	;# 
  1900  038C                     	;# 
  1901  038E                     	;# 
  1902  0391                     	;# 
  1903  0392                     	;# 
  1904  0393                     	;# 
  1905  0397                     	;# 
  1906  0398                     	;# 
  1907  0399                     	;# 
  1908  039A                     	;# 
  1909  039C                     	;# 
  1910  039D                     	;# 
  1911  039E                     	;# 
  1912  039F                     	;# 
  1913  0411                     	;# 
  1914  0411                     	;# 
  1915  0412                     	;# 
  1916  0413                     	;# 
  1917  0414                     	;# 
  1918  0415                     	;# 
  1919  0416                     	;# 
  1920  0417                     	;# 
  1921  0418                     	;# 
  1922  0418                     	;# 
  1923  0419                     	;# 
  1924  041A                     	;# 
  1925  041B                     	;# 
  1926  041C                     	;# 
  1927  041D                     	;# 
  1928  041E                     	;# 
  1929  041F                     	;# 
  1930  0498                     	;# 
  1931  0498                     	;# 
  1932  0499                     	;# 
  1933  049A                     	;# 
  1934  049B                     	;# 
  1935  049B                     	;# 
  1936  049C                     	;# 
  1937  049D                     	;# 
  1938  049E                     	;# 
  1939  049F                     	;# 
  1940  0617                     	;# 
  1941  0618                     	;# 
  1942  0619                     	;# 
  1943  0619                     	;# 
  1944  061A                     	;# 
  1945  061B                     	;# 
  1946  061C                     	;# 
  1947  061C                     	;# 
  1948  061F                     	;# 
  1949  0691                     	;# 
  1950  0692                     	;# 
  1951  0693                     	;# 
  1952  0694                     	;# 
  1953  0695                     	;# 
  1954  0696                     	;# 
  1955  0697                     	;# 
  1956  0698                     	;# 
  1957  0699                     	;# 
  1958  0711                     	;# 
  1959  0712                     	;# 
  1960  0713                     	;# 
  1961  0714                     	;# 
  1962  0715                     	;# 
  1963  0716                     	;# 
  1964  0717                     	;# 
  1965  0718                     	;# 
  1966  0719                     	;# 
  1967  0891                     	;# 
  1968  0891                     	;# 
  1969  0891                     	;# 
  1970  0891                     	;# 
  1971  0891                     	;# 
  1972  0891                     	;# 
  1973  0892                     	;# 
  1974  0892                     	;# 
  1975  0892                     	;# 
  1976  0893                     	;# 
  1977  0893                     	;# 
  1978  0893                     	;# 
  1979  0893                     	;# 
  1980  0893                     	;# 
  1981  0893                     	;# 
  1982  0894                     	;# 
  1983  0894                     	;# 
  1984  0894                     	;# 
  1985  0895                     	;# 
  1986  0895                     	;# 
  1987  0895                     	;# 
  1988  0896                     	;# 
  1989  0896                     	;# 
  1990  0896                     	;# 
  1991  089B                     	;# 
  1992  0911                     	;# 
  1993  0912                     	;# 
  1994  0913                     	;# 
  1995  0914                     	;# 
  1996  0915                     	;# 
  1997  0916                     	;# 
  1998  0918                     	;# 
  1999  0919                     	;# 
  2000  091A                     	;# 
  2001  091B                     	;# 
  2002  091C                     	;# 
  2003  091D                     	;# 
  2004  091E                     	;# 
  2005  091F                     	;# 
  2006  0E0F                     	;# 
  2007  0E10                     	;# 
  2008  0E11                     	;# 
  2009  0E12                     	;# 
  2010  0E13                     	;# 
  2011  0E14                     	;# 
  2012  0E15                     	;# 
  2013  0E16                     	;# 
  2014  0E17                     	;# 
  2015  0E18                     	;# 
  2016  0E19                     	;# 
  2017  0E1A                     	;# 
  2018  0E1B                     	;# 
  2019  0E1C                     	;# 
  2020  0E1D                     	;# 
  2021  0E1E                     	;# 
  2022  0E1F                     	;# 
  2023  0E20                     	;# 
  2024  0E21                     	;# 
  2025  0E22                     	;# 
  2026  0E24                     	;# 
  2027  0E25                     	;# 
  2028  0E28                     	;# 
  2029  0E29                     	;# 
  2030  0E2A                     	;# 
  2031  0E2B                     	;# 
  2032  0E2C                     	;# 
  2033  0E2D                     	;# 
  2034  0E2E                     	;# 
  2035  0E2F                     	;# 
  2036  0E90                     	;# 
  2037  0E91                     	;# 
  2038  0E92                     	;# 
  2039  0E94                     	;# 
  2040  0E95                     	;# 
  2041  0EA0                     	;# 
  2042  0EA1                     	;# 
  2043  0EA2                     	;# 
  2044  0EA3                     	;# 
  2045  0EA4                     	;# 
  2046  0EA5                     	;# 
  2047  0F0F                     	;# 
  2048  0F10                     	;# 
  2049  0F11                     	;# 
  2050  0F12                     	;# 
  2051  0F13                     	;# 
  2052  0F14                     	;# 
  2053  0F15                     	;# 
  2054  0F16                     	;# 
  2055  0F17                     	;# 
  2056  0F18                     	;# 
  2057  0F19                     	;# 
  2058  0F1A                     	;# 
  2059  0F1B                     	;# 
  2060  0F1C                     	;# 
  2061  0F1D                     	;# 
  2062  0F1E                     	;# 
  2063  0F1F                     	;# 
  2064  0F20                     	;# 
  2065  0F21                     	;# 
  2066  0F22                     	;# 
  2067  0F23                     	;# 
  2068  0F24                     	;# 
  2069  0F25                     	;# 
  2070  0F26                     	;# 
  2071  0F27                     	;# 
  2072  0F28                     	;# 
  2073  0F29                     	;# 
  2074  0F2A                     	;# 
  2075  0F2B                     	;# 
  2076  0F2C                     	;# 
  2077  0F2D                     	;# 
  2078  0F2E                     	;# 
  2079  0F2F                     	;# 
  2080  0F30                     	;# 
  2081  0F31                     	;# 
  2082  0F32                     	;# 
  2083  0F33                     	;# 
  2084  0F34                     	;# 
  2085  0F35                     	;# 
  2086  0F36                     	;# 
  2087  0F37                     	;# 
  2088  0FE4                     	;# 
  2089  0FE5                     	;# 
  2090  0FE6                     	;# 
  2091  0FE7                     	;# 
  2092  0FE8                     	;# 
  2093  0FE9                     	;# 
  2094  0FEA                     	;# 
  2095  0FEB                     	;# 
  2096  0FED                     	;# 
  2097  0FEE                     	;# 
  2098  0FEF                     	;# 
  2099  0000                     	;# 
  2100  0001                     	;# 
  2101  0002                     	;# 
  2102  0003                     	;# 
  2103  0004                     	;# 
  2104  0005                     	;# 
  2105  0006                     	;# 
  2106  0007                     	;# 
  2107  0008                     	;# 
  2108  0009                     	;# 
  2109  000A                     	;# 
  2110  000B                     	;# 
  2111  000C                     	;# 
  2112  000E                     	;# 
  2113  0010                     	;# 
  2114  0011                     	;# 
  2115  0012                     	;# 
  2116  0013                     	;# 
  2117  0014                     	;# 
  2118  0015                     	;# 
  2119  0015                     	;# 
  2120  0016                     	;# 
  2121  0016                     	;# 
  2122  0017                     	;# 
  2123  0018                     	;# 
  2124  0019                     	;# 
  2125  0019                     	;# 
  2126  001A                     	;# 
  2127  001B                     	;# 
  2128  001C                     	;# 
  2129  001D                     	;# 
  2130  001E                     	;# 
  2131  001F                     	;# 
  2132  008C                     	;# 
  2133  008E                     	;# 
  2134  0090                     	;# 
  2135  0091                     	;# 
  2136  0092                     	;# 
  2137  0093                     	;# 
  2138  0094                     	;# 
  2139  0097                     	;# 
  2140  009B                     	;# 
  2141  009B                     	;# 
  2142  009C                     	;# 
  2143  009D                     	;# 
  2144  009E                     	;# 
  2145  009F                     	;# 
  2146  010C                     	;# 
  2147  010E                     	;# 
  2148  0111                     	;# 
  2149  0112                     	;# 
  2150  0113                     	;# 
  2151  0114                     	;# 
  2152  0115                     	;# 
  2153  0116                     	;# 
  2154  0117                     	;# 
  2155  0118                     	;# 
  2156  0119                     	;# 
  2157  018C                     	;# 
  2158  018E                     	;# 
  2159  0197                     	;# 
  2160  0199                     	;# 
  2161  0199                     	;# 
  2162  0199                     	;# 
  2163  019A                     	;# 
  2164  019A                     	;# 
  2165  019A                     	;# 
  2166  019B                     	;# 
  2167  019B                     	;# 
  2168  019B                     	;# 
  2169  019B                     	;# 
  2170  019B                     	;# 
  2171  019C                     	;# 
  2172  019C                     	;# 
  2173  019C                     	;# 
  2174  019D                     	;# 
  2175  019D                     	;# 
  2176  019D                     	;# 
  2177  019E                     	;# 
  2178  019E                     	;# 
  2179  019E                     	;# 
  2180  019F                     	;# 
  2181  019F                     	;# 
  2182  019F                     	;# 
  2183  019F                     	;# 
  2184  019F                     	;# 
  2185  020C                     	;# 
  2186  020E                     	;# 
  2187  0211                     	;# 
  2188  0211                     	;# 
  2189  0212                     	;# 
  2190  0212                     	;# 
  2191  0213                     	;# 
  2192  0213                     	;# 
  2193  0214                     	;# 
  2194  0214                     	;# 
  2195  0215                     	;# 
  2196  0215                     	;# 
  2197  0215                     	;# 
  2198  0215                     	;# 
  2199  0216                     	;# 
  2200  0216                     	;# 
  2201  0217                     	;# 
  2202  0217                     	;# 
  2203  0219                     	;# 
  2204  021A                     	;# 
  2205  021B                     	;# 
  2206  021C                     	;# 
  2207  021D                     	;# 
  2208  021D                     	;# 
  2209  021E                     	;# 
  2210  021F                     	;# 
  2211  028C                     	;# 
  2212  028E                     	;# 
  2213  0291                     	;# 
  2214  0291                     	;# 
  2215  0292                     	;# 
  2216  0293                     	;# 
  2217  0294                     	;# 
  2218  0295                     	;# 
  2219  0295                     	;# 
  2220  0296                     	;# 
  2221  0297                     	;# 
  2222  0298                     	;# 
  2223  029F                     	;# 
  2224  030C                     	;# 
  2225  030E                     	;# 
  2226  0311                     	;# 
  2227  0311                     	;# 
  2228  0312                     	;# 
  2229  0313                     	;# 
  2230  0314                     	;# 
  2231  0315                     	;# 
  2232  0315                     	;# 
  2233  0316                     	;# 
  2234  0317                     	;# 
  2235  0318                     	;# 
  2236  038C                     	;# 
  2237  038E                     	;# 
  2238  0391                     	;# 
  2239  0392                     	;# 
  2240  0393                     	;# 
  2241  0397                     	;# 
  2242  0398                     	;# 
  2243  0399                     	;# 
  2244  039A                     	;# 
  2245  039C                     	;# 
  2246  039D                     	;# 
  2247  039E                     	;# 
  2248  039F                     	;# 
  2249  0411                     	;# 
  2250  0411                     	;# 
  2251  0412                     	;# 
  2252  0413                     	;# 
  2253  0414                     	;# 
  2254  0415                     	;# 
  2255  0416                     	;# 
  2256  0417                     	;# 
  2257  0418                     	;# 
  2258  0418                     	;# 
  2259  0419                     	;# 
  2260  041A                     	;# 
  2261  041B                     	;# 
  2262  041C                     	;# 
  2263  041D                     	;# 
  2264  041E                     	;# 
  2265  041F                     	;# 
  2266  0498                     	;# 
  2267  0498                     	;# 
  2268  0499                     	;# 
  2269  049A                     	;# 
  2270  049B                     	;# 
  2271  049B                     	;# 
  2272  049C                     	;# 
  2273  049D                     	;# 
  2274  049E                     	;# 
  2275  049F                     	;# 
  2276  0617                     	;# 
  2277  0618                     	;# 
  2278  0619                     	;# 
  2279  0619                     	;# 
  2280  061A                     	;# 
  2281  061B                     	;# 
  2282  061C                     	;# 
  2283  061C                     	;# 
  2284  061F                     	;# 
  2285  0691                     	;# 
  2286  0692                     	;# 
  2287  0693                     	;# 
  2288  0694                     	;# 
  2289  0695                     	;# 
  2290  0696                     	;# 
  2291  0697                     	;# 
  2292  0698                     	;# 
  2293  0699                     	;# 
  2294  0711                     	;# 
  2295  0712                     	;# 
  2296  0713                     	;# 
  2297  0714                     	;# 
  2298  0715                     	;# 
  2299  0716                     	;# 
  2300  0717                     	;# 
  2301  0718                     	;# 
  2302  0719                     	;# 
  2303  0891                     	;# 
  2304  0891                     	;# 
  2305  0891                     	;# 
  2306  0891                     	;# 
  2307  0891                     	;# 
  2308  0891                     	;# 
  2309  0892                     	;# 
  2310  0892                     	;# 
  2311  0892                     	;# 
  2312  0893                     	;# 
  2313  0893                     	;# 
  2314  0893                     	;# 
  2315  0893                     	;# 
  2316  0893                     	;# 
  2317  0893                     	;# 
  2318  0894                     	;# 
  2319  0894                     	;# 
  2320  0894                     	;# 
  2321  0895                     	;# 
  2322  0895                     	;# 
  2323  0895                     	;# 
  2324  0896                     	;# 
  2325  0896                     	;# 
  2326  0896                     	;# 
  2327  089B                     	;# 
  2328  0911                     	;# 
  2329  0912                     	;# 
  2330  0913                     	;# 
  2331  0914                     	;# 
  2332  0915                     	;# 
  2333  0916                     	;# 
  2334  0918                     	;# 
  2335  0919                     	;# 
  2336  091A                     	;# 
  2337  091B                     	;# 
  2338  091C                     	;# 
  2339  091D                     	;# 
  2340  091E                     	;# 
  2341  091F                     	;# 
  2342  0E0F                     	;# 
  2343  0E10                     	;# 
  2344  0E11                     	;# 
  2345  0E12                     	;# 
  2346  0E13                     	;# 
  2347  0E14                     	;# 
  2348  0E15                     	;# 
  2349  0E16                     	;# 
  2350  0E17                     	;# 
  2351  0E18                     	;# 
  2352  0E19                     	;# 
  2353  0E1A                     	;# 
  2354  0E1B                     	;# 
  2355  0E1C                     	;# 
  2356  0E1D                     	;# 
  2357  0E1E                     	;# 
  2358  0E1F                     	;# 
  2359  0E20                     	;# 
  2360  0E21                     	;# 
  2361  0E22                     	;# 
  2362  0E24                     	;# 
  2363  0E25                     	;# 
  2364  0E28                     	;# 
  2365  0E29                     	;# 
  2366  0E2A                     	;# 
  2367  0E2B                     	;# 
  2368  0E2C                     	;# 
  2369  0E2D                     	;# 
  2370  0E2E                     	;# 
  2371  0E2F                     	;# 
  2372  0E90                     	;# 
  2373  0E91                     	;# 
  2374  0E92                     	;# 
  2375  0E94                     	;# 
  2376  0E95                     	;# 
  2377  0EA0                     	;# 
  2378  0EA1                     	;# 
  2379  0EA2                     	;# 
  2380  0EA3                     	;# 
  2381  0EA4                     	;# 
  2382  0EA5                     	;# 
  2383  0F0F                     	;# 
  2384  0F10                     	;# 
  2385  0F11                     	;# 
  2386  0F12                     	;# 
  2387  0F13                     	;# 
  2388  0F14                     	;# 
  2389  0F15                     	;# 
  2390  0F16                     	;# 
  2391  0F17                     	;# 
  2392  0F18                     	;# 
  2393  0F19                     	;# 
  2394  0F1A                     	;# 
  2395  0F1B                     	;# 
  2396  0F1C                     	;# 
  2397  0F1D                     	;# 
  2398  0F1E                     	;# 
  2399  0F1F                     	;# 
  2400  0F20                     	;# 
  2401  0F21                     	;# 
  2402  0F22                     	;# 
  2403  0F23                     	;# 
  2404  0F24                     	;# 
  2405  0F25                     	;# 
  2406  0F26                     	;# 
  2407  0F27                     	;# 
  2408  0F28                     	;# 
  2409  0F29                     	;# 
  2410  0F2A                     	;# 
  2411  0F2B                     	;# 
  2412  0F2C                     	;# 
  2413  0F2D                     	;# 
  2414  0F2E                     	;# 
  2415  0F2F                     	;# 
  2416  0F30                     	;# 
  2417  0F31                     	;# 
  2418  0F32                     	;# 
  2419  0F33                     	;# 
  2420  0F34                     	;# 
  2421  0F35                     	;# 
  2422  0F36                     	;# 
  2423  0F37                     	;# 
  2424  0FE4                     	;# 
  2425  0FE5                     	;# 
  2426  0FE6                     	;# 
  2427  0FE7                     	;# 
  2428  0FE8                     	;# 
  2429  0FE9                     	;# 
  2430  0FEA                     	;# 
  2431  0FEB                     	;# 
  2432  0FED                     	;# 
  2433  0FEE                     	;# 
  2434  0FEF                     	;# 
  2435                           
  2436                           	psect	nvBANK1
  2437  00DA                     __pnvBANK1:	
  2438  00DA                     _eusartTxBufferRemaining:	
  2439  00DA                     	ds	1
  2440  008E                     _TRISCbits	set	142
  2441  008C                     _TRISAbits	set	140
  2442  008E                     _TRISC	set	142
  2443  008C                     _TRISA	set	140
  2444  0097                     _WDTCON	set	151
  2445  0091                     _PIE1bits	set	145
  2446  010E                     _LATC	set	270
  2447  010C                     _LATA	set	268
  2448  018C                     _ANSELA	set	396
  2449  018E                     _ANSELC	set	398
  2450  019A                     _TX1REG	set	410
  2451  019E                     _TX1STAbits	set	414
  2452  019C                     _SP1BRGH	set	412
  2453  019B                     _SP1BRGL	set	411
  2454  019E                     _TX1STA	set	414
  2455  019D                     _RC1STA	set	413
  2456  019F                     _BAUD1CON	set	415
  2457  0219                     _SSP2BUF	set	537
  2458  021C                     _SSP2STATbits	set	540
  2459  021D                     _SSP2CON1	set	541
  2460  021C                     _SSP2STAT	set	540
  2461  0211                     _SSPBUF	set	529
  2462  0216                     _SSP1CON2bits	set	534
  2463  0214                     _SSP1STAT	set	532
  2464  0212                     _SSP1ADD	set	530
  2465  0216                     _SSP1CON2	set	534
  2466  0215                     _SSP1CON1	set	533
  2467  020E                     _WPUC	set	526
  2468  020C                     _WPUA	set	524
  2469  028E                     _ODCONC	set	654
  2470  028C                     _ODCONA	set	652
  2471  0916                     _PMD5	set	2326
  2472  0915                     _PMD4	set	2325
  2473  0914                     _PMD3	set	2324
  2474  0913                     _PMD2	set	2323
  2475  0912                     _PMD1	set	2322
  2476  0911                     _PMD0	set	2321
  2477  091E                     _OSCTUNE	set	2334
  2478  091F                     _OSCFRQ	set	2335
  2479  091D                     _OSCEN	set	2333
  2480  091B                     _OSCCON3	set	2331
  2481  0919                     _OSCCON1	set	2329
  2482  0E1E                     _SSP2DATPPSbits	set	3614
  2483  0E1D                     _SSP2CLKPPSbits	set	3613
  2484  0E24                     _RXPPSbits	set	3620
  2485  0E20                     _SSP1CLKPPSbits	set	3616
  2486  0E21                     _SSP1DATPPSbits	set	3617
  2487  0EA5                     _RC5PPSbits	set	3749
  2488  0E95                     _RA5PPSbits	set	3733
  2489  0EA2                     _RC2PPSbits	set	3746
  2490  0EA0                     _RC0PPSbits	set	3744
  2491  0EA4                     _RC4PPSbits	set	3748
  2492  0E94                     _RA4PPSbits	set	3732
  2493                           
  2494                           ; #config settings
  2495  0000                     
  2496                           	psect	cinit
  2497  07F6                     start_initialization:	
  2498  07F6                     __initialization:	
  2499                           
  2500                           ; Clear objects allocated to BANK1
  2501  07F6  30A0               	movlw	low __pbssBANK1
  2502  07F7  0084               	movwf	4
  2503  07F8  3000               	movlw	high __pbssBANK1
  2504  07F9  0085               	movwf	5
  2505  07FA  303A               	movlw	58
  2506  07FB  3189  2149         	fcall	clear_ram0
  2507  07FD                     end_of_initialization:	
  2508                           ;End of C runtime variable initialization code
  2509                           
  2510  07FD                     __end_of__initialization:	
  2511  07FD  0020               	movlb	0
  2512  07FE  318C  2CDF         	ljmp	_main	;jump to C main() function
  2513                           
  2514                           	psect	bssBANK1
  2515  00A0                     __pbssBANK1:	
  2516  00A0                     _eusartRxBuffer:	
  2517  00A0                     	ds	8
  2518  00A8                     _eusartTxBuffer:	
  2519  00A8                     	ds	8
  2520  00B0                     _t_fine:	
  2521  00B0                     	ds	4
  2522  00B4                     _eusartRxCount:	
  2523  00B4                     	ds	1
  2524  00B5                     _eusartRxTail:	
  2525  00B5                     	ds	1
  2526  00B6                     _eusartRxHead:	
  2527  00B6                     	ds	1
  2528  00B7                     _eusartTxTail:	
  2529  00B7                     	ds	1
  2530  00B8                     _eusartTxHead:	
  2531  00B8                     	ds	1
  2532  00B9                     _cal_data:	
  2533  00B9                     	ds	33
  2534                           
  2535                           	psect	clrtext
  2536  0949                     clear_ram0:	
  2537                           ;	Called with FSR0 containing the base address, and
  2538                           ;	WREG with the size to clear
  2539                           
  2540  0949  0064               	clrwdt	;clear the watchdog before getting into this loop
  2541  094A                     clrloop0:	
  2542  094A  0180               	clrf	0	;clear RAM location pointed to by FSR
  2543  094B  3101               	addfsr 0,1
  2544  094C  0B89               	decfsz	9,f	;Have we reached the end of clearing yet?
  2545  094D  294A               	goto	clrloop0	;have we reached the end yet?
  2546  094E  3400               	retlw	0	;all done for this memory range, return
  2547                           
  2548                           	psect	cstackCOMMON
  2549  0070                     __pcstackCOMMON:	
  2550  0070                     ?_PMD_Initialize:	
  2551  0070                     ??_PMD_Initialize:	
  2552                           ; 1 bytes @ 0x0
  2553                           
  2554  0070                     ?_PIN_MANAGER_Initialize:	
  2555                           ; 1 bytes @ 0x0
  2556                           
  2557  0070                     ??_PIN_MANAGER_Initialize:	
  2558                           ; 1 bytes @ 0x0
  2559                           
  2560  0070                     ?_OSCILLATOR_Initialize:	
  2561                           ; 1 bytes @ 0x0
  2562                           
  2563  0070                     ??_OSCILLATOR_Initialize:	
  2564                           ; 1 bytes @ 0x0
  2565                           
  2566  0070                     ?_WDT_Initialize:	
  2567                           ; 1 bytes @ 0x0
  2568                           
  2569  0070                     ??_WDT_Initialize:	
  2570                           ; 1 bytes @ 0x0
  2571                           
  2572  0070                     ?_spiInit:	
  2573                           ; 1 bytes @ 0x0
  2574                           
  2575  0070                     ?_readSensorCoefficients:	
  2576                           ; 1 bytes @ 0x0
  2577                           
  2578  0070                     ?_BME280_goForceMode:	
  2579                           ; 1 bytes @ 0x0
  2580                           
  2581  0070                     ?_spiWrite:	
  2582                           ; 1 bytes @ 0x0
  2583                           
  2584  0070                     ??_spiWrite:	
  2585                           ; 1 bytes @ 0x0
  2586                           
  2587  0070                     ?_EUSART_Initialize:	
  2588                           ; 1 bytes @ 0x0
  2589                           
  2590  0070                     ??_EUSART_Initialize:	
  2591                           ; 1 bytes @ 0x0
  2592                           
  2593  0070                     ?_SYSTEM_Initialize:	
  2594                           ; 1 bytes @ 0x0
  2595                           
  2596  0070                     ?_main:	
  2597                           ; 1 bytes @ 0x0
  2598                           
  2599  0070                     ?_I2C_Master_Wait:	
  2600                           ; 1 bytes @ 0x0
  2601                           
  2602  0070                     ??_I2C_Master_Wait:	
  2603                           ; 1 bytes @ 0x0
  2604                           
  2605  0070                     ?_I2C_Master_Start:	
  2606                           ; 1 bytes @ 0x0
  2607                           
  2608  0070                     ??_I2C_Master_Start:	
  2609                           ; 1 bytes @ 0x0
  2610                           
  2611  0070                     ?_I2C_Master_Stop:	
  2612                           ; 1 bytes @ 0x0
  2613                           
  2614  0070                     ??_I2C_Master_Stop:	
  2615                           ; 1 bytes @ 0x0
  2616                           
  2617  0070                     ?_I2C_Master_Write:	
  2618                           ; 1 bytes @ 0x0
  2619                           
  2620  0070                     ?_BH1750_Write:	
  2621                           ; 1 bytes @ 0x0
  2622                           
  2623  0070                     ?_BME280_read8:	
  2624                           ; 1 bytes @ 0x0
  2625                           
  2626  0070                     ?_I2C_Master_Read:	
  2627                           ; 1 bytes @ 0x0
  2628                           
  2629  0070                     ?___ftpack:	
  2630                           ; 2 bytes @ 0x0
  2631                           
  2632  0070                     ?___lmul:	
  2633                           ; 3 bytes @ 0x0
  2634                           
  2635  0070                     ?___lldiv:	
  2636                           ; 4 bytes @ 0x0
  2637                           
  2638  0070                     spiInit@sDataSample:	
  2639                           ; 4 bytes @ 0x0
  2640                           
  2641  0070                     spiWrite@dat:	
  2642                           ; 1 bytes @ 0x0
  2643                           
  2644  0070                     I2C_Master_Write@d:	
  2645                           ; 1 bytes @ 0x0
  2646                           
  2647  0070                     I2C_Master_Read@a:	
  2648                           ; 2 bytes @ 0x0
  2649                           
  2650  0070                     ___ftpack@arg:	
  2651                           ; 2 bytes @ 0x0
  2652                           
  2653  0070                     ___lmul@multiplier:	
  2654                           ; 3 bytes @ 0x0
  2655                           
  2656  0070                     ___lldiv@divisor:	
  2657                           ; 4 bytes @ 0x0
  2658                           
  2659                           
  2660                           ; 4 bytes @ 0x0
  2661  0070                     	ds	1
  2662  0071                     ??_SYSTEM_Initialize:	
  2663  0071                     spiInit@sClockIdle:	
  2664                           ; 1 bytes @ 0x1
  2665                           
  2666                           
  2667                           ; 1 bytes @ 0x1
  2668  0071                     	ds	1
  2669  0072                     ?_BME280_write8:	
  2670  0072                     ??_I2C_Master_Write:	
  2671                           ; 1 bytes @ 0x2
  2672                           
  2673  0072                     ??_I2C_Master_Read:	
  2674                           ; 1 bytes @ 0x2
  2675                           
  2676  0072                     ??_BH1750_Write:	
  2677                           ; 1 bytes @ 0x2
  2678                           
  2679  0072                     BME280_write8@value:	
  2680                           ; 1 bytes @ 0x2
  2681                           
  2682  0072                     spiInit@sTransmitEdge:	
  2683                           ; 1 bytes @ 0x2
  2684                           
  2685                           
  2686                           ; 1 bytes @ 0x2
  2687  0072                     	ds	1
  2688  0073                     ??_spiInit:	
  2689  0073                     ??_BME280_write8:	
  2690                           ; 1 bytes @ 0x3
  2691                           
  2692  0073                     spiInit@sType:	
  2693                           ; 1 bytes @ 0x3
  2694                           
  2695  0073                     ___ftpack@exp:	
  2696                           ; 1 bytes @ 0x3
  2697                           
  2698                           
  2699                           ; 1 bytes @ 0x3
  2700  0073                     	ds	1
  2701  0074                     BH1750_Write@data1:	
  2702  0074                     ___ftpack@sign:	
  2703                           ; 1 bytes @ 0x4
  2704                           
  2705  0074                     I2C_Master_Read@temp:	
  2706                           ; 1 bytes @ 0x4
  2707                           
  2708  0074                     ___lmul@multiplicand:	
  2709                           ; 2 bytes @ 0x4
  2710                           
  2711  0074                     ___lldiv@dividend:	
  2712                           ; 4 bytes @ 0x4
  2713                           
  2714                           
  2715                           ; 4 bytes @ 0x4
  2716  0074                     	ds	1
  2717  0075                     ??___ftpack:	
  2718  0075                     BME280_write8@reg:	
  2719                           ; 1 bytes @ 0x5
  2720                           
  2721                           
  2722                           ; 1 bytes @ 0x5
  2723  0075                     	ds	1
  2724  0076                     ??_BME280_read8:	
  2725  0076                     ?_BH1750_Read:	
  2726                           ; 1 bytes @ 0x6
  2727                           
  2728  0076                     ?_BME280_read16:	
  2729                           ; 2 bytes @ 0x6
  2730                           
  2731  0076                     ?_BME280_read24:	
  2732                           ; 2 bytes @ 0x6
  2733                           
  2734                           
  2735                           ; 4 bytes @ 0x6
  2736  0076                     	ds	2
  2737  0078                     ??_BH1750_Read:	
  2738  0078                     ??_BME280_read16:	
  2739                           ; 1 bytes @ 0x8
  2740                           
  2741  0078                     ??___lmul:	
  2742                           ; 1 bytes @ 0x8
  2743                           
  2744  0078                     ??___lldiv:	
  2745                           ; 1 bytes @ 0x8
  2746                           
  2747  0078                     ?___lltoft:	
  2748                           ; 1 bytes @ 0x8
  2749                           
  2750  0078                     ?___lwtoft:	
  2751                           ; 3 bytes @ 0x8
  2752                           
  2753  0078                     BME280_read8@reg:	
  2754                           ; 3 bytes @ 0x8
  2755                           
  2756  0078                     BH1750_Read@res:	
  2757                           ; 1 bytes @ 0x8
  2758                           
  2759  0078                     ___lwtoft@c:	
  2760                           ; 2 bytes @ 0x8
  2761                           
  2762  0078                     ___lmul@product:	
  2763                           ; 2 bytes @ 0x8
  2764                           
  2765  0078                     ___lltoft@c:	
  2766                           ; 4 bytes @ 0x8
  2767                           
  2768                           
  2769                           ; 4 bytes @ 0x8
  2770  0078                     	ds	1
  2771  0079                     BME280_read8@temp:	
  2772  0079                     ___lldiv@quotient:	
  2773                           ; 1 bytes @ 0x9
  2774                           
  2775                           
  2776                           ; 4 bytes @ 0x9
  2777  0079                     	ds	1
  2778  007A                     ??_BME280_goForceMode:	
  2779  007A                     ??_BME280_read24:	
  2780                           ; 1 bytes @ 0xA
  2781                           
  2782  007A                     BME280_read16@reg:	
  2783                           ; 1 bytes @ 0xA
  2784                           
  2785                           
  2786                           ; 1 bytes @ 0xA
  2787  007A                     	ds	1
  2788  007B                     ??___lwtoft:	
  2789  007B                     BME280_goForceMode@mode:	
  2790                           ; 1 bytes @ 0xB
  2791                           
  2792  007B                     BME280_read16@temp:	
  2793                           ; 1 bytes @ 0xB
  2794                           
  2795                           
  2796                           ; 2 bytes @ 0xB
  2797  007B                     	ds	1
  2798  007C                     ??___altoft:	
  2799  007C                     ??___lltoft:	
  2800                           ; 1 bytes @ 0xC
  2801                           
  2802                           
  2803                           ; 1 bytes @ 0xC
  2804  007C                     	ds	1
  2805  007D                     ??_BME280_readS16_LE:	
  2806  007D                     BME280_readS16_LE@reg:	
  2807                           ; 1 bytes @ 0xD
  2808                           
  2809  007D                     ___lldiv@counter:	
  2810                           ; 1 bytes @ 0xD
  2811                           
  2812  007D                     ___lltoft@exp:	
  2813                           ; 1 bytes @ 0xD
  2814                           
  2815                           
  2816                           ; 1 bytes @ 0xD
  2817  007D                     	ds	1
  2818                           
  2819                           	psect	cstackBANK0
  2820  0020                     __pcstackBANK0:	
  2821  0020                     ?_I2C_Master_Init:	
  2822  0020                     ?_BME280_read16_LE:	
  2823                           ; 1 bytes @ 0x0
  2824                           
  2825  0020                     ?___altoft:	
  2826                           ; 2 bytes @ 0x0
  2827                           
  2828  0020                     ?___ftdiv:	
  2829                           ; 3 bytes @ 0x0
  2830                           
  2831  0020                     BME280_read24@reg:	
  2832                           ; 3 bytes @ 0x0
  2833                           
  2834  0020                     ___ftdiv@f2:	
  2835                           ; 1 bytes @ 0x0
  2836                           
  2837  0020                     I2C_Master_Init@c:	
  2838                           ; 3 bytes @ 0x0
  2839                           
  2840  0020                     ___altoft@c:	
  2841                           ; 4 bytes @ 0x0
  2842                           
  2843                           
  2844                           ; 4 bytes @ 0x0
  2845  0020                     	ds	1
  2846  0021                     BME280_read24@temp:	
  2847                           
  2848                           ; 4 bytes @ 0x1
  2849  0021                     	ds	1
  2850  0022                     ??_BME280_read16_LE:	
  2851                           
  2852                           ; 1 bytes @ 0x2
  2853  0022                     	ds	1
  2854  0023                     ___ftdiv@f1:	
  2855                           
  2856                           ; 3 bytes @ 0x3
  2857  0023                     	ds	1
  2858  0024                     ??_I2C_Master_Init:	
  2859  0024                     ___altoft@exp:	
  2860                           ; 1 bytes @ 0x4
  2861                           
  2862                           
  2863                           ; 1 bytes @ 0x4
  2864  0024                     	ds	1
  2865  0025                     ___altoft@sign:	
  2866                           
  2867                           ; 1 bytes @ 0x5
  2868  0025                     	ds	1
  2869  0026                     ??___ftdiv:	
  2870  0026                     BME280_read16_LE@reg:	
  2871                           ; 1 bytes @ 0x6
  2872                           
  2873                           
  2874                           ; 1 bytes @ 0x6
  2875  0026                     	ds	1
  2876  0027                     BME280_read16_LE@temp:	
  2877                           
  2878                           ; 2 bytes @ 0x7
  2879  0027                     	ds	2
  2880  0029                     ?_BME280_readS16_LE:	
  2881                           
  2882                           ; 2 bytes @ 0x9
  2883  0029                     	ds	1
  2884  002A                     ___ftdiv@cntr:	
  2885                           
  2886                           ; 1 bytes @ 0xA
  2887  002A                     	ds	1
  2888  002B                     ___ftdiv@f3:	
  2889                           
  2890                           ; 3 bytes @ 0xB
  2891  002B                     	ds	1
  2892  002C                     ??_readSensorCoefficients:	
  2893                           
  2894                           ; 1 bytes @ 0xC
  2895  002C                     	ds	2
  2896  002E                     ___ftdiv@exp:	
  2897                           
  2898                           ; 1 bytes @ 0xE
  2899  002E                     	ds	1
  2900  002F                     ___ftdiv@sign:	
  2901                           
  2902                           ; 1 bytes @ 0xF
  2903  002F                     	ds	1
  2904  0030                     ?_BME280_readTemperature:	
  2905  0030                     ?_BME280_readHumidity:	
  2906                           ; 3 bytes @ 0x10
  2907                           
  2908  0030                     ?_BME280_readPressure:	
  2909                           ; 3 bytes @ 0x10
  2910                           
  2911  0030                     ?___fttol:	
  2912                           ; 3 bytes @ 0x10
  2913                           
  2914  0030                     ___fttol@f1:	
  2915                           ; 4 bytes @ 0x10
  2916                           
  2917                           
  2918                           ; 3 bytes @ 0x10
  2919  0030                     	ds	3
  2920  0033                     ??_BME280_readTemperature:	
  2921  0033                     ??_BME280_readHumidity:	
  2922                           ; 1 bytes @ 0x13
  2923                           
  2924  0033                     ??_BME280_readPressure:	
  2925                           ; 1 bytes @ 0x13
  2926                           
  2927                           
  2928                           ; 1 bytes @ 0x13
  2929  0033                     	ds	1
  2930  0034                     ??___fttol:	
  2931                           
  2932                           ; 1 bytes @ 0x14
  2933  0034                     	ds	4
  2934  0038                     ___fttol@sign1:	
  2935                           
  2936                           ; 1 bytes @ 0x18
  2937  0038                     	ds	1
  2938  0039                     ___fttol@lval:	
  2939                           
  2940                           ; 4 bytes @ 0x19
  2941  0039                     	ds	4
  2942  003D                     ___fttol@exp1:	
  2943                           
  2944                           ; 1 bytes @ 0x1D
  2945  003D                     	ds	1
  2946  003E                     ?_LireLux:	
  2947                           
  2948                           ; 2 bytes @ 0x1E
  2949  003E                     	ds	2
  2950  0040                     ??_LireLux:	
  2951                           
  2952                           ; 1 bytes @ 0x20
  2953  0040                     	ds	1
  2954  0041                     LireLux@resolution:	
  2955                           
  2956                           ; 1 bytes @ 0x21
  2957  0041                     	ds	1
  2958  0042                     LireLux@lux:	
  2959                           
  2960                           ; 2 bytes @ 0x22
  2961  0042                     	ds	2
  2962  0044                     BME280_readHumidity@adc_H:	
  2963  0044                     BME280_readPressure@adc_P:	
  2964                           ; 4 bytes @ 0x24
  2965                           
  2966                           
  2967                           ; 4 bytes @ 0x24
  2968  0044                     	ds	4
  2969  0048                     _BME280_readHumidity$1240:	
  2970  0048                     _BME280_readPressure$1244:	
  2971                           ; 4 bytes @ 0x28
  2972                           
  2973                           
  2974                           ; 4 bytes @ 0x28
  2975  0048                     	ds	2
  2976  004A                     BME280_readTemperature@var1:	
  2977                           
  2978                           ; 4 bytes @ 0x2A
  2979  004A                     	ds	2
  2980  004C                     BME280_readPressure@var2:	
  2981  004C                     _BME280_readHumidity$1241:	
  2982                           ; 4 bytes @ 0x2C
  2983                           
  2984                           
  2985                           ; 4 bytes @ 0x2C
  2986  004C                     	ds	2
  2987  004E                     BME280_readTemperature@var2:	
  2988                           
  2989                           ; 4 bytes @ 0x2E
  2990  004E                     	ds	2
  2991  0050                     BME280_readPressure@p:	
  2992  0050                     _BME280_readHumidity$1242:	
  2993                           ; 4 bytes @ 0x30
  2994                           
  2995                           
  2996                           ; 4 bytes @ 0x30
  2997  0050                     	ds	2
  2998  0052                     _BME280_readTemperature$1238:	
  2999                           
  3000                           ; 4 bytes @ 0x32
  3001  0052                     	ds	2
  3002  0054                     BME280_readPressure@var1:	
  3003  0054                     _BME280_readHumidity$1243:	
  3004                           ; 4 bytes @ 0x34
  3005                           
  3006                           
  3007                           ; 4 bytes @ 0x34
  3008  0054                     	ds	2
  3009  0056                     BME280_readTemperature@temperature:	
  3010                           
  3011                           ; 3 bytes @ 0x36
  3012  0056                     	ds	2
  3013  0058                     BME280_readHumidity@h:	
  3014                           
  3015                           ; 3 bytes @ 0x38
  3016  0058                     	ds	1
  3017  0059                     BME280_readTemperature@adc_T:	
  3018                           
  3019                           ; 4 bytes @ 0x39
  3020  0059                     	ds	2
  3021  005B                     _BME280_readHumidity$1239:	
  3022                           
  3023                           ; 4 bytes @ 0x3B
  3024  005B                     	ds	4
  3025  005F                     BME280_readHumidity@v_x1_u32r:	
  3026                           
  3027                           ; 4 bytes @ 0x3F
  3028  005F                     	ds	4
  3029  0063                     ??_main:	
  3030                           
  3031                           ; 1 bytes @ 0x43
  3032  0063                     	ds	2
  3033  0065                     main@temperature:	
  3034                           
  3035                           ; 3 bytes @ 0x45
  3036  0065                     	ds	3
  3037  0068                     main@humidity:	
  3038                           
  3039                           ; 3 bytes @ 0x48
  3040  0068                     	ds	3
  3041  006B                     main@pressure:	
  3042                           
  3043                           ; 3 bytes @ 0x4B
  3044  006B                     	ds	3
  3045  006E                     main@lux:	
  3046                           
  3047                           ; 2 bytes @ 0x4E
  3048  006E                     	ds	2
  3049                           
  3050                           	psect	maintext
  3051  0CDF                     __pmaintext:	
  3052 ;;
  3053 ;;Main: autosize = 0, tempsize = 2, incstack = 0, save=0
  3054 ;;
  3055 ;; *************** function _main *****************
  3056 ;; Defined at:
  3057 ;;		line 41 in file "main.c"
  3058 ;; Parameters:    Size  Location     Type
  3059 ;;		None
  3060 ;; Auto vars:     Size  Location     Type
  3061 ;;  pressure        3   75[BANK0 ] float 
  3062 ;;  humidity        3   72[BANK0 ] float 
  3063 ;;  temperature     3   69[BANK0 ] float 
  3064 ;;  lux             2   78[BANK0 ] unsigned int 
  3065 ;; Return value:  Size  Location     Type
  3066 ;;                  1    wreg      void 
  3067 ;; Registers used:
  3068 ;;		wreg, fsr0l, fsr0h, status,2, status,0, pclath, cstack
  3069 ;; Tracked objects:
  3070 ;;		On entry : B1F/0
  3071 ;;		On exit  : 0/0
  3072 ;;		Unchanged: 0/0
  3073 ;; Data sizes:     COMMON   BANK0   BANK1   BANK2   BANK3   BANK4   BANK5   BANK6   BANK7   BANK8   BANK9  BANK10  BANK1
      +1  BANK12
  3074 ;;      Params:         0       0       0       0       0       0       0       0       0       0       0       0       
      +0       0
  3075 ;;      Locals:         0      11       0       0       0       0       0       0       0       0       0       0       
      +0       0
  3076 ;;      Temps:          0       2       0       0       0       0       0       0       0       0       0       0       
      +0       0
  3077 ;;      Totals:         0      13       0       0       0       0       0       0       0       0       0       0       
      +0       0
  3078 ;;Total ram usage:       13 bytes
  3079 ;; Hardware stack levels required when called:    6
  3080 ;; This function calls:
  3081 ;;		_BME280_goForceMode
  3082 ;;		_BME280_readHumidity
  3083 ;;		_BME280_readPressure
  3084 ;;		_BME280_readTemperature
  3085 ;;		_BME280_write8
  3086 ;;		_I2C_Master_Init
  3087 ;;		_LireLux
  3088 ;;		_SYSTEM_Initialize
  3089 ;;		_readSensorCoefficients
  3090 ;;		_spiInit
  3091 ;;		_spiWrite
  3092 ;; This function is called by:
  3093 ;;		Startup code after reset
  3094 ;; This function uses a non-reentrant model
  3095 ;;
  3096                           
  3097                           
  3098                           ;psect for function _main
  3099  0CDF                     _main:	
  3100                           
  3101                           ;main.c: 44: SYSTEM_Initialize();
  3102                           
  3103                           ;incstack = 0
  3104                           ; Regs used in _main: [wreg-fsr0h+status,2+status,0+pclath+cstack]
  3105  0CDF  3189  2172  318C   	fcall	_SYSTEM_Initialize
  3106                           
  3107                           ;main.c: 45: I2C_Master_Init(100000);
  3108  0CE2  3000               	movlw	0
  3109  0CE3  0020               	movlb	0	; select bank0
  3110  0CE4  00A3               	movwf	I2C_Master_Init@c+3
  3111  0CE5  3001               	movlw	1
  3112  0CE6  00A2               	movwf	I2C_Master_Init@c+2
  3113  0CE7  3086               	movlw	134
  3114  0CE8  00A1               	movwf	I2C_Master_Init@c+1
  3115  0CE9  30A0               	movlw	160
  3116  0CEA  00A0               	movwf	I2C_Master_Init@c
  3117  0CEB  318A  22DE  318C   	fcall	_I2C_Master_Init
  3118                           
  3119                           ;main.c: 46: spiInit(SPI_MASTER_OSC_DIV4,SPI_DATA_SAMPLE_MIDDLE,SPI_CLOCK_IDLE_LOW,SPI_I
      +                          DLE_2_ACTIVE);
  3120  0CEE  01F0               	clrf	spiInit@sDataSample
  3121  0CEF  01F1               	clrf	spiInit@sClockIdle
  3122  0CF0  01F2               	clrf	spiInit@sTransmitEdge
  3123  0CF1  3020               	movlw	32
  3124  0CF2  3189  21A9  318C   	fcall	_spiInit
  3125                           
  3126                           ;main.c: 47: uint16_t lux ;
  3127                           ;main.c: 48: float temperature ;
  3128                           ;main.c: 49: float humidity ;
  3129                           ;main.c: 50: float pressure ;
  3130                           ;main.c: 51: BME280_write8(0xF2, 0x01);
  3131  0CF5  01F2               	clrf	BME280_write8@value
  3132  0CF6  0AF2               	incf	BME280_write8@value,f
  3133  0CF7  30F2               	movlw	242
  3134  0CF8  318A  2256  318C   	fcall	_BME280_write8
  3135                           
  3136                           ;main.c: 52: BME280_write8(0xF4, 0b00100100);
  3137  0CFB  3024               	movlw	36
  3138  0CFC  0020               	movlb	0	; select bank0
  3139  0CFD  00E3               	movwf	??_main
  3140  0CFE  0863               	movf	??_main,w
  3141  0CFF  00F2               	movwf	BME280_write8@value
  3142  0D00  30F4               	movlw	244
  3143  0D01  318A  2256  318C   	fcall	_BME280_write8
  3144                           
  3145                           ;main.c: 53: readSensorCoefficients();
  3146  0D04  318F  2702  318C   	fcall	_readSensorCoefficients
  3147  0D07                     l1897:	
  3148                           ;main.c: 56: while(1)
  3149                           
  3150                           
  3151                           ;main.c: 57: {
  3152                           ;main.c: 58: _delay((unsigned long)((1000)*(2000000/4000.0)));
  3153  0D07  3003               	movlw	3
  3154  0D08  0020               	movlb	0	; select bank0
  3155  0D09  00E4               	movwf	??_main+1
  3156  0D0A  308A               	movlw	138
  3157  0D0B  00E3               	movwf	??_main
  3158  0D0C  3055               	movlw	85
  3159  0D0D                     u2167:	
  3160  0D0D  0B89               	decfsz	9,f
  3161  0D0E  2D0D               	goto	u2167
  3162  0D0F  0BE3               	decfsz	??_main,f
  3163  0D10  2D0D               	goto	u2167
  3164  0D11  0BE4               	decfsz	??_main+1,f
  3165  0D12  2D0D               	goto	u2167
  3166  0D13  3200               	nop2
  3167                           
  3168                           ;main.c: 59: BME280_goForceMode();
  3169  0D14  3189  2194  318C   	fcall	_BME280_goForceMode
  3170                           
  3171                           ;main.c: 60: _delay((unsigned long)((100)*(2000000/4000.0)));
  3172  0D17  3041               	movlw	65
  3173  0D18  0020               	movlb	0	; select bank0
  3174  0D19  00E3               	movwf	??_main
  3175  0D1A  30EE               	movlw	238
  3176  0D1B                     u2177:	
  3177  0D1B  0B89               	decfsz	9,f
  3178  0D1C  2D1B               	goto	u2177
  3179  0D1D  0BE3               	decfsz	??_main,f
  3180  0D1E  2D1B               	goto	u2177
  3181  0D1F  0000               	nop
  3182                           
  3183                           ;main.c: 61: lux = LireLux(1);
  3184  0D20  3001               	movlw	1
  3185  0D21  318C  2419  318C   	fcall	_LireLux
  3186  0D24  0020               	movlb	0	; select bank0
  3187  0D25  083F               	movf	?_LireLux+1,w
  3188  0D26  00EF               	movwf	main@lux+1
  3189  0D27  083E               	movf	?_LireLux,w
  3190  0D28  00EE               	movwf	main@lux
  3191                           
  3192                           ;main.c: 62: temperature = BME280_readTemperature();
  3193  0D29  3180  2058  318C   	fcall	_BME280_readTemperature
  3194  0D2C  0020               	movlb	0	; select bank0
  3195  0D2D  0830               	movf	?_BME280_readTemperature,w
  3196  0D2E  00E5               	movwf	main@temperature
  3197  0D2F  0831               	movf	?_BME280_readTemperature+1,w
  3198  0D30  00E6               	movwf	main@temperature+1
  3199  0D31  0832               	movf	?_BME280_readTemperature+2,w
  3200  0D32  00E7               	movwf	main@temperature+2
  3201                           
  3202                           ;main.c: 63: humidity = BME280_readHumidity();
  3203  0D33  3181  21FA  318C   	fcall	_BME280_readHumidity
  3204  0D36  0020               	movlb	0	; select bank0
  3205  0D37  0830               	movf	?_BME280_readHumidity,w
  3206  0D38  00E8               	movwf	main@humidity
  3207  0D39  0831               	movf	?_BME280_readHumidity+1,w
  3208  0D3A  00E9               	movwf	main@humidity+1
  3209  0D3B  0832               	movf	?_BME280_readHumidity+2,w
  3210  0D3C  00EA               	movwf	main@humidity+2
  3211                           
  3212                           ;main.c: 64: pressure = BME280_readPressure();
  3213  0D3D  3184  2452  318C   	fcall	_BME280_readPressure
  3214  0D40  0020               	movlb	0	; select bank0
  3215  0D41  0830               	movf	?_BME280_readPressure,w
  3216  0D42  00EB               	movwf	main@pressure
  3217  0D43  0831               	movf	?_BME280_readPressure+1,w
  3218  0D44  00EC               	movwf	main@pressure+1
  3219  0D45  0832               	movf	?_BME280_readPressure+2,w
  3220  0D46  00ED               	movwf	main@pressure+2
  3221                           
  3222                           ;main.c: 65: spiWrite(0xAA);
  3223  0D47  30AA               	movlw	170
  3224  0D48  3189  213E  318C   	fcall	_spiWrite
  3225  0D4B  2D07               	goto	l1897
  3226  0D4C                     __end_of_main:	
  3227                           
  3228                           	psect	text1
  3229  093E                     __ptext1:	
  3230 ;; *************** function _spiWrite *****************
  3231 ;; Defined at:
  3232 ;;		line 30 in file "SPI2.c"
  3233 ;; Parameters:    Size  Location     Type
  3234 ;;  dat             1    wreg     unsigned char 
  3235 ;; Auto vars:     Size  Location     Type
  3236 ;;  dat             1    0[COMMON] unsigned char 
  3237 ;; Return value:  Size  Location     Type
  3238 ;;                  1    wreg      void 
  3239 ;; Registers used:
  3240 ;;		wreg
  3241 ;; Tracked objects:
  3242 ;;		On entry : 0/0
  3243 ;;		On exit  : 0/0
  3244 ;;		Unchanged: 0/0
  3245 ;; Data sizes:     COMMON   BANK0   BANK1   BANK2   BANK3   BANK4   BANK5   BANK6   BANK7   BANK8   BANK9  BANK10  BANK1
      +1  BANK12
  3246 ;;      Params:         0       0       0       0       0       0       0       0       0       0       0       0       
      +0       0
  3247 ;;      Locals:         1       0       0       0       0       0       0       0       0       0       0       0       
      +0       0
  3248 ;;      Temps:          0       0       0       0       0       0       0       0       0       0       0       0       
      +0       0
  3249 ;;      Totals:         1       0       0       0       0       0       0       0       0       0       0       0       
      +0       0
  3250 ;;Total ram usage:        1 bytes
  3251 ;; Hardware stack levels used:    1
  3252 ;; This function calls:
  3253 ;;		Nothing
  3254 ;; This function is called by:
  3255 ;;		_main
  3256 ;; This function uses a non-reentrant model
  3257 ;;
  3258                           
  3259                           
  3260                           ;psect for function _spiWrite
  3261  093E                     _spiWrite:	
  3262                           
  3263                           ;incstack = 0
  3264                           ; Regs used in _spiWrite: [wreg]
  3265                           ;spiWrite@dat stored from wreg
  3266  093E  00F0               	movwf	spiWrite@dat
  3267                           
  3268                           ;SPI2.c: 32: SSP2BUF = dat;
  3269  093F  0870               	movf	spiWrite@dat,w
  3270  0940  0024               	movlb	4	; select bank4
  3271  0941  0099               	movwf	25	;volatile
  3272  0942  0008               	return
  3273  0943                     __end_of_spiWrite:	
  3274                           
  3275                           	psect	text2
  3276  09A9                     __ptext2:	
  3277 ;; *************** function _spiInit *****************
  3278 ;; Defined at:
  3279 ;;		line 7 in file "SPI2.c"
  3280 ;; Parameters:    Size  Location     Type
  3281 ;;  sType           1    wreg     enum E7503
  3282 ;;  sDataSample     1    0[COMMON] enum E7511
  3283 ;;  sClockIdle      1    1[COMMON] enum E7515
  3284 ;;  sTransmitEdg    1    2[COMMON] enum E7519
  3285 ;; Auto vars:     Size  Location     Type
  3286 ;;  sType           1    3[COMMON] enum E7503
  3287 ;; Return value:  Size  Location     Type
  3288 ;;                  1    wreg      void 
  3289 ;; Registers used:
  3290 ;;		wreg, status,2, status,0
  3291 ;; Tracked objects:
  3292 ;;		On entry : 0/0
  3293 ;;		On exit  : 0/0
  3294 ;;		Unchanged: 0/0
  3295 ;; Data sizes:     COMMON   BANK0   BANK1   BANK2   BANK3   BANK4   BANK5   BANK6   BANK7   BANK8   BANK9  BANK10  BANK1
      +1  BANK12
  3296 ;;      Params:         3       0       0       0       0       0       0       0       0       0       0       0       
      +0       0
  3297 ;;      Locals:         1       0       0       0       0       0       0       0       0       0       0       0       
      +0       0
  3298 ;;      Temps:          0       0       0       0       0       0       0       0       0       0       0       0       
      +0       0
  3299 ;;      Totals:         4       0       0       0       0       0       0       0       0       0       0       0       
      +0       0
  3300 ;;Total ram usage:        4 bytes
  3301 ;; Hardware stack levels used:    1
  3302 ;; This function calls:
  3303 ;;		Nothing
  3304 ;; This function is called by:
  3305 ;;		_main
  3306 ;; This function uses a non-reentrant model
  3307 ;;
  3308                           
  3309                           
  3310                           ;psect for function _spiInit
  3311  09A9                     _spiInit:	
  3312                           
  3313                           ;incstack = 0
  3314                           ; Regs used in _spiInit: [wreg+status,2+status,0]
  3315                           ;spiInit@sType stored from wreg
  3316  09A9  00F3               	movwf	spiInit@sType
  3317                           
  3318                           ;SPI2.c: 9: TRISCbits.TRISC2 = 0;
  3319  09AA  0021               	movlb	1	; select bank1
  3320  09AB  110E               	bcf	14,2	;volatile
  3321                           
  3322                           ;SPI2.c: 10: TRISCbits.TRISC1 = 1;
  3323  09AC  148E               	bsf	14,1	;volatile
  3324                           
  3325                           ;SPI2.c: 11: if(sType & 0b00000100)
  3326  09AD  1D73               	btfss	spiInit@sType,2
  3327  09AE  29B5               	goto	l1775
  3328                           
  3329                           ;SPI2.c: 12: {
  3330                           ;SPI2.c: 13: SSP2STAT = sTransmitEdge;
  3331  09AF  0872               	movf	spiInit@sTransmitEdge,w
  3332  09B0  0024               	movlb	4	; select bank4
  3333  09B1  009C               	movwf	28	;volatile
  3334                           
  3335                           ;SPI2.c: 14: TRISCbits.TRISC0 = 1;
  3336  09B2  0021               	movlb	1	; select bank1
  3337  09B3  140E               	bsf	14,0	;volatile
  3338                           
  3339                           ;SPI2.c: 15: }
  3340  09B4  29BB               	goto	l321
  3341  09B5                     l1775:	
  3342                           
  3343                           ;SPI2.c: 16: else
  3344                           ;SPI2.c: 17: {
  3345                           ;SPI2.c: 18: SSP2STAT = sDataSample | sTransmitEdge;
  3346  09B5  0870               	movf	spiInit@sDataSample,w
  3347  09B6  0472               	iorwf	spiInit@sTransmitEdge,w
  3348  09B7  0024               	movlb	4	; select bank4
  3349  09B8  009C               	movwf	28	;volatile
  3350                           
  3351                           ;SPI2.c: 19: TRISCbits.TRISC0 = 0;
  3352  09B9  0021               	movlb	1	; select bank1
  3353  09BA  100E               	bcf	14,0	;volatile
  3354  09BB                     l321:	
  3355                           
  3356                           ;SPI2.c: 20: }
  3357                           ;SPI2.c: 22: SSP2CON1 = sType | sClockIdle;
  3358  09BB  0873               	movf	spiInit@sType,w
  3359  09BC  0471               	iorwf	spiInit@sClockIdle,w
  3360  09BD  0024               	movlb	4	; select bank4
  3361  09BE  009D               	movwf	29	;volatile
  3362  09BF  0008               	return
  3363  09C0                     __end_of_spiInit:	
  3364                           
  3365                           	psect	text3
  3366  0F02                     __ptext3:	
  3367 ;; *************** function _readSensorCoefficients *****************
  3368 ;; Defined at:
  3369 ;;		line 106 in file "bme280.c"
  3370 ;; Parameters:    Size  Location     Type
  3371 ;;		None
  3372 ;; Auto vars:     Size  Location     Type
  3373 ;;		None
  3374 ;; Return value:  Size  Location     Type
  3375 ;;                  1    wreg      void 
  3376 ;; Registers used:
  3377 ;;		wreg, status,2, status,0, pclath, cstack
  3378 ;; Tracked objects:
  3379 ;;		On entry : 0/0
  3380 ;;		On exit  : 0/0
  3381 ;;		Unchanged: 0/0
  3382 ;; Data sizes:     COMMON   BANK0   BANK1   BANK2   BANK3   BANK4   BANK5   BANK6   BANK7   BANK8   BANK9  BANK10  BANK1
      +1  BANK12
  3383 ;;      Params:         0       0       0       0       0       0       0       0       0       0       0       0       
      +0       0
  3384 ;;      Locals:         0       0       0       0       0       0       0       0       0       0       0       0       
      +0       0
  3385 ;;      Temps:          0       5       0       0       0       0       0       0       0       0       0       0       
      +0       0
  3386 ;;      Totals:         0       5       0       0       0       0       0       0       0       0       0       0       
      +0       0
  3387 ;;Total ram usage:        5 bytes
  3388 ;; Hardware stack levels used:    1
  3389 ;; Hardware stack levels required when called:    5
  3390 ;; This function calls:
  3391 ;;		_BME280_read16_LE
  3392 ;;		_BME280_read8
  3393 ;;		_BME280_readS16_LE
  3394 ;; This function is called by:
  3395 ;;		_main
  3396 ;; This function uses a non-reentrant model
  3397 ;;
  3398                           
  3399                           
  3400                           ;psect for function _readSensorCoefficients
  3401  0F02                     _readSensorCoefficients:	
  3402                           
  3403                           ;bme280.c: 109: cal_data.dig_T1 = BME280_read16_LE(0x88);
  3404                           
  3405                           ;incstack = 0
  3406                           ; Regs used in _readSensorCoefficients: [wreg+status,2+status,0+pclath+cstack]
  3407  0F02  3088               	movlw	136
  3408  0F03  3189  21F1  318F   	fcall	_BME280_read16_LE
  3409  0F06  0020               	movlb	0	; select bank0
  3410  0F07  0821               	movf	?_BME280_read16_LE+1,w
  3411  0F08  0021               	movlb	1	; select bank1
  3412  0F09  00BA               	movwf	(_cal_data+1)^(0+128)
  3413  0F0A  0020               	movlb	0	; select bank0
  3414  0F0B  0820               	movf	?_BME280_read16_LE,w
  3415  0F0C  0021               	movlb	1	; select bank1
  3416  0F0D  00B9               	movwf	_cal_data^(0+128)
  3417                           
  3418                           ;bme280.c: 111: cal_data.dig_T2 = BME280_readS16_LE(0x8A);
  3419  0F0E  308A               	movlw	138
  3420  0F0F  3189  2168  318F   	fcall	_BME280_readS16_LE
  3421  0F12  0020               	movlb	0	; select bank0
  3422  0F13  082A               	movf	?_BME280_readS16_LE+1,w
  3423  0F14  0021               	movlb	1	; select bank1
  3424  0F15  00BC               	movwf	((_cal_data+1)^(0+128)+2)
  3425  0F16  0020               	movlb	0	; select bank0
  3426  0F17  0829               	movf	?_BME280_readS16_LE,w
  3427  0F18  0021               	movlb	1	; select bank1
  3428  0F19  00BB               	movwf	(_cal_data^(0+128)+2)
  3429                           
  3430                           ;bme280.c: 113: cal_data.dig_T3 = BME280_readS16_LE(0x8C);
  3431  0F1A  308C               	movlw	140
  3432  0F1B  3189  2168  318F   	fcall	_BME280_readS16_LE
  3433  0F1E  0020               	movlb	0	; select bank0
  3434  0F1F  082A               	movf	?_BME280_readS16_LE+1,w
  3435  0F20  0021               	movlb	1	; select bank1
  3436  0F21  00BE               	movwf	((_cal_data+1)^(0+128)+4)
  3437  0F22  0020               	movlb	0	; select bank0
  3438  0F23  0829               	movf	?_BME280_readS16_LE,w
  3439  0F24  0021               	movlb	1	; select bank1
  3440  0F25  00BD               	movwf	(_cal_data^(0+128)+4)
  3441                           
  3442                           ;bme280.c: 115: cal_data.dig_P1 = BME280_read16_LE(0x8E);
  3443  0F26  308E               	movlw	142
  3444  0F27  3189  21F1  318F   	fcall	_BME280_read16_LE
  3445  0F2A  0020               	movlb	0	; select bank0
  3446  0F2B  0821               	movf	?_BME280_read16_LE+1,w
  3447  0F2C  0021               	movlb	1	; select bank1
  3448  0F2D  00C0               	movwf	((_cal_data+1)^(0+128)+6)
  3449  0F2E  0020               	movlb	0	; select bank0
  3450  0F2F  0820               	movf	?_BME280_read16_LE,w
  3451  0F30  0021               	movlb	1	; select bank1
  3452  0F31  00BF               	movwf	(_cal_data^(0+128)+6)
  3453                           
  3454                           ;bme280.c: 117: cal_data.dig_P2 = BME280_readS16_LE(0x90);
  3455  0F32  3090               	movlw	144
  3456  0F33  3189  2168  318F   	fcall	_BME280_readS16_LE
  3457  0F36  0020               	movlb	0	; select bank0
  3458  0F37  082A               	movf	?_BME280_readS16_LE+1,w
  3459  0F38  0021               	movlb	1	; select bank1
  3460  0F39  00C2               	movwf	((_cal_data+1)^(0+128)+8)
  3461  0F3A  0020               	movlb	0	; select bank0
  3462  0F3B  0829               	movf	?_BME280_readS16_LE,w
  3463  0F3C  0021               	movlb	1	; select bank1
  3464  0F3D  00C1               	movwf	(_cal_data^(0+128)+8)
  3465                           
  3466                           ;bme280.c: 119: cal_data.dig_P3 = BME280_readS16_LE(0x92);
  3467  0F3E  3092               	movlw	146
  3468  0F3F  3189  2168  318F   	fcall	_BME280_readS16_LE
  3469  0F42  0020               	movlb	0	; select bank0
  3470  0F43  082A               	movf	?_BME280_readS16_LE+1,w
  3471  0F44  0021               	movlb	1	; select bank1
  3472  0F45  00C4               	movwf	((_cal_data+1)^(0+128)+10)
  3473  0F46  0020               	movlb	0	; select bank0
  3474  0F47  0829               	movf	?_BME280_readS16_LE,w
  3475  0F48  0021               	movlb	1	; select bank1
  3476  0F49  00C3               	movwf	(_cal_data^(0+128)+10)
  3477                           
  3478                           ;bme280.c: 121: cal_data.dig_P4 = BME280_readS16_LE(0x94);
  3479  0F4A  3094               	movlw	148
  3480  0F4B  3189  2168  318F   	fcall	_BME280_readS16_LE
  3481  0F4E  0020               	movlb	0	; select bank0
  3482  0F4F  082A               	movf	?_BME280_readS16_LE+1,w
  3483  0F50  0021               	movlb	1	; select bank1
  3484  0F51  00C6               	movwf	((_cal_data+1)^(0+128)+12)
  3485  0F52  0020               	movlb	0	; select bank0
  3486  0F53  0829               	movf	?_BME280_readS16_LE,w
  3487  0F54  0021               	movlb	1	; select bank1
  3488  0F55  00C5               	movwf	(_cal_data^(0+128)+12)
  3489                           
  3490                           ;bme280.c: 123: cal_data.dig_P5 = BME280_readS16_LE(0x96);
  3491  0F56  3096               	movlw	150
  3492  0F57  3189  2168  318F   	fcall	_BME280_readS16_LE
  3493  0F5A  0020               	movlb	0	; select bank0
  3494  0F5B  082A               	movf	?_BME280_readS16_LE+1,w
  3495  0F5C  0021               	movlb	1	; select bank1
  3496  0F5D  00C8               	movwf	((_cal_data+1)^(0+128)+14)
  3497  0F5E  0020               	movlb	0	; select bank0
  3498  0F5F  0829               	movf	?_BME280_readS16_LE,w
  3499  0F60  0021               	movlb	1	; select bank1
  3500  0F61  00C7               	movwf	(_cal_data^(0+128)+14)
  3501                           
  3502                           ;bme280.c: 125: cal_data.dig_P6 = BME280_readS16_LE(0x98);
  3503  0F62  3098               	movlw	152
  3504  0F63  3189  2168  318F   	fcall	_BME280_readS16_LE
  3505  0F66  0020               	movlb	0	; select bank0
  3506  0F67  082A               	movf	?_BME280_readS16_LE+1,w
  3507  0F68  0021               	movlb	1	; select bank1
  3508  0F69  00CA               	movwf	((_cal_data+1)^(0+128)+16)
  3509  0F6A  0020               	movlb	0	; select bank0
  3510  0F6B  0829               	movf	?_BME280_readS16_LE,w
  3511  0F6C  0021               	movlb	1	; select bank1
  3512  0F6D  00C9               	movwf	(_cal_data^(0+128)+16)
  3513                           
  3514                           ;bme280.c: 127: cal_data.dig_P7 = BME280_readS16_LE(0x9A);
  3515  0F6E  309A               	movlw	154
  3516  0F6F  3189  2168  318F   	fcall	_BME280_readS16_LE
  3517  0F72  0020               	movlb	0	; select bank0
  3518  0F73  082A               	movf	?_BME280_readS16_LE+1,w
  3519  0F74  0021               	movlb	1	; select bank1
  3520  0F75  00CC               	movwf	((_cal_data+1)^(0+128)+18)
  3521  0F76  0020               	movlb	0	; select bank0
  3522  0F77  0829               	movf	?_BME280_readS16_LE,w
  3523  0F78  0021               	movlb	1	; select bank1
  3524  0F79  00CB               	movwf	(_cal_data^(0+128)+18)
  3525                           
  3526                           ;bme280.c: 129: cal_data.dig_P8 = BME280_readS16_LE(0x9C);
  3527  0F7A  309C               	movlw	156
  3528  0F7B  3189  2168  318F   	fcall	_BME280_readS16_LE
  3529  0F7E  0020               	movlb	0	; select bank0
  3530  0F7F  082A               	movf	?_BME280_readS16_LE+1,w
  3531  0F80  0021               	movlb	1	; select bank1
  3532  0F81  00CE               	movwf	((_cal_data+1)^(0+128)+20)
  3533  0F82  0020               	movlb	0	; select bank0
  3534  0F83  0829               	movf	?_BME280_readS16_LE,w
  3535  0F84  0021               	movlb	1	; select bank1
  3536  0F85  00CD               	movwf	(_cal_data^(0+128)+20)
  3537                           
  3538                           ;bme280.c: 131: cal_data.dig_P9 = BME280_readS16_LE(0x9E);
  3539  0F86  309E               	movlw	158
  3540  0F87  3189  2168  318F   	fcall	_BME280_readS16_LE
  3541  0F8A  0020               	movlb	0	; select bank0
  3542  0F8B  082A               	movf	?_BME280_readS16_LE+1,w
  3543  0F8C  0021               	movlb	1	; select bank1
  3544  0F8D  00D0               	movwf	((_cal_data+1)^(0+128)+22)
  3545  0F8E  0020               	movlb	0	; select bank0
  3546  0F8F  0829               	movf	?_BME280_readS16_LE,w
  3547  0F90  0021               	movlb	1	; select bank1
  3548  0F91  00CF               	movwf	(_cal_data^(0+128)+22)
  3549                           
  3550                           ;bme280.c: 133: cal_data.dig_H1 = BME280_read8(0xA1);
  3551  0F92  30A1               	movlw	161
  3552  0F93  318B  230D  318F   	fcall	_BME280_read8
  3553  0F96  0020               	movlb	0	; select bank0
  3554  0F97  00AC               	movwf	??_readSensorCoefficients
  3555  0F98  082C               	movf	??_readSensorCoefficients,w
  3556  0F99  0021               	movlb	1	; select bank1
  3557  0F9A  00D1               	movwf	(_cal_data^(0+128)+24)
  3558                           
  3559                           ;bme280.c: 135: cal_data.dig_H2 = BME280_readS16_LE(0xE1);
  3560  0F9B  30E1               	movlw	225
  3561  0F9C  3189  2168  318F   	fcall	_BME280_readS16_LE
  3562  0F9F  0020               	movlb	0	; select bank0
  3563  0FA0  082A               	movf	?_BME280_readS16_LE+1,w
  3564  0FA1  0021               	movlb	1	; select bank1
  3565  0FA2  00D3               	movwf	((_cal_data+1)^(0+128)+25)
  3566  0FA3  0020               	movlb	0	; select bank0
  3567  0FA4  0829               	movf	?_BME280_readS16_LE,w
  3568  0FA5  0021               	movlb	1	; select bank1
  3569  0FA6  00D2               	movwf	(_cal_data^(0+128)+25)
  3570                           
  3571                           ;bme280.c: 137: cal_data.dig_H3 = BME280_read8(0xE3);
  3572  0FA7  30E3               	movlw	227
  3573  0FA8  318B  230D  318F   	fcall	_BME280_read8
  3574  0FAB  0020               	movlb	0	; select bank0
  3575  0FAC  00AC               	movwf	??_readSensorCoefficients
  3576  0FAD  082C               	movf	??_readSensorCoefficients,w
  3577  0FAE  0021               	movlb	1	; select bank1
  3578  0FAF  00D4               	movwf	(_cal_data^(0+128)+27)
  3579                           
  3580                           ;bme280.c: 139: cal_data.dig_H4 = (BME280_read8(0xE4) << 4) | (BME280_read8(0xE4+1) & 0x
      +                          F);
  3581  0FB0  30E5               	movlw	229
  3582  0FB1  318B  230D  318F   	fcall	_BME280_read8
  3583  0FB4  390F               	andlw	15
  3584  0FB5  0020               	movlb	0	; select bank0
  3585  0FB6  00AC               	movwf	??_readSensorCoefficients
  3586  0FB7  01AD               	clrf	??_readSensorCoefficients+1
  3587  0FB8  30E4               	movlw	228
  3588  0FB9  318B  230D  318F   	fcall	_BME280_read8
  3589  0FBC  0020               	movlb	0	; select bank0
  3590  0FBD  00AE               	movwf	??_readSensorCoefficients+2
  3591  0FBE  01AF               	clrf	??_readSensorCoefficients+3
  3592  0FBF  0EAE               	swapf	??_readSensorCoefficients+2,f
  3593  0FC0  0EAF               	swapf	??_readSensorCoefficients+3,f
  3594  0FC1  30F0               	movlw	240
  3595  0FC2  05AF               	andwf	??_readSensorCoefficients+3,f
  3596  0FC3  082E               	movf	??_readSensorCoefficients+2,w
  3597  0FC4  390F               	andlw	15
  3598  0FC5  04AF               	iorwf	??_readSensorCoefficients+3,f
  3599  0FC6  30F0               	movlw	240
  3600  0FC7  05AE               	andwf	??_readSensorCoefficients+2,f
  3601  0FC8  082C               	movf	??_readSensorCoefficients,w
  3602  0FC9  042E               	iorwf	??_readSensorCoefficients+2,w
  3603  0FCA  0021               	movlb	1	; select bank1
  3604  0FCB  00D5               	movwf	(_cal_data^(0+128)+28)
  3605  0FCC  0020               	movlb	0	; select bank0
  3606  0FCD  082D               	movf	??_readSensorCoefficients+1,w
  3607  0FCE  042F               	iorwf	??_readSensorCoefficients+3,w
  3608  0FCF  0021               	movlb	1	; select bank1
  3609  0FD0  00D6               	movwf	((_cal_data+1)^(0+128)+28)
  3610                           
  3611                           ;bme280.c: 141: cal_data.dig_H5 = (BME280_read8(0xE5+1) << 4) | (BME280_read8(0xE5) >> 4
      +                          );
  3612  0FD1  30E5               	movlw	229
  3613  0FD2  318B  230D  318F   	fcall	_BME280_read8
  3614  0FD5  0020               	movlb	0	; select bank0
  3615  0FD6  00AC               	movwf	??_readSensorCoefficients
  3616  0FD7  3004               	movlw	4
  3617  0FD8                     u1705:	
  3618  0FD8  36AC               	lsrf	??_readSensorCoefficients,f
  3619  0FD9  0B89               	decfsz	9,f
  3620  0FDA  2FD8               	goto	u1705
  3621  0FDB  082C               	movf	??_readSensorCoefficients,w
  3622  0FDC  00AD               	movwf	??_readSensorCoefficients+1
  3623  0FDD  01AE               	clrf	??_readSensorCoefficients+2
  3624  0FDE  30E6               	movlw	230
  3625  0FDF  318B  230D  318F   	fcall	_BME280_read8
  3626  0FE2  0020               	movlb	0	; select bank0
  3627  0FE3  00AF               	movwf	??_readSensorCoefficients+3
  3628  0FE4  01B0               	clrf	??_readSensorCoefficients+4
  3629  0FE5  0EAF               	swapf	??_readSensorCoefficients+3,f
  3630  0FE6  0EB0               	swapf	??_readSensorCoefficients+4,f
  3631  0FE7  30F0               	movlw	240
  3632  0FE8  05B0               	andwf	??_readSensorCoefficients+4,f
  3633  0FE9  082F               	movf	??_readSensorCoefficients+3,w
  3634  0FEA  390F               	andlw	15
  3635  0FEB  04B0               	iorwf	??_readSensorCoefficients+4,f
  3636  0FEC  30F0               	movlw	240
  3637  0FED  05AF               	andwf	??_readSensorCoefficients+3,f
  3638  0FEE  082D               	movf	??_readSensorCoefficients+1,w
  3639  0FEF  042F               	iorwf	??_readSensorCoefficients+3,w
  3640  0FF0  0021               	movlb	1	; select bank1
  3641  0FF1  00D7               	movwf	(_cal_data^(0+128)+30)
  3642  0FF2  0020               	movlb	0	; select bank0
  3643  0FF3  082E               	movf	??_readSensorCoefficients+2,w
  3644  0FF4  0430               	iorwf	??_readSensorCoefficients+4,w
  3645  0FF5  0021               	movlb	1	; select bank1
  3646  0FF6  00D8               	movwf	((_cal_data+1)^(0+128)+30)
  3647                           
  3648                           ;bme280.c: 143: cal_data.dig_H6 = (int8_t)BME280_read8(0xE7);
  3649  0FF7  30E7               	movlw	231
  3650  0FF8  318B  230D         	fcall	_BME280_read8
  3651  0FFA  0020               	movlb	0	; select bank0
  3652  0FFB  00AC               	movwf	??_readSensorCoefficients
  3653  0FFC  082C               	movf	??_readSensorCoefficients,w
  3654  0FFD  0021               	movlb	1	; select bank1
  3655  0FFE  00D9               	movwf	(_cal_data^(0+128)+32)
  3656  0FFF  0008               	return
  3657  1000                     __end_of_readSensorCoefficients:	
  3658                           
  3659                           	psect	text4
  3660  0968                     __ptext4:	
  3661 ;; *************** function _BME280_readS16_LE *****************
  3662 ;; Defined at:
  3663 ;;		line 88 in file "bme280.c"
  3664 ;; Parameters:    Size  Location     Type
  3665 ;;  reg             1    wreg     unsigned char 
  3666 ;; Auto vars:     Size  Location     Type
  3667 ;;  reg             1   13[COMMON] unsigned char 
  3668 ;; Return value:  Size  Location     Type
  3669 ;;                  2    9[BANK0 ] int 
  3670 ;; Registers used:
  3671 ;;		wreg, status,2, status,0, pclath, cstack
  3672 ;; Tracked objects:
  3673 ;;		On entry : 0/0
  3674 ;;		On exit  : 0/0
  3675 ;;		Unchanged: 0/0
  3676 ;; Data sizes:     COMMON   BANK0   BANK1   BANK2   BANK3   BANK4   BANK5   BANK6   BANK7   BANK8   BANK9  BANK10  BANK1
      +1  BANK12
  3677 ;;      Params:         0       3       0       0       0       0       0       0       0       0       0       0       
      +0       0
  3678 ;;      Locals:         1       0       0       0       0       0       0       0       0       0       0       0       
      +0       0
  3679 ;;      Temps:          0       0       0       0       0       0       0       0       0       0       0       0       
      +0       0
  3680 ;;      Totals:         1       3       0       0       0       0       0       0       0       0       0       0       
      +0       0
  3681 ;;Total ram usage:        4 bytes
  3682 ;; Hardware stack levels used:    1
  3683 ;; Hardware stack levels required when called:    4
  3684 ;; This function calls:
  3685 ;;		_BME280_read16_LE
  3686 ;; This function is called by:
  3687 ;;		_readSensorCoefficients
  3688 ;; This function uses a non-reentrant model
  3689 ;;
  3690                           
  3691                           
  3692                           ;psect for function _BME280_readS16_LE
  3693  0968                     _BME280_readS16_LE:	
  3694                           
  3695                           ;incstack = 0
  3696                           ; Regs used in _BME280_readS16_LE: [wreg+status,2+status,0+pclath+cstack]
  3697                           ;BME280_readS16_LE@reg stored from wreg
  3698  0968  00FD               	movwf	BME280_readS16_LE@reg
  3699                           
  3700                           ;bme280.c: 90: return (int16_t)BME280_read16_LE(reg);
  3701  0969  087D               	movf	BME280_readS16_LE@reg,w
  3702  096A  3189  21F1         	fcall	_BME280_read16_LE
  3703  096C  0020               	movlb	0	; select bank0
  3704  096D  0821               	movf	?_BME280_read16_LE+1,w
  3705  096E  00AA               	movwf	?_BME280_readS16_LE+1
  3706  096F  0820               	movf	?_BME280_read16_LE,w
  3707  0970  00A9               	movwf	?_BME280_readS16_LE
  3708  0971  0008               	return
  3709  0972                     __end_of_BME280_readS16_LE:	
  3710                           
  3711                           	psect	text5
  3712  09F1                     __ptext5:	
  3713 ;; *************** function _BME280_read16_LE *****************
  3714 ;; Defined at:
  3715 ;;		line 80 in file "bme280.c"
  3716 ;; Parameters:    Size  Location     Type
  3717 ;;  reg             1    wreg     unsigned char 
  3718 ;; Auto vars:     Size  Location     Type
  3719 ;;  reg             1    6[BANK0 ] unsigned char 
  3720 ;;  temp            2    7[BANK0 ] unsigned int 
  3721 ;; Return value:  Size  Location     Type
  3722 ;;                  2    0[BANK0 ] unsigned int 
  3723 ;; Registers used:
  3724 ;;		wreg, status,2, status,0, pclath, cstack
  3725 ;; Tracked objects:
  3726 ;;		On entry : 0/0
  3727 ;;		On exit  : 0/0
  3728 ;;		Unchanged: 0/0
  3729 ;; Data sizes:     COMMON   BANK0   BANK1   BANK2   BANK3   BANK4   BANK5   BANK6   BANK7   BANK8   BANK9  BANK10  BANK1
      +1  BANK12
  3730 ;;      Params:         0       2       0       0       0       0       0       0       0       0       0       0       
      +0       0
  3731 ;;      Locals:         0       3       0       0       0       0       0       0       0       0       0       0       
      +0       0
  3732 ;;      Temps:          0       4       0       0       0       0       0       0       0       0       0       0       
      +0       0
  3733 ;;      Totals:         0       9       0       0       0       0       0       0       0       0       0       0       
      +0       0
  3734 ;;Total ram usage:        9 bytes
  3735 ;; Hardware stack levels used:    1
  3736 ;; Hardware stack levels required when called:    3
  3737 ;; This function calls:
  3738 ;;		_BME280_read16
  3739 ;; This function is called by:
  3740 ;;		_BME280_readS16_LE
  3741 ;;		_readSensorCoefficients
  3742 ;; This function uses a non-reentrant model
  3743 ;;
  3744                           
  3745                           
  3746                           ;psect for function _BME280_read16_LE
  3747  09F1                     _BME280_read16_LE:	
  3748                           
  3749                           ;incstack = 0
  3750                           ; Regs used in _BME280_read16_LE: [wreg+status,2+status,0+pclath+cstack]
  3751                           ;BME280_read16_LE@reg stored from wreg
  3752  09F1  0020               	movlb	0	; select bank0
  3753  09F2  00A6               	movwf	BME280_read16_LE@reg
  3754                           
  3755                           ;bme280.c: 82: uint16_t temp = BME280_read16(reg);
  3756  09F3  0826               	movf	BME280_read16_LE@reg,w
  3757  09F4  318B  23CA         	fcall	_BME280_read16
  3758  09F6  0877               	movf	?_BME280_read16+1,w
  3759  09F7  0020               	movlb	0	; select bank0
  3760  09F8  00A8               	movwf	BME280_read16_LE@temp+1
  3761  09F9  0876               	movf	?_BME280_read16,w
  3762  09FA  00A7               	movwf	BME280_read16_LE@temp
  3763                           
  3764                           ;bme280.c: 84: return (temp >> 8) | (temp << 8);
  3765  09FB  0827               	movf	BME280_read16_LE@temp,w
  3766  09FC  00A3               	movwf	??_BME280_read16_LE+1
  3767  09FD  01A2               	clrf	??_BME280_read16_LE
  3768  09FE  0828               	movf	BME280_read16_LE@temp+1,w
  3769  09FF  00A5               	movwf	??_BME280_read16_LE+3
  3770  0A00  0827               	movf	BME280_read16_LE@temp,w
  3771  0A01  00A4               	movwf	??_BME280_read16_LE+2
  3772  0A02  0825               	movf	??_BME280_read16_LE+3,w
  3773  0A03  00A4               	movwf	??_BME280_read16_LE+2
  3774  0A04  01A5               	clrf	??_BME280_read16_LE+3
  3775  0A05  0822               	movf	??_BME280_read16_LE,w
  3776  0A06  0424               	iorwf	??_BME280_read16_LE+2,w
  3777  0A07  00A0               	movwf	?_BME280_read16_LE
  3778  0A08  0823               	movf	??_BME280_read16_LE+1,w
  3779  0A09  0425               	iorwf	??_BME280_read16_LE+3,w
  3780  0A0A  00A1               	movwf	?_BME280_read16_LE+1
  3781  0A0B  0008               	return
  3782  0A0C                     __end_of_BME280_read16_LE:	
  3783                           
  3784                           	psect	text6
  3785  0972                     __ptext6:	
  3786 ;; *************** function _SYSTEM_Initialize *****************
  3787 ;; Defined at:
  3788 ;;		line 6 in file "system.c"
  3789 ;; Parameters:    Size  Location     Type
  3790 ;;		None
  3791 ;; Auto vars:     Size  Location     Type
  3792 ;;		None
  3793 ;; Return value:  Size  Location     Type
  3794 ;;                  1    wreg      void 
  3795 ;; Registers used:
  3796 ;;		wreg, status,2, status,0, pclath, cstack
  3797 ;; Tracked objects:
  3798 ;;		On entry : 0/0
  3799 ;;		On exit  : 0/0
  3800 ;;		Unchanged: 0/0
  3801 ;; Data sizes:     COMMON   BANK0   BANK1   BANK2   BANK3   BANK4   BANK5   BANK6   BANK7   BANK8   BANK9  BANK10  BANK1
      +1  BANK12
  3802 ;;      Params:         0       0       0       0       0       0       0       0       0       0       0       0       
      +0       0
  3803 ;;      Locals:         0       0       0       0       0       0       0       0       0       0       0       0       
      +0       0
  3804 ;;      Temps:          0       0       0       0       0       0       0       0       0       0       0       0       
      +0       0
  3805 ;;      Totals:         0       0       0       0       0       0       0       0       0       0       0       0       
      +0       0
  3806 ;;Total ram usage:        0 bytes
  3807 ;; Hardware stack levels used:    1
  3808 ;; Hardware stack levels required when called:    1
  3809 ;; This function calls:
  3810 ;;		_EUSART_Initialize
  3811 ;;		_OSCILLATOR_Initialize
  3812 ;;		_PIN_MANAGER_Initialize
  3813 ;;		_PMD_Initialize
  3814 ;;		_WDT_Initialize
  3815 ;; This function is called by:
  3816 ;;		_main
  3817 ;; This function uses a non-reentrant model
  3818 ;;
  3819                           
  3820                           
  3821                           ;psect for function _SYSTEM_Initialize
  3822  0972                     _SYSTEM_Initialize:	
  3823                           
  3824                           ;system.c: 9: PMD_Initialize();
  3825                           
  3826                           ;incstack = 0
  3827                           ; Regs used in _SYSTEM_Initialize: [wreg+status,2+status,0+pclath+cstack]
  3828  0972  3189  2157  3189   	fcall	_PMD_Initialize
  3829                           
  3830                           ;system.c: 10: PIN_MANAGER_Initialize();
  3831  0975  318B  2386  3189   	fcall	_PIN_MANAGER_Initialize
  3832                           
  3833                           ;system.c: 11: OSCILLATOR_Initialize();
  3834  0978  3189  215F  3189   	fcall	_OSCILLATOR_Initialize
  3835                           
  3836                           ;system.c: 12: WDT_Initialize();
  3837  097B  3189  2130  3189   	fcall	_WDT_Initialize
  3838                           
  3839                           ;system.c: 13: EUSART_Initialize();
  3840  097E  3189  21D8         	fcall	_EUSART_Initialize
  3841  0980  0008               	return
  3842  0981                     __end_of_SYSTEM_Initialize:	
  3843                           
  3844                           	psect	text7
  3845  0930                     __ptext7:	
  3846 ;; *************** function _WDT_Initialize *****************
  3847 ;; Defined at:
  3848 ;;		line 30 in file "system.c"
  3849 ;; Parameters:    Size  Location     Type
  3850 ;;		None
  3851 ;; Auto vars:     Size  Location     Type
  3852 ;;		None
  3853 ;; Return value:  Size  Location     Type
  3854 ;;                  1    wreg      void 
  3855 ;; Registers used:
  3856 ;;		wreg
  3857 ;; Tracked objects:
  3858 ;;		On entry : 0/0
  3859 ;;		On exit  : 0/0
  3860 ;;		Unchanged: 0/0
  3861 ;; Data sizes:     COMMON   BANK0   BANK1   BANK2   BANK3   BANK4   BANK5   BANK6   BANK7   BANK8   BANK9  BANK10  BANK1
      +1  BANK12
  3862 ;;      Params:         0       0       0       0       0       0       0       0       0       0       0       0       
      +0       0
  3863 ;;      Locals:         0       0       0       0       0       0       0       0       0       0       0       0       
      +0       0
  3864 ;;      Temps:          0       0       0       0       0       0       0       0       0       0       0       0       
      +0       0
  3865 ;;      Totals:         0       0       0       0       0       0       0       0       0       0       0       0       
      +0       0
  3866 ;;Total ram usage:        0 bytes
  3867 ;; Hardware stack levels used:    1
  3868 ;; This function calls:
  3869 ;;		Nothing
  3870 ;; This function is called by:
  3871 ;;		_SYSTEM_Initialize
  3872 ;; This function uses a non-reentrant model
  3873 ;;
  3874                           
  3875                           
  3876                           ;psect for function _WDT_Initialize
  3877  0930                     _WDT_Initialize:	
  3878                           
  3879                           ;system.c: 33: WDTCON = 0x16;
  3880                           
  3881                           ;incstack = 0
  3882                           ; Regs used in _WDT_Initialize: [wreg]
  3883  0930  3016               	movlw	22
  3884  0931  0021               	movlb	1	; select bank1
  3885  0932  0097               	movwf	23	;volatile
  3886  0933  0008               	return
  3887  0934                     __end_of_WDT_Initialize:	
  3888                           
  3889                           	psect	text8
  3890  0957                     __ptext8:	
  3891 ;; *************** function _PMD_Initialize *****************
  3892 ;; Defined at:
  3893 ;;		line 36 in file "system.c"
  3894 ;; Parameters:    Size  Location     Type
  3895 ;;		None
  3896 ;; Auto vars:     Size  Location     Type
  3897 ;;		None
  3898 ;; Return value:  Size  Location     Type
  3899 ;;                  1    wreg      void 
  3900 ;; Registers used:
  3901 ;;		status,2
  3902 ;; Tracked objects:
  3903 ;;		On entry : 0/0
  3904 ;;		On exit  : 0/0
  3905 ;;		Unchanged: 0/0
  3906 ;; Data sizes:     COMMON   BANK0   BANK1   BANK2   BANK3   BANK4   BANK5   BANK6   BANK7   BANK8   BANK9  BANK10  BANK1
      +1  BANK12
  3907 ;;      Params:         0       0       0       0       0       0       0       0       0       0       0       0       
      +0       0
  3908 ;;      Locals:         0       0       0       0       0       0       0       0       0       0       0       0       
      +0       0
  3909 ;;      Temps:          0       0       0       0       0       0       0       0       0       0       0       0       
      +0       0
  3910 ;;      Totals:         0       0       0       0       0       0       0       0       0       0       0       0       
      +0       0
  3911 ;;Total ram usage:        0 bytes
  3912 ;; Hardware stack levels used:    1
  3913 ;; This function calls:
  3914 ;;		Nothing
  3915 ;; This function is called by:
  3916 ;;		_SYSTEM_Initialize
  3917 ;; This function uses a non-reentrant model
  3918 ;;
  3919                           
  3920                           
  3921                           ;psect for function _PMD_Initialize
  3922  0957                     _PMD_Initialize:	
  3923                           
  3924                           ;system.c: 39: PMD0 = 0x00;
  3925                           
  3926                           ;incstack = 0
  3927                           ; Regs used in _PMD_Initialize: [status,2]
  3928  0957  0032               	movlb	18	; select bank18
  3929  0958  0191               	clrf	17	;volatile
  3930                           
  3931                           ;system.c: 41: PMD1 = 0x00;
  3932  0959  0192               	clrf	18	;volatile
  3933                           
  3934                           ;system.c: 43: PMD2 = 0x00;
  3935  095A  0193               	clrf	19	;volatile
  3936                           
  3937                           ;system.c: 45: PMD3 = 0x00;
  3938  095B  0194               	clrf	20	;volatile
  3939                           
  3940                           ;system.c: 47: PMD4 = 0x00;
  3941  095C  0195               	clrf	21	;volatile
  3942                           
  3943                           ;system.c: 49: PMD5 = 0x00;
  3944  095D  0196               	clrf	22	;volatile
  3945  095E  0008               	return
  3946  095F                     __end_of_PMD_Initialize:	
  3947                           
  3948                           	psect	text9
  3949  0B86                     __ptext9:	
  3950 ;; *************** function _PIN_MANAGER_Initialize *****************
  3951 ;; Defined at:
  3952 ;;		line 52 in file "system.c"
  3953 ;; Parameters:    Size  Location     Type
  3954 ;;		None
  3955 ;; Auto vars:     Size  Location     Type
  3956 ;;		None
  3957 ;; Return value:  Size  Location     Type
  3958 ;;                  1    wreg      void 
  3959 ;; Registers used:
  3960 ;;		wreg, status,2, status,0
  3961 ;; Tracked objects:
  3962 ;;		On entry : 0/0
  3963 ;;		On exit  : 0/0
  3964 ;;		Unchanged: 0/0
  3965 ;; Data sizes:     COMMON   BANK0   BANK1   BANK2   BANK3   BANK4   BANK5   BANK6   BANK7   BANK8   BANK9  BANK10  BANK1
      +1  BANK12
  3966 ;;      Params:         0       0       0       0       0       0       0       0       0       0       0       0       
      +0       0
  3967 ;;      Locals:         0       0       0       0       0       0       0       0       0       0       0       0       
      +0       0
  3968 ;;      Temps:          0       0       0       0       0       0       0       0       0       0       0       0       
      +0       0
  3969 ;;      Totals:         0       0       0       0       0       0       0       0       0       0       0       0       
      +0       0
  3970 ;;Total ram usage:        0 bytes
  3971 ;; Hardware stack levels used:    1
  3972 ;; This function calls:
  3973 ;;		Nothing
  3974 ;; This function is called by:
  3975 ;;		_SYSTEM_Initialize
  3976 ;; This function uses a non-reentrant model
  3977 ;;
  3978                           
  3979                           
  3980                           ;psect for function _PIN_MANAGER_Initialize
  3981  0B86                     _PIN_MANAGER_Initialize:	
  3982                           
  3983                           ;system.c: 57: LATA = 0x00;
  3984                           
  3985                           ;incstack = 0
  3986                           ; Regs used in _PIN_MANAGER_Initialize: [wreg+status,2+status,0]
  3987  0B86  0022               	movlb	2	; select bank2
  3988  0B87  018C               	clrf	12	;volatile
  3989                           
  3990                           ;system.c: 58: LATC = 0x00;
  3991  0B88  018E               	clrf	14	;volatile
  3992                           
  3993                           ;system.c: 63: TRISA = 0x37;
  3994  0B89  3037               	movlw	55
  3995  0B8A  0021               	movlb	1	; select bank1
  3996  0B8B  008C               	movwf	12	;volatile
  3997                           
  3998                           ;system.c: 64: TRISC = 0x2A;
  3999  0B8C  302A               	movlw	42
  4000  0B8D  008E               	movwf	14	;volatile
  4001                           
  4002                           ;system.c: 69: ANSELC = 0x1C;
  4003  0B8E  301C               	movlw	28
  4004  0B8F  0023               	movlb	3	; select bank3
  4005  0B90  008E               	movwf	14	;volatile
  4006                           
  4007                           ;system.c: 70: ANSELA = 0x07;
  4008  0B91  3007               	movlw	7
  4009  0B92  008C               	movwf	12	;volatile
  4010                           
  4011                           ;system.c: 75: WPUA = 0x00;
  4012  0B93  0024               	movlb	4	; select bank4
  4013  0B94  018C               	clrf	12	;volatile
  4014                           
  4015                           ;system.c: 76: WPUC = 0x00;
  4016  0B95  018E               	clrf	14	;volatile
  4017                           
  4018                           ;system.c: 81: ODCONA = 0x00;
  4019  0B96  0025               	movlb	5	; select bank5
  4020  0B97  018C               	clrf	12	;volatile
  4021                           
  4022                           ;system.c: 82: ODCONC = 0x00;
  4023  0B98  018E               	clrf	14	;volatile
  4024                           
  4025                           ;system.c: 83: SSP1DATPPSbits.SSP1DATPPS = 0x04;
  4026  0B99  003C               	movlb	28	; select bank28
  4027  0B9A  0821               	movf	33,w	;volatile
  4028  0B9B  39E0               	andlw	-32
  4029  0B9C  3804               	iorlw	4
  4030  0B9D  00A1               	movwf	33	;volatile
  4031                           
  4032                           ;system.c: 84: SSP1CLKPPSbits.SSP1CLKPPS = 0x05;
  4033  0B9E  0820               	movf	32,w	;volatile
  4034  0B9F  39E0               	andlw	-32
  4035  0BA0  3805               	iorlw	5
  4036  0BA1  00A0               	movwf	32	;volatile
  4037                           
  4038                           ;system.c: 85: RXPPSbits.RXPPS = 0x15;
  4039  0BA2  0824               	movf	36,w	;volatile
  4040  0BA3  39E0               	andlw	-32
  4041  0BA4  3815               	iorlw	21
  4042  0BA5  00A4               	movwf	36	;volatile
  4043                           
  4044                           ;system.c: 86: RA4PPSbits.RA4PPS = 0x19;
  4045  0BA6  003D               	movlb	29	; select bank29
  4046  0BA7  0814               	movf	20,w	;volatile
  4047  0BA8  39E0               	andlw	-32
  4048  0BA9  3819               	iorlw	25
  4049  0BAA  0094               	movwf	20	;volatile
  4050                           
  4051                           ;system.c: 87: RC4PPSbits.RC4PPS = 0x14;
  4052  0BAB  0824               	movf	36,w	;volatile
  4053  0BAC  39E0               	andlw	-32
  4054  0BAD  3814               	iorlw	20
  4055  0BAE  00A4               	movwf	36	;volatile
  4056                           
  4057                           ;system.c: 88: RC0PPSbits.RC0PPS = 0x1A;
  4058  0BAF  0820               	movf	32,w	;volatile
  4059  0BB0  39E0               	andlw	-32
  4060  0BB1  381A               	iorlw	26
  4061  0BB2  00A0               	movwf	32	;volatile
  4062                           
  4063                           ;system.c: 89: RC2PPSbits.RC2PPS = 0x1B;
  4064  0BB3  0822               	movf	34,w	;volatile
  4065  0BB4  39E0               	andlw	-32
  4066  0BB5  381B               	iorlw	27
  4067  0BB6  00A2               	movwf	34	;volatile
  4068                           
  4069                           ;system.c: 90: SSP2CLKPPSbits.SSP2CLKPPS = 0x10;
  4070  0BB7  003C               	movlb	28	; select bank28
  4071  0BB8  081D               	movf	29,w	;volatile
  4072  0BB9  39E0               	andlw	-32
  4073  0BBA  3810               	iorlw	16
  4074  0BBB  009D               	movwf	29	;volatile
  4075                           
  4076                           ;system.c: 91: SSP2DATPPSbits.SSP2DATPPS = 0x11;
  4077  0BBC  081E               	movf	30,w	;volatile
  4078  0BBD  39E0               	andlw	-32
  4079  0BBE  3811               	iorlw	17
  4080  0BBF  009E               	movwf	30	;volatile
  4081                           
  4082                           ;system.c: 92: RA5PPSbits.RA5PPS = 0x18;
  4083  0BC0  003D               	movlb	29	; select bank29
  4084  0BC1  0815               	movf	21,w	;volatile
  4085  0BC2  39E0               	andlw	-32
  4086  0BC3  3818               	iorlw	24
  4087  0BC4  0095               	movwf	21	;volatile
  4088                           
  4089                           ;system.c: 93: RC5PPSbits.RC5PPS = 0x1B;
  4090  0BC5  0825               	movf	37,w	;volatile
  4091  0BC6  39E0               	andlw	-32
  4092  0BC7  381B               	iorlw	27
  4093  0BC8  00A5               	movwf	37	;volatile
  4094  0BC9  0008               	return
  4095  0BCA                     __end_of_PIN_MANAGER_Initialize:	
  4096                           
  4097                           	psect	text10
  4098  095F                     __ptext10:	
  4099 ;; *************** function _OSCILLATOR_Initialize *****************
  4100 ;; Defined at:
  4101 ;;		line 16 in file "system.c"
  4102 ;; Parameters:    Size  Location     Type
  4103 ;;		None
  4104 ;; Auto vars:     Size  Location     Type
  4105 ;;		None
  4106 ;; Return value:  Size  Location     Type
  4107 ;;                  1    wreg      void 
  4108 ;; Registers used:
  4109 ;;		wreg, status,2
  4110 ;; Tracked objects:
  4111 ;;		On entry : 0/0
  4112 ;;		On exit  : 0/0
  4113 ;;		Unchanged: 0/0
  4114 ;; Data sizes:     COMMON   BANK0   BANK1   BANK2   BANK3   BANK4   BANK5   BANK6   BANK7   BANK8   BANK9  BANK10  BANK1
      +1  BANK12
  4115 ;;      Params:         0       0       0       0       0       0       0       0       0       0       0       0       
      +0       0
  4116 ;;      Locals:         0       0       0       0       0       0       0       0       0       0       0       0       
      +0       0
  4117 ;;      Temps:          0       0       0       0       0       0       0       0       0       0       0       0       
      +0       0
  4118 ;;      Totals:         0       0       0       0       0       0       0       0       0       0       0       0       
      +0       0
  4119 ;;Total ram usage:        0 bytes
  4120 ;; Hardware stack levels used:    1
  4121 ;; This function calls:
  4122 ;;		Nothing
  4123 ;; This function is called by:
  4124 ;;		_SYSTEM_Initialize
  4125 ;; This function uses a non-reentrant model
  4126 ;;
  4127                           
  4128                           
  4129                           ;psect for function _OSCILLATOR_Initialize
  4130  095F                     _OSCILLATOR_Initialize:	
  4131                           
  4132                           ;system.c: 19: OSCCON1 = 0x60;
  4133                           
  4134                           ;incstack = 0
  4135                           ; Regs used in _OSCILLATOR_Initialize: [wreg+status,2]
  4136  095F  3060               	movlw	96
  4137  0960  0032               	movlb	18	; select bank18
  4138  0961  0099               	movwf	25	;volatile
  4139                           
  4140                           ;system.c: 21: OSCCON3 = 0x00;
  4141  0962  019B               	clrf	27	;volatile
  4142                           
  4143                           ;system.c: 23: OSCEN = 0x00;
  4144  0963  019D               	clrf	29	;volatile
  4145                           
  4146                           ;system.c: 25: OSCFRQ = 0x01;
  4147  0964  3001               	movlw	1
  4148  0965  009F               	movwf	31	;volatile
  4149                           
  4150                           ;system.c: 27: OSCTUNE = 0x00;
  4151  0966  019E               	clrf	30	;volatile
  4152  0967  0008               	return
  4153  0968                     __end_of_OSCILLATOR_Initialize:	
  4154                           
  4155                           	psect	text11
  4156  09D8                     __ptext11:	
  4157 ;; *************** function _EUSART_Initialize *****************
  4158 ;; Defined at:
  4159 ;;		line 18 in file "eusart.c"
  4160 ;; Parameters:    Size  Location     Type
  4161 ;;		None
  4162 ;; Auto vars:     Size  Location     Type
  4163 ;;		None
  4164 ;; Return value:  Size  Location     Type
  4165 ;;                  1    wreg      void 
  4166 ;; Registers used:
  4167 ;;		wreg, status,2
  4168 ;; Tracked objects:
  4169 ;;		On entry : 0/0
  4170 ;;		On exit  : 0/0
  4171 ;;		Unchanged: 0/0
  4172 ;; Data sizes:     COMMON   BANK0   BANK1   BANK2   BANK3   BANK4   BANK5   BANK6   BANK7   BANK8   BANK9  BANK10  BANK1
      +1  BANK12
  4173 ;;      Params:         0       0       0       0       0       0       0       0       0       0       0       0       
      +0       0
  4174 ;;      Locals:         0       0       0       0       0       0       0       0       0       0       0       0       
      +0       0
  4175 ;;      Temps:          1       0       0       0       0       0       0       0       0       0       0       0       
      +0       0
  4176 ;;      Totals:         1       0       0       0       0       0       0       0       0       0       0       0       
      +0       0
  4177 ;;Total ram usage:        1 bytes
  4178 ;; Hardware stack levels used:    1
  4179 ;; This function calls:
  4180 ;;		Nothing
  4181 ;; This function is called by:
  4182 ;;		_SYSTEM_Initialize
  4183 ;; This function uses a non-reentrant model
  4184 ;;
  4185                           
  4186                           
  4187                           ;psect for function _EUSART_Initialize
  4188  09D8                     _EUSART_Initialize:	
  4189                           
  4190                           ;eusart.c: 21: PIE1bits.RCIE = 0;
  4191                           
  4192                           ;incstack = 0
  4193                           ; Regs used in _EUSART_Initialize: [wreg+status,2]
  4194  09D8  0021               	movlb	1	; select bank1
  4195  09D9  1291               	bcf	17,5	;volatile
  4196                           
  4197                           ;eusart.c: 23: PIE1bits.TXIE = 0;
  4198  09DA  1211               	bcf	17,4	;volatile
  4199                           
  4200                           ;eusart.c: 28: BAUD1CON = 0x08;
  4201  09DB  3008               	movlw	8
  4202  09DC  0023               	movlb	3	; select bank3
  4203  09DD  009F               	movwf	31	;volatile
  4204                           
  4205                           ;eusart.c: 31: RC1STA = 0x90;
  4206  09DE  3090               	movlw	144
  4207  09DF  009D               	movwf	29	;volatile
  4208                           
  4209                           ;eusart.c: 34: TX1STA = 0x24;
  4210  09E0  3024               	movlw	36
  4211  09E1  009E               	movwf	30	;volatile
  4212                           
  4213                           ;eusart.c: 37: SP1BRGL = 0x33;
  4214  09E2  3033               	movlw	51
  4215  09E3  009B               	movwf	27	;volatile
  4216                           
  4217                           ;eusart.c: 40: SP1BRGH = 0x00;
  4218  09E4  019C               	clrf	28	;volatile
  4219                           
  4220                           ;eusart.c: 44: eusartTxHead = 0;
  4221  09E5  0021               	movlb	1	; select bank1
  4222  09E6  01B8               	clrf	_eusartTxHead^(0+128)	;volatile
  4223                           
  4224                           ;eusart.c: 45: eusartTxTail = 0;
  4225  09E7  01B7               	clrf	_eusartTxTail^(0+128)	;volatile
  4226                           
  4227                           ;eusart.c: 46: eusartTxBufferRemaining = sizeof(eusartTxBuffer);
  4228  09E8  3008               	movlw	8
  4229  09E9  00F0               	movwf	??_EUSART_Initialize
  4230  09EA  0870               	movf	??_EUSART_Initialize,w
  4231  09EB  00DA               	movwf	_eusartTxBufferRemaining^(0+128)	;volatile
  4232                           
  4233                           ;eusart.c: 48: eusartRxHead = 0;
  4234  09EC  01B6               	clrf	_eusartRxHead^(0+128)	;volatile
  4235                           
  4236                           ;eusart.c: 49: eusartRxTail = 0;
  4237  09ED  01B5               	clrf	_eusartRxTail^(0+128)	;volatile
  4238                           
  4239                           ;eusart.c: 50: eusartRxCount = 0;
  4240  09EE  01B4               	clrf	_eusartRxCount^(0+128)	;volatile
  4241                           
  4242                           ;eusart.c: 53: PIE1bits.RCIE = 1;
  4243  09EF  1691               	bsf	17,5	;volatile
  4244  09F0  0008               	return
  4245  09F1                     __end_of_EUSART_Initialize:	
  4246                           
  4247                           	psect	text12
  4248  0C19                     __ptext12:	
  4249 ;; *************** function _LireLux *****************
  4250 ;; Defined at:
  4251 ;;		line 28 in file "BH1750.c"
  4252 ;; Parameters:    Size  Location     Type
  4253 ;;  resolution      1    wreg     char 
  4254 ;; Auto vars:     Size  Location     Type
  4255 ;;  resolution      1   33[BANK0 ] char 
  4256 ;;  lux             2   34[BANK0 ] unsigned int 
  4257 ;; Return value:  Size  Location     Type
  4258 ;;                  2   30[BANK0 ] unsigned int 
  4259 ;; Registers used:
  4260 ;;		wreg, fsr0l, fsr0h, status,2, status,0, pclath, cstack
  4261 ;; Tracked objects:
  4262 ;;		On entry : 0/0
  4263 ;;		On exit  : 0/0
  4264 ;;		Unchanged: 0/0
  4265 ;; Data sizes:     COMMON   BANK0   BANK1   BANK2   BANK3   BANK4   BANK5   BANK6   BANK7   BANK8   BANK9  BANK10  BANK1
      +1  BANK12
  4266 ;;      Params:         0       2       0       0       0       0       0       0       0       0       0       0       
      +0       0
  4267 ;;      Locals:         0       3       0       0       0       0       0       0       0       0       0       0       
      +0       0
  4268 ;;      Temps:          0       1       0       0       0       0       0       0       0       0       0       0       
      +0       0
  4269 ;;      Totals:         0       6       0       0       0       0       0       0       0       0       0       0       
      +0       0
  4270 ;;Total ram usage:        6 bytes
  4271 ;; Hardware stack levels used:    1
  4272 ;; Hardware stack levels required when called:    3
  4273 ;; This function calls:
  4274 ;;		_BH1750_Read
  4275 ;;		_BH1750_Write
  4276 ;;		___ftdiv
  4277 ;;		___fttol
  4278 ;;		___lwtoft
  4279 ;; This function is called by:
  4280 ;;		_main
  4281 ;; This function uses a non-reentrant model
  4282 ;;
  4283                           
  4284                           
  4285                           ;psect for function _LireLux
  4286  0C19                     _LireLux:	
  4287                           
  4288                           ;incstack = 0
  4289                           ; Regs used in _LireLux: [wreg-fsr0h+status,2+status,0+pclath+cstack]
  4290                           ;LireLux@resolution stored from wreg
  4291  0C19  0020               	movlb	0	; select bank0
  4292  0C1A  00C1               	movwf	LireLux@resolution
  4293                           
  4294                           ;BH1750.c: 30: uint16_t lux ;
  4295                           ;BH1750.c: 31: BH1750_Write(0x01);
  4296  0C1B  3001               	movlw	1
  4297  0C1C  3189  21C0  318C   	fcall	_BH1750_Write
  4298                           
  4299                           ;BH1750.c: 32: switch(resolution)
  4300  0C1F  2C34               	goto	l1799
  4301  0C20                     l1789:	
  4302                           ;BH1750.c: 33: {
  4303                           ;BH1750.c: 34: case 0:
  4304                           
  4305                           
  4306                           ;BH1750.c: 35: BH1750_Write(0x23);
  4307  0C20  3023               	movlw	35
  4308  0C21  3189  21C0  318C   	fcall	_BH1750_Write
  4309                           
  4310                           ;BH1750.c: 36: break;
  4311  0C24  2C40               	goto	l1801
  4312  0C25                     l1791:	
  4313                           ;BH1750.c: 37: case 1:
  4314                           
  4315                           
  4316                           ;BH1750.c: 38: BH1750_Write(0x20);
  4317  0C25  3020               	movlw	32
  4318  0C26  3189  21C0  318C   	fcall	_BH1750_Write
  4319                           
  4320                           ;BH1750.c: 39: break;
  4321  0C29  2C40               	goto	l1801
  4322  0C2A                     l1793:	
  4323                           ;BH1750.c: 40: case 2:
  4324                           
  4325                           
  4326                           ;BH1750.c: 41: BH1750_Write(0x21);
  4327  0C2A  3021               	movlw	33
  4328  0C2B  3189  21C0  318C   	fcall	_BH1750_Write
  4329                           
  4330                           ;BH1750.c: 42: break;
  4331  0C2E  2C40               	goto	l1801
  4332  0C2F                     l1795:	
  4333                           ;BH1750.c: 43: default:
  4334                           
  4335                           
  4336                           ;BH1750.c: 44: BH1750_Write(0x20);
  4337  0C2F  3020               	movlw	32
  4338  0C30  3189  21C0  318C   	fcall	_BH1750_Write
  4339                           
  4340                           ;BH1750.c: 46: }
  4341                           
  4342                           ;BH1750.c: 45: break;
  4343  0C33  2C40               	goto	l1801
  4344  0C34                     l1799:	
  4345  0C34  0020               	movlb	0	; select bank0
  4346  0C35  0841               	movf	LireLux@resolution,w
  4347                           
  4348                           ; Switch size 1, requested type "space"
  4349                           ; Number of cases is 3, Range of values is 0 to 2
  4350                           ; switch strategies available:
  4351                           ; Name         Instructions Cycles
  4352                           ; simple_byte           10     6 (average)
  4353                           ; direct_byte           12     6 (fixed)
  4354                           ; jumptable            260     6 (fixed)
  4355                           ;	Chosen strategy is simple_byte
  4356  0C36  3A00               	xorlw	0	; case 0
  4357  0C37  1903               	skipnz
  4358  0C38  2C20               	goto	l1789
  4359  0C39  3A01               	xorlw	1	; case 1
  4360  0C3A  1903               	skipnz
  4361  0C3B  2C25               	goto	l1791
  4362  0C3C  3A03               	xorlw	3	; case 2
  4363  0C3D  1903               	skipnz
  4364  0C3E  2C2A               	goto	l1793
  4365  0C3F  2C2F               	goto	l1795
  4366  0C40                     l1801:	
  4367                           
  4368                           ;BH1750.c: 48: _delay((unsigned long)((200)*(2000000/4000.0)));
  4369  0C40  3082               	movlw	130
  4370  0C41  0020               	movlb	0	; select bank0
  4371  0C42  00C0               	movwf	??_LireLux
  4372  0C43  30DD               	movlw	221
  4373  0C44                     u2187:	
  4374  0C44  0B89               	decfsz	9,f
  4375  0C45  2C44               	goto	u2187
  4376  0C46  0BC0               	decfsz	??_LireLux,f
  4377  0C47  2C44               	goto	u2187
  4378  0C48  3200               	nop2
  4379                           
  4380                           ;BH1750.c: 49: lux = BH1750_Read();
  4381  0C49  318A  2281  318C   	fcall	_BH1750_Read
  4382  0C4C  0877               	movf	?_BH1750_Read+1,w
  4383  0C4D  0020               	movlb	0	; select bank0
  4384  0C4E  00C3               	movwf	LireLux@lux+1
  4385  0C4F  0876               	movf	?_BH1750_Read,w
  4386  0C50  00C2               	movwf	LireLux@lux
  4387                           
  4388                           ;BH1750.c: 50: lux = lux/1.20 ;
  4389  0C51  0843               	movf	LireLux@lux+1,w
  4390  0C52  00F9               	movwf	___lwtoft@c+1
  4391  0C53  0842               	movf	LireLux@lux,w
  4392  0C54  00F8               	movwf	___lwtoft@c
  4393  0C55  3189  2181  318C   	fcall	___lwtoft
  4394  0C58  0878               	movf	?___lwtoft,w
  4395  0C59  0020               	movlb	0	; select bank0
  4396  0C5A  00A3               	movwf	___ftdiv@f1
  4397  0C5B  0879               	movf	?___lwtoft+1,w
  4398  0C5C  00A4               	movwf	___ftdiv@f1+1
  4399  0C5D  087A               	movf	?___lwtoft+2,w
  4400  0C5E  00A5               	movwf	___ftdiv@f1+2
  4401  0C5F  309A               	movlw	154
  4402  0C60  00A0               	movwf	___ftdiv@f2
  4403  0C61  3099               	movlw	153
  4404  0C62  00A1               	movwf	___ftdiv@f2+1
  4405  0C63  303F               	movlw	63
  4406  0C64  00A2               	movwf	___ftdiv@f2+2
  4407  0C65  318E  2659  318C   	fcall	___ftdiv
  4408  0C68  0020               	movlb	0	; select bank0
  4409  0C69  0820               	movf	?___ftdiv,w
  4410  0C6A  00B0               	movwf	___fttol@f1
  4411  0C6B  0821               	movf	?___ftdiv+1,w
  4412  0C6C  00B1               	movwf	___fttol@f1+1
  4413  0C6D  0822               	movf	?___ftdiv+2,w
  4414  0C6E  00B2               	movwf	___fttol@f1+2
  4415  0C6F  318D  25D2         	fcall	___fttol
  4416  0C71  0020               	movlb	0	; select bank0
  4417  0C72  0831               	movf	?___fttol+1,w
  4418  0C73  00C3               	movwf	LireLux@lux+1
  4419  0C74  0830               	movf	?___fttol,w
  4420  0C75  00C2               	movwf	LireLux@lux
  4421                           
  4422                           ;BH1750.c: 51: return lux;
  4423  0C76  0843               	movf	LireLux@lux+1,w
  4424  0C77  00BF               	movwf	?_LireLux+1
  4425  0C78  0842               	movf	LireLux@lux,w
  4426  0C79  00BE               	movwf	?_LireLux
  4427  0C7A  0008               	return
  4428  0C7B                     __end_of_LireLux:	
  4429                           
  4430                           	psect	text13
  4431  0981                     __ptext13:	
  4432 ;; *************** function ___lwtoft *****************
  4433 ;; Defined at:
  4434 ;;		line 28 in file "/opt/microchip/xc8/v1.45/sources/common/lwtoft.c"
  4435 ;; Parameters:    Size  Location     Type
  4436 ;;  c               2    8[COMMON] unsigned int 
  4437 ;; Auto vars:     Size  Location     Type
  4438 ;;		None
  4439 ;; Return value:  Size  Location     Type
  4440 ;;                  3    8[COMMON] float 
  4441 ;; Registers used:
  4442 ;;		wreg, status,2, status,0, pclath, cstack
  4443 ;; Tracked objects:
  4444 ;;		On entry : 0/0
  4445 ;;		On exit  : 0/0
  4446 ;;		Unchanged: 0/0
  4447 ;; Data sizes:     COMMON   BANK0   BANK1   BANK2   BANK3   BANK4   BANK5   BANK6   BANK7   BANK8   BANK9  BANK10  BANK1
      +1  BANK12
  4448 ;;      Params:         3       0       0       0       0       0       0       0       0       0       0       0       
      +0       0
  4449 ;;      Locals:         0       0       0       0       0       0       0       0       0       0       0       0       
      +0       0
  4450 ;;      Temps:          1       0       0       0       0       0       0       0       0       0       0       0       
      +0       0
  4451 ;;      Totals:         4       0       0       0       0       0       0       0       0       0       0       0       
      +0       0
  4452 ;;Total ram usage:        4 bytes
  4453 ;; Hardware stack levels used:    1
  4454 ;; Hardware stack levels required when called:    1
  4455 ;; This function calls:
  4456 ;;		___ftpack
  4457 ;; This function is called by:
  4458 ;;		_LireLux
  4459 ;; This function uses a non-reentrant model
  4460 ;;
  4461                           
  4462                           
  4463                           ;psect for function ___lwtoft
  4464  0981                     ___lwtoft:	
  4465                           
  4466                           ;incstack = 0
  4467                           ; Regs used in ___lwtoft: [wreg+status,2+status,0+pclath+cstack]
  4468  0981  0878               	movf	___lwtoft@c,w
  4469  0982  00F0               	movwf	___ftpack@arg
  4470  0983  0879               	movf	___lwtoft@c+1,w
  4471  0984  00F1               	movwf	___ftpack@arg+1
  4472  0985  01F2               	clrf	___ftpack@arg+2
  4473  0986  308E               	movlw	142
  4474  0987  00FB               	movwf	??___lwtoft
  4475  0988  087B               	movf	??___lwtoft,w
  4476  0989  00F3               	movwf	___ftpack@exp
  4477  098A  01F4               	clrf	___ftpack@sign
  4478  098B  318C  247B         	fcall	___ftpack
  4479  098D  0870               	movf	?___ftpack,w
  4480  098E  00F8               	movwf	?___lwtoft
  4481  098F  0871               	movf	?___ftpack+1,w
  4482  0990  00F9               	movwf	?___lwtoft+1
  4483  0991  0872               	movf	?___ftpack+2,w
  4484  0992  00FA               	movwf	?___lwtoft+2
  4485  0993  0008               	return
  4486  0994                     __end_of___lwtoft:	
  4487                           
  4488                           	psect	text14
  4489  0DD2                     __ptext14:	
  4490 ;; *************** function ___fttol *****************
  4491 ;; Defined at:
  4492 ;;		line 44 in file "/opt/microchip/xc8/v1.45/sources/common/fttol.c"
  4493 ;; Parameters:    Size  Location     Type
  4494 ;;  f1              3   16[BANK0 ] float 
  4495 ;; Auto vars:     Size  Location     Type
  4496 ;;  lval            4   25[BANK0 ] unsigned long 
  4497 ;;  exp1            1   29[BANK0 ] unsigned char 
  4498 ;;  sign1           1   24[BANK0 ] unsigned char 
  4499 ;; Return value:  Size  Location     Type
  4500 ;;                  4   16[BANK0 ] long 
  4501 ;; Registers used:
  4502 ;;		wreg, status,2, status,0
  4503 ;; Tracked objects:
  4504 ;;		On entry : 0/0
  4505 ;;		On exit  : 0/0
  4506 ;;		Unchanged: 0/0
  4507 ;; Data sizes:     COMMON   BANK0   BANK1   BANK2   BANK3   BANK4   BANK5   BANK6   BANK7   BANK8   BANK9  BANK10  BANK1
      +1  BANK12
  4508 ;;      Params:         0       4       0       0       0       0       0       0       0       0       0       0       
      +0       0
  4509 ;;      Locals:         0       6       0       0       0       0       0       0       0       0       0       0       
      +0       0
  4510 ;;      Temps:          0       4       0       0       0       0       0       0       0       0       0       0       
      +0       0
  4511 ;;      Totals:         0      14       0       0       0       0       0       0       0       0       0       0       
      +0       0
  4512 ;;Total ram usage:       14 bytes
  4513 ;; Hardware stack levels used:    1
  4514 ;; This function calls:
  4515 ;;		Nothing
  4516 ;; This function is called by:
  4517 ;;		_LireLux
  4518 ;; This function uses a non-reentrant model
  4519 ;;
  4520                           
  4521                           
  4522                           ;psect for function ___fttol
  4523  0DD2                     ___fttol:	
  4524                           
  4525                           ;incstack = 0
  4526                           ; Regs used in ___fttol: [wreg+status,2+status,0]
  4527  0DD2  0020               	movlb	0	; select bank0
  4528  0DD3  0830               	movf	___fttol@f1,w
  4529  0DD4  00B4               	movwf	??___fttol
  4530  0DD5  0831               	movf	___fttol@f1+1,w
  4531  0DD6  00B5               	movwf	??___fttol+1
  4532  0DD7  0832               	movf	___fttol@f1+2,w
  4533  0DD8  00B6               	movwf	??___fttol+2
  4534  0DD9  1003               	clrc
  4535  0DDA  0D35               	rlf	??___fttol+1,w
  4536  0DDB  0D36               	rlf	??___fttol+2,w
  4537  0DDC  00B7               	movwf	??___fttol+3
  4538  0DDD  0837               	movf	??___fttol+3,w
  4539  0DDE  00BD               	movwf	___fttol@exp1
  4540  0DDF  083D               	movf	___fttol@exp1,w
  4541  0DE0  1D03               	btfss	3,2
  4542  0DE1  2DEB               	goto	l1631
  4543  0DE2  3000               	movlw	0
  4544  0DE3  00B3               	movwf	?___fttol+3
  4545  0DE4  3000               	movlw	0
  4546  0DE5  00B2               	movwf	?___fttol+2
  4547  0DE6  3000               	movlw	0
  4548  0DE7  00B1               	movwf	?___fttol+1
  4549  0DE8  3000               	movlw	0
  4550  0DE9  00B0               	movwf	?___fttol
  4551  0DEA  0008               	return
  4552  0DEB                     l1631:	
  4553  0DEB  0830               	movf	___fttol@f1,w
  4554  0DEC  00B4               	movwf	??___fttol
  4555  0DED  0831               	movf	___fttol@f1+1,w
  4556  0DEE  00B5               	movwf	??___fttol+1
  4557  0DEF  0832               	movf	___fttol@f1+2,w
  4558  0DF0  00B6               	movwf	??___fttol+2
  4559  0DF1  3017               	movlw	23
  4560  0DF2                     u1455:	
  4561  0DF2  36B6               	lsrf	??___fttol+2,f
  4562  0DF3  0CB5               	rrf	??___fttol+1,f
  4563  0DF4  0CB4               	rrf	??___fttol,f
  4564  0DF5  0B89               	decfsz	9,f
  4565  0DF6  2DF2               	goto	u1455
  4566  0DF7  0834               	movf	??___fttol,w
  4567  0DF8  00B7               	movwf	??___fttol+3
  4568  0DF9  0837               	movf	??___fttol+3,w
  4569  0DFA  00B8               	movwf	___fttol@sign1
  4570  0DFB  17B1               	bsf	___fttol@f1+1,7
  4571  0DFC  30FF               	movlw	255
  4572  0DFD  05B0               	andwf	___fttol@f1,f
  4573  0DFE  30FF               	movlw	255
  4574  0DFF  05B1               	andwf	___fttol@f1+1,f
  4575  0E00  3000               	movlw	0
  4576  0E01  05B2               	andwf	___fttol@f1+2,f
  4577  0E02  0830               	movf	___fttol@f1,w
  4578  0E03  00B9               	movwf	___fttol@lval
  4579  0E04  0831               	movf	___fttol@f1+1,w
  4580  0E05  00BA               	movwf	___fttol@lval+1
  4581  0E06  0832               	movf	___fttol@f1+2,w
  4582  0E07  00BB               	movwf	___fttol@lval+2
  4583  0E08  01BC               	clrf	___fttol@lval+3
  4584  0E09  308E               	movlw	142
  4585  0E0A  02BD               	subwf	___fttol@exp1,f
  4586  0E0B  1FBD               	btfss	___fttol@exp1,7
  4587  0E0C  2E29               	goto	l1651
  4588  0E0D  083D               	movf	___fttol@exp1,w
  4589  0E0E  3A80               	xorlw	128
  4590  0E0F  3E8F               	addlw	143
  4591  0E10  1803               	skipnc
  4592  0E11  2E1B               	goto	l1649
  4593  0E12  3000               	movlw	0
  4594  0E13  00B3               	movwf	?___fttol+3
  4595  0E14  3000               	movlw	0
  4596  0E15  00B2               	movwf	?___fttol+2
  4597  0E16  3000               	movlw	0
  4598  0E17  00B1               	movwf	?___fttol+1
  4599  0E18  3000               	movlw	0
  4600  0E19  00B0               	movwf	?___fttol
  4601  0E1A  0008               	return
  4602  0E1B                     l1649:	
  4603  0E1B  3001               	movlw	1
  4604  0E1C                     u1485:	
  4605  0E1C  36BC               	lsrf	___fttol@lval+3,f
  4606  0E1D  0CBB               	rrf	___fttol@lval+2,f
  4607  0E1E  0CBA               	rrf	___fttol@lval+1,f
  4608  0E1F  0CB9               	rrf	___fttol@lval,f
  4609  0E20  0B89               	decfsz	9,f
  4610  0E21  2E1C               	goto	u1485
  4611  0E22  3001               	movlw	1
  4612  0E23  00B4               	movwf	??___fttol
  4613  0E24  0834               	movf	??___fttol,w
  4614  0E25  07BD               	addwf	___fttol@exp1,f
  4615  0E26  1903               	btfsc	3,2
  4616  0E27  2E42               	goto	l1659
  4617  0E28  2E1B               	goto	l1649
  4618  0E29                     l1651:	
  4619  0E29  3018               	movlw	24
  4620  0E2A  023D               	subwf	___fttol@exp1,w
  4621  0E2B  1C03               	skipc
  4622  0E2C  2E3F               	goto	l673
  4623  0E2D  3000               	movlw	0
  4624  0E2E  00B3               	movwf	?___fttol+3
  4625  0E2F  3000               	movlw	0
  4626  0E30  00B2               	movwf	?___fttol+2
  4627  0E31  3000               	movlw	0
  4628  0E32  00B1               	movwf	?___fttol+1
  4629  0E33  3000               	movlw	0
  4630  0E34  00B0               	movwf	?___fttol
  4631  0E35  0008               	return
  4632  0E36                     l1657:	
  4633  0E36  3001               	movlw	1
  4634  0E37                     u1515:	
  4635  0E37  35B9               	lslf	___fttol@lval,f
  4636  0E38  0DBA               	rlf	___fttol@lval+1,f
  4637  0E39  0DBB               	rlf	___fttol@lval+2,f
  4638  0E3A  0DBC               	rlf	___fttol@lval+3,f
  4639  0E3B  0B89               	decfsz	9,f
  4640  0E3C  2E37               	goto	u1515
  4641  0E3D  3001               	movlw	1
  4642  0E3E  02BD               	subwf	___fttol@exp1,f
  4643  0E3F                     l673:	
  4644  0E3F  083D               	movf	___fttol@exp1,w
  4645  0E40  1D03               	btfss	3,2
  4646  0E41  2E36               	goto	l1657
  4647  0E42                     l1659:	
  4648  0E42  0838               	movf	___fttol@sign1,w
  4649  0E43  1903               	btfsc	3,2
  4650  0E44  2E50               	goto	l1663
  4651  0E45  09B9               	comf	___fttol@lval,f
  4652  0E46  09BA               	comf	___fttol@lval+1,f
  4653  0E47  09BB               	comf	___fttol@lval+2,f
  4654  0E48  09BC               	comf	___fttol@lval+3,f
  4655  0E49  0AB9               	incf	___fttol@lval,f
  4656  0E4A  1903               	skipnz
  4657  0E4B  0ABA               	incf	___fttol@lval+1,f
  4658  0E4C  1903               	skipnz
  4659  0E4D  0ABB               	incf	___fttol@lval+2,f
  4660  0E4E  1903               	skipnz
  4661  0E4F  0ABC               	incf	___fttol@lval+3,f
  4662  0E50                     l1663:	
  4663  0E50  083C               	movf	___fttol@lval+3,w
  4664  0E51  00B3               	movwf	?___fttol+3
  4665  0E52  083B               	movf	___fttol@lval+2,w
  4666  0E53  00B2               	movwf	?___fttol+2
  4667  0E54  083A               	movf	___fttol@lval+1,w
  4668  0E55  00B1               	movwf	?___fttol+1
  4669  0E56  0839               	movf	___fttol@lval,w
  4670  0E57  00B0               	movwf	?___fttol
  4671  0E58  0008               	return
  4672  0E59                     __end_of___fttol:	
  4673                           
  4674                           	psect	text15
  4675  09C0                     __ptext15:	
  4676 ;; *************** function _BH1750_Write *****************
  4677 ;; Defined at:
  4678 ;;		line 3 in file "BH1750.c"
  4679 ;; Parameters:    Size  Location     Type
  4680 ;;  data1           1    wreg     unsigned char 
  4681 ;; Auto vars:     Size  Location     Type
  4682 ;;  data1           1    4[COMMON] unsigned char 
  4683 ;; Return value:  Size  Location     Type
  4684 ;;                  1    wreg      void 
  4685 ;; Registers used:
  4686 ;;		wreg, status,2, status,0, pclath, cstack
  4687 ;; Tracked objects:
  4688 ;;		On entry : 0/0
  4689 ;;		On exit  : 0/0
  4690 ;;		Unchanged: 0/0
  4691 ;; Data sizes:     COMMON   BANK0   BANK1   BANK2   BANK3   BANK4   BANK5   BANK6   BANK7   BANK8   BANK9  BANK10  BANK1
      +1  BANK12
  4692 ;;      Params:         0       0       0       0       0       0       0       0       0       0       0       0       
      +0       0
  4693 ;;      Locals:         1       0       0       0       0       0       0       0       0       0       0       0       
      +0       0
  4694 ;;      Temps:          2       0       0       0       0       0       0       0       0       0       0       0       
      +0       0
  4695 ;;      Totals:         3       0       0       0       0       0       0       0       0       0       0       0       
      +0       0
  4696 ;;Total ram usage:        3 bytes
  4697 ;; Hardware stack levels used:    1
  4698 ;; Hardware stack levels required when called:    2
  4699 ;; This function calls:
  4700 ;;		_I2C_Master_Start
  4701 ;;		_I2C_Master_Stop
  4702 ;;		_I2C_Master_Write
  4703 ;; This function is called by:
  4704 ;;		_LireLux
  4705 ;; This function uses a non-reentrant model
  4706 ;;
  4707                           
  4708                           
  4709                           ;psect for function _BH1750_Write
  4710  09C0                     _BH1750_Write:	
  4711                           
  4712                           ;incstack = 0
  4713                           ; Regs used in _BH1750_Write: [wreg+status,2+status,0+pclath+cstack]
  4714                           ;BH1750_Write@data1 stored from wreg
  4715  09C0  00F4               	movwf	BH1750_Write@data1
  4716                           
  4717                           ;BH1750.c: 6: I2C_Master_Start();
  4718  09C1  3189  2134  3189   	fcall	_I2C_Master_Start
  4719                           
  4720                           ;BH1750.c: 7: I2C_Master_Write(0x46);
  4721  09C4  3046               	movlw	70
  4722  09C5  00F0               	movwf	I2C_Master_Write@d
  4723  09C6  3000               	movlw	0
  4724  09C7  00F1               	movwf	I2C_Master_Write@d+1
  4725  09C8  3189  2143  3189   	fcall	_I2C_Master_Write
  4726                           
  4727                           ;BH1750.c: 8: I2C_Master_Write(data1);
  4728  09CB  0874               	movf	BH1750_Write@data1,w
  4729  09CC  00F2               	movwf	??_BH1750_Write
  4730  09CD  01F3               	clrf	??_BH1750_Write+1
  4731  09CE  0872               	movf	??_BH1750_Write,w
  4732  09CF  00F0               	movwf	I2C_Master_Write@d
  4733  09D0  0873               	movf	??_BH1750_Write+1,w
  4734  09D1  00F1               	movwf	I2C_Master_Write@d+1
  4735  09D2  3189  2143  3189   	fcall	_I2C_Master_Write
  4736                           
  4737                           ;BH1750.c: 9: I2C_Master_Stop();
  4738  09D5  3189  2139         	fcall	_I2C_Master_Stop
  4739  09D7  0008               	return
  4740  09D8                     __end_of_BH1750_Write:	
  4741                           
  4742                           	psect	text16
  4743  0A81                     __ptext16:	
  4744 ;; *************** function _BH1750_Read *****************
  4745 ;; Defined at:
  4746 ;;		line 12 in file "BH1750.c"
  4747 ;; Parameters:    Size  Location     Type
  4748 ;;		None
  4749 ;; Auto vars:     Size  Location     Type
  4750 ;;  res             2    8[COMMON] unsigned int 
  4751 ;; Return value:  Size  Location     Type
  4752 ;;                  2    6[COMMON] unsigned int 
  4753 ;; Registers used:
  4754 ;;		wreg, status,2, status,0, pclath, cstack
  4755 ;; Tracked objects:
  4756 ;;		On entry : 0/0
  4757 ;;		On exit  : 0/0
  4758 ;;		Unchanged: 0/0
  4759 ;; Data sizes:     COMMON   BANK0   BANK1   BANK2   BANK3   BANK4   BANK5   BANK6   BANK7   BANK8   BANK9  BANK10  BANK1
      +1  BANK12
  4760 ;;      Params:         2       0       0       0       0       0       0       0       0       0       0       0       
      +0       0
  4761 ;;      Locals:         2       0       0       0       0       0       0       0       0       0       0       0       
      +0       0
  4762 ;;      Temps:          0       0       0       0       0       0       0       0       0       0       0       0       
      +0       0
  4763 ;;      Totals:         4       0       0       0       0       0       0       0       0       0       0       0       
      +0       0
  4764 ;;Total ram usage:        4 bytes
  4765 ;; Hardware stack levels used:    1
  4766 ;; Hardware stack levels required when called:    2
  4767 ;; This function calls:
  4768 ;;		_I2C_Master_Read
  4769 ;;		_I2C_Master_Start
  4770 ;;		_I2C_Master_Stop
  4771 ;;		_I2C_Master_Wait
  4772 ;;		_I2C_Master_Write
  4773 ;; This function is called by:
  4774 ;;		_LireLux
  4775 ;; This function uses a non-reentrant model
  4776 ;;
  4777                           
  4778                           
  4779                           ;psect for function _BH1750_Read
  4780  0A81                     _BH1750_Read:	
  4781                           
  4782                           ;BH1750.c: 14: uint16_t res ;
  4783                           ;BH1750.c: 15: I2C_Master_Start();
  4784                           
  4785                           ;incstack = 0
  4786                           ; Regs used in _BH1750_Read: [wreg+status,2+status,0+pclath+cstack]
  4787  0A81  3189  2134  318A   	fcall	_I2C_Master_Start
  4788                           
  4789                           ;BH1750.c: 16: I2C_Master_Write(0x47);
  4790  0A84  3047               	movlw	71
  4791  0A85  00F0               	movwf	I2C_Master_Write@d
  4792  0A86  3000               	movlw	0
  4793  0A87  00F1               	movwf	I2C_Master_Write@d+1
  4794  0A88  3189  2143  318A   	fcall	_I2C_Master_Write
  4795                           
  4796                           ;BH1750.c: 17: res = I2C_Master_Read(1);
  4797  0A8B  3001               	movlw	1
  4798  0A8C  00F0               	movwf	I2C_Master_Read@a
  4799  0A8D  3000               	movlw	0
  4800  0A8E  00F1               	movwf	I2C_Master_Read@a+1
  4801  0A8F  318A  220C  318A   	fcall	_I2C_Master_Read
  4802  0A92  0871               	movf	?_I2C_Master_Read+1,w
  4803  0A93  00F9               	movwf	BH1750_Read@res+1
  4804  0A94  0870               	movf	?_I2C_Master_Read,w
  4805  0A95  00F8               	movwf	BH1750_Read@res
  4806                           
  4807                           ;BH1750.c: 18: res <<= 8;
  4808  0A96  3008               	movlw	8
  4809  0A97                     u1265:	
  4810  0A97  35F8               	lslf	BH1750_Read@res,f
  4811  0A98  0DF9               	rlf	BH1750_Read@res+1,f
  4812  0A99  0B89               	decfsz	9,f
  4813  0A9A  2A97               	goto	u1265
  4814                           
  4815                           ;BH1750.c: 19: res |= I2C_Master_Read(0);
  4816  0A9B  3000               	movlw	0
  4817  0A9C  00F0               	movwf	I2C_Master_Read@a
  4818  0A9D  00F1               	movwf	I2C_Master_Read@a+1
  4819  0A9E  318A  220C  318A   	fcall	_I2C_Master_Read
  4820  0AA1  0870               	movf	?_I2C_Master_Read,w
  4821  0AA2  04F8               	iorwf	BH1750_Read@res,f
  4822  0AA3  0871               	movf	?_I2C_Master_Read+1,w
  4823  0AA4  04F9               	iorwf	BH1750_Read@res+1,f
  4824                           
  4825                           ;BH1750.c: 20: I2C_Master_Wait();
  4826  0AA5  3189  214F  318A   	fcall	_I2C_Master_Wait
  4827                           
  4828                           ;BH1750.c: 21: I2C_Master_Stop();
  4829  0AA8  3189  2139         	fcall	_I2C_Master_Stop
  4830                           
  4831                           ;BH1750.c: 22: return res;
  4832  0AAA  0879               	movf	BH1750_Read@res+1,w
  4833  0AAB  00F7               	movwf	?_BH1750_Read+1
  4834  0AAC  0878               	movf	BH1750_Read@res,w
  4835  0AAD  00F6               	movwf	?_BH1750_Read
  4836  0AAE  0008               	return
  4837  0AAF                     __end_of_BH1750_Read:	
  4838                           
  4839                           	psect	text17
  4840  0ADE                     __ptext17:	
  4841 ;; *************** function _I2C_Master_Init *****************
  4842 ;; Defined at:
  4843 ;;		line 10 in file "I2C1.c"
  4844 ;; Parameters:    Size  Location     Type
  4845 ;;  c               4    0[BANK0 ] const unsigned long 
  4846 ;; Auto vars:     Size  Location     Type
  4847 ;;		None
  4848 ;; Return value:  Size  Location     Type
  4849 ;;                  1    wreg      void 
  4850 ;; Registers used:
  4851 ;;		wreg, status,2, status,0, pclath, cstack
  4852 ;; Tracked objects:
  4853 ;;		On entry : 0/0
  4854 ;;		On exit  : 0/0
  4855 ;;		Unchanged: 0/0
  4856 ;; Data sizes:     COMMON   BANK0   BANK1   BANK2   BANK3   BANK4   BANK5   BANK6   BANK7   BANK8   BANK9  BANK10  BANK1
      +1  BANK12
  4857 ;;      Params:         0       4       0       0       0       0       0       0       0       0       0       0       
      +0       0
  4858 ;;      Locals:         0       0       0       0       0       0       0       0       0       0       0       0       
      +0       0
  4859 ;;      Temps:          0       4       0       0       0       0       0       0       0       0       0       0       
      +0       0
  4860 ;;      Totals:         0       8       0       0       0       0       0       0       0       0       0       0       
      +0       0
  4861 ;;Total ram usage:        8 bytes
  4862 ;; Hardware stack levels used:    1
  4863 ;; Hardware stack levels required when called:    1
  4864 ;; This function calls:
  4865 ;;		___lldiv
  4866 ;; This function is called by:
  4867 ;;		_main
  4868 ;; This function uses a non-reentrant model
  4869 ;;
  4870                           
  4871                           
  4872                           ;psect for function _I2C_Master_Init
  4873  0ADE                     _I2C_Master_Init:	
  4874                           
  4875                           ;I2C1.c: 12: SSP1CON1 = 0b00101000;
  4876                           
  4877                           ;incstack = 0
  4878                           ; Regs used in _I2C_Master_Init: [wreg+status,2+status,0+pclath+cstack]
  4879  0ADE  3028               	movlw	40
  4880  0ADF  0024               	movlb	4	; select bank4
  4881  0AE0  0095               	movwf	21	;volatile
  4882                           
  4883                           ;I2C1.c: 13: SSP1CON2 = 0;
  4884  0AE1  0196               	clrf	22	;volatile
  4885                           
  4886                           ;I2C1.c: 14: SSP1ADD = (2000000/(4*c))-1;
  4887  0AE2  0020               	movlb	0	; select bank0
  4888  0AE3  0820               	movf	I2C_Master_Init@c,w
  4889  0AE4  00A4               	movwf	??_I2C_Master_Init
  4890  0AE5  0821               	movf	I2C_Master_Init@c+1,w
  4891  0AE6  00A5               	movwf	??_I2C_Master_Init+1
  4892  0AE7  0822               	movf	I2C_Master_Init@c+2,w
  4893  0AE8  00A6               	movwf	??_I2C_Master_Init+2
  4894  0AE9  0823               	movf	I2C_Master_Init@c+3,w
  4895  0AEA  00A7               	movwf	??_I2C_Master_Init+3
  4896  0AEB  3002               	movlw	2
  4897  0AEC                     u1685:	
  4898  0AEC  35A4               	lslf	??_I2C_Master_Init,f
  4899  0AED  0DA5               	rlf	??_I2C_Master_Init+1,f
  4900  0AEE  0DA6               	rlf	??_I2C_Master_Init+2,f
  4901  0AEF  0DA7               	rlf	??_I2C_Master_Init+3,f
  4902  0AF0  0B89               	decfsz	9,f
  4903  0AF1  2AEC               	goto	u1685
  4904  0AF2  0827               	movf	??_I2C_Master_Init+3,w
  4905  0AF3  00F3               	movwf	___lldiv@divisor+3
  4906  0AF4  0826               	movf	??_I2C_Master_Init+2,w
  4907  0AF5  00F2               	movwf	___lldiv@divisor+2
  4908  0AF6  0825               	movf	??_I2C_Master_Init+1,w
  4909  0AF7  00F1               	movwf	___lldiv@divisor+1
  4910  0AF8  0824               	movf	??_I2C_Master_Init,w
  4911  0AF9  00F0               	movwf	___lldiv@divisor
  4912  0AFA  3000               	movlw	0
  4913  0AFB  00F7               	movwf	___lldiv@dividend+3
  4914  0AFC  301E               	movlw	30
  4915  0AFD  00F6               	movwf	___lldiv@dividend+2
  4916  0AFE  3084               	movlw	132
  4917  0AFF  00F5               	movwf	___lldiv@dividend+1
  4918  0B00  3080               	movlw	128
  4919  0B01  00F4               	movwf	___lldiv@dividend
  4920  0B02  3180  2006         	fcall	___lldiv
  4921  0B04  0870               	movf	?___lldiv,w
  4922  0B05  3EFF               	addlw	255
  4923  0B06  0024               	movlb	4	; select bank4
  4924  0B07  0092               	movwf	18	;volatile
  4925                           
  4926                           ;I2C1.c: 15: SSP1STAT = 0;
  4927  0B08  0194               	clrf	20	;volatile
  4928                           
  4929                           ;I2C1.c: 16: TRISAbits.TRISA5 = 1;
  4930  0B09  0021               	movlb	1	; select bank1
  4931  0B0A  168C               	bsf	12,5	;volatile
  4932                           
  4933                           ;I2C1.c: 17: TRISAbits.TRISA4 = 1;
  4934  0B0B  160C               	bsf	12,4	;volatile
  4935  0B0C  0008               	return
  4936  0B0D                     __end_of_I2C_Master_Init:	
  4937                           
  4938                           	psect	text18
  4939  0058                     __ptext18:	
  4940 ;; *************** function _BME280_readTemperature *****************
  4941 ;; Defined at:
  4942 ;;		line 180 in file "bme280.c"
  4943 ;; Parameters:    Size  Location     Type
  4944 ;;		None
  4945 ;; Auto vars:     Size  Location     Type
  4946 ;;  adc_T           4   57[BANK0 ] long 
  4947 ;;  var2            4   46[BANK0 ] long 
  4948 ;;  var1            4   42[BANK0 ] long 
  4949 ;;  temperature     3   54[BANK0 ] float 
  4950 ;; Return value:  Size  Location     Type
  4951 ;;                  3   16[BANK0 ] float 
  4952 ;; Registers used:
  4953 ;;		wreg, status,2, status,0, pclath, cstack
  4954 ;; Tracked objects:
  4955 ;;		On entry : 0/0
  4956 ;;		On exit  : 0/0
  4957 ;;		Unchanged: 0/0
  4958 ;; Data sizes:     COMMON   BANK0   BANK1   BANK2   BANK3   BANK4   BANK5   BANK6   BANK7   BANK8   BANK9  BANK10  BANK1
      +1  BANK12
  4959 ;;      Params:         0       3       0       0       0       0       0       0       0       0       0       0       
      +0       0
  4960 ;;      Locals:         0      19       0       0       0       0       0       0       0       0       0       0       
      +0       0
  4961 ;;      Temps:          0      23       0       0       0       0       0       0       0       0       0       0       
      +0       0
  4962 ;;      Totals:         0      45       0       0       0       0       0       0       0       0       0       0       
      +0       0
  4963 ;;Total ram usage:       45 bytes
  4964 ;; Hardware stack levels used:    1
  4965 ;; Hardware stack levels required when called:    3
  4966 ;; This function calls:
  4967 ;;		_BME280_read24
  4968 ;;		___altoft
  4969 ;;		___ftdiv
  4970 ;;		___lmul
  4971 ;; This function is called by:
  4972 ;;		_main
  4973 ;; This function uses a non-reentrant model
  4974 ;;
  4975                           
  4976                           
  4977                           ;psect for function _BME280_readTemperature
  4978  0058                     _BME280_readTemperature:	
  4979                           
  4980                           ;bme280.c: 182: float temperature ;
  4981                           ;bme280.c: 183: int32_t var1, var2;
  4982                           ;bme280.c: 185: int32_t adc_T = BME280_read24(0xFA);
  4983                           
  4984                           ;incstack = 0
  4985                           ; Regs used in _BME280_readTemperature: [wreg+status,2+status,0+pclath+cstack]
  4986  0058  30FA               	movlw	250
  4987  0059  318D  254C  3180   	fcall	_BME280_read24
  4988  005C  0879               	movf	?_BME280_read24+3,w
  4989  005D  0020               	movlb	0	; select bank0
  4990  005E  00DC               	movwf	BME280_readTemperature@adc_T+3
  4991  005F  0878               	movf	?_BME280_read24+2,w
  4992  0060  00DB               	movwf	BME280_readTemperature@adc_T+2
  4993  0061  0877               	movf	?_BME280_read24+1,w
  4994  0062  00DA               	movwf	BME280_readTemperature@adc_T+1
  4995  0063  0876               	movf	?_BME280_read24,w
  4996  0064  00D9               	movwf	BME280_readTemperature@adc_T
  4997                           
  4998                           ;bme280.c: 187: adc_T >>= 4;
  4999  0065  3004               	movlw	4
  5000  0066  00B3               	movwf	??_BME280_readTemperature
  5001  0067                     u1715:	
  5002  0067  37DC               	asrf	BME280_readTemperature@adc_T+3,f
  5003  0068  0CDB               	rrf	BME280_readTemperature@adc_T+2,f
  5004  0069  0CDA               	rrf	BME280_readTemperature@adc_T+1,f
  5005  006A  0CD9               	rrf	BME280_readTemperature@adc_T,f
  5006  006B  0BB3               	decfsz	??_BME280_readTemperature& (0+127),f
  5007  006C  2867               	goto	u1715
  5008                           
  5009                           ;bme280.c: 189: var1 = ((((adc_T>>3) - ((int32_t)cal_data.dig_T1 <<1))) *
  5010                           ;bme280.c: 191: ((int32_t)cal_data.dig_T2)) >> 11;
  5011  006D  0021               	movlb	1	; select bank1
  5012  006E  0839               	movf	_cal_data^(0+128),w
  5013  006F  0020               	movlb	0	; select bank0
  5014  0070  00B3               	movwf	??_BME280_readTemperature
  5015  0071  0021               	movlb	1	; select bank1
  5016  0072  083A               	movf	(_cal_data+1)^(0+128),w
  5017  0073  0020               	movlb	0	; select bank0
  5018  0074  00B4               	movwf	??_BME280_readTemperature+1
  5019  0075  01B5               	clrf	??_BME280_readTemperature+2
  5020  0076  01B6               	clrf	??_BME280_readTemperature+3
  5021  0077  3001               	movlw	1
  5022  0078                     u1725:	
  5023  0078  35B3               	lslf	??_BME280_readTemperature,f
  5024  0079  0DB4               	rlf	??_BME280_readTemperature+1,f
  5025  007A  0DB5               	rlf	??_BME280_readTemperature+2,f
  5026  007B  0DB6               	rlf	??_BME280_readTemperature+3,f
  5027  007C  0B89               	decfsz	9,f
  5028  007D  2878               	goto	u1725
  5029  007E  09B3               	comf	??_BME280_readTemperature,f
  5030  007F  09B4               	comf	??_BME280_readTemperature+1,f
  5031  0080  09B5               	comf	??_BME280_readTemperature+2,f
  5032  0081  09B6               	comf	??_BME280_readTemperature+3,f
  5033  0082  0AB3               	incf	??_BME280_readTemperature,f
  5034  0083  1903               	skipnz
  5035  0084  0AB4               	incf	??_BME280_readTemperature+1,f
  5036  0085  1903               	skipnz
  5037  0086  0AB5               	incf	??_BME280_readTemperature+2,f
  5038  0087  1903               	skipnz
  5039  0088  0AB6               	incf	??_BME280_readTemperature+3,f
  5040  0089  0859               	movf	BME280_readTemperature@adc_T,w
  5041  008A  00B7               	movwf	??_BME280_readTemperature+4
  5042  008B  085A               	movf	BME280_readTemperature@adc_T+1,w
  5043  008C  00B8               	movwf	??_BME280_readTemperature+5
  5044  008D  085B               	movf	BME280_readTemperature@adc_T+2,w
  5045  008E  00B9               	movwf	??_BME280_readTemperature+6
  5046  008F  085C               	movf	BME280_readTemperature@adc_T+3,w
  5047  0090  00BA               	movwf	??_BME280_readTemperature+7
  5048  0091  3003               	movlw	3
  5049  0092  00BB               	movwf	??_BME280_readTemperature+8
  5050  0093                     u1735:	
  5051  0093  37BA               	asrf	??_BME280_readTemperature+7,f
  5052  0094  0CB9               	rrf	??_BME280_readTemperature+6,f
  5053  0095  0CB8               	rrf	??_BME280_readTemperature+5,f
  5054  0096  0CB7               	rrf	??_BME280_readTemperature+4,f
  5055  0097  0BBB               	decfsz	??_BME280_readTemperature+8,f
  5056  0098  2893               	goto	u1735
  5057  0099  0837               	movf	??_BME280_readTemperature+4,w
  5058  009A  07B3               	addwf	??_BME280_readTemperature,f
  5059  009B  0838               	movf	??_BME280_readTemperature+5,w
  5060  009C  3DB4               	addwfc	??_BME280_readTemperature+1,f
  5061  009D  0839               	movf	??_BME280_readTemperature+6,w
  5062  009E  3DB5               	addwfc	??_BME280_readTemperature+2,f
  5063  009F  083A               	movf	??_BME280_readTemperature+7,w
  5064  00A0  3DB6               	addwfc	??_BME280_readTemperature+3,f
  5065  00A1  0836               	movf	??_BME280_readTemperature+3,w
  5066  00A2  00F3               	movwf	___lmul@multiplier+3
  5067  00A3  0835               	movf	??_BME280_readTemperature+2,w
  5068  00A4  00F2               	movwf	___lmul@multiplier+2
  5069  00A5  0834               	movf	??_BME280_readTemperature+1,w
  5070  00A6  00F1               	movwf	___lmul@multiplier+1
  5071  00A7  0833               	movf	??_BME280_readTemperature,w
  5072  00A8  00F0               	movwf	___lmul@multiplier
  5073  00A9  0021               	movlb	1	; select bank1
  5074  00AA  083B               	movf	(_cal_data^(0+128)+2),w
  5075  00AB  00F4               	movwf	___lmul@multiplicand
  5076  00AC  083C               	movf	((_cal_data+1)^(0+128)+2),w
  5077  00AD  00F5               	movwf	___lmul@multiplicand+1
  5078  00AE  0D89               	rlf	9,f
  5079  00AF  3B89               	subwfb	9,f
  5080  00B0  0989               	comf	9,f
  5081  00B1  00F6               	movwf	___lmul@multiplicand+2
  5082  00B2  00F7               	movwf	___lmul@multiplicand+3
  5083  00B3  318A  22AF  3180   	fcall	___lmul
  5084  00B6  0870               	movf	?___lmul,w
  5085  00B7  0020               	movlb	0	; select bank0
  5086  00B8  00BC               	movwf	??_BME280_readTemperature+9
  5087  00B9  0871               	movf	?___lmul+1,w
  5088  00BA  00BD               	movwf	??_BME280_readTemperature+10
  5089  00BB  0872               	movf	?___lmul+2,w
  5090  00BC  00BE               	movwf	??_BME280_readTemperature+11
  5091  00BD  0873               	movf	?___lmul+3,w
  5092  00BE  00BF               	movwf	??_BME280_readTemperature+12
  5093  00BF  300B               	movlw	11
  5094  00C0  00C0               	movwf	??_BME280_readTemperature+13
  5095  00C1                     u1745:	
  5096  00C1  37BF               	asrf	??_BME280_readTemperature+12,f
  5097  00C2  0CBE               	rrf	??_BME280_readTemperature+11,f
  5098  00C3  0CBD               	rrf	??_BME280_readTemperature+10,f
  5099  00C4  0CBC               	rrf	??_BME280_readTemperature+9,f
  5100  00C5  0BC0               	decfsz	??_BME280_readTemperature+13,f
  5101  00C6  28C1               	goto	u1745
  5102  00C7  083F               	movf	??_BME280_readTemperature+12,w
  5103  00C8  00CD               	movwf	BME280_readTemperature@var1+3
  5104  00C9  083E               	movf	??_BME280_readTemperature+11,w
  5105  00CA  00CC               	movwf	BME280_readTemperature@var1+2
  5106  00CB  083D               	movf	??_BME280_readTemperature+10,w
  5107  00CC  00CB               	movwf	BME280_readTemperature@var1+1
  5108  00CD  083C               	movf	??_BME280_readTemperature+9,w
  5109  00CE  00CA               	movwf	BME280_readTemperature@var1
  5110                           
  5111                           ;bme280.c: 193: var2 = (((((adc_T>>4) - ((int32_t)cal_data.dig_T1)) *
  5112                           ;bme280.c: 195: ((adc_T>>4) - ((int32_t)cal_data.dig_T1))) >> 12) *
  5113                           ;bme280.c: 197: ((int32_t)cal_data.dig_T3)) >> 14;
  5114  00CF  0021               	movlb	1	; select bank1
  5115  00D0  0839               	movf	_cal_data^(0+128),w
  5116  00D1  0020               	movlb	0	; select bank0
  5117  00D2  00B3               	movwf	??_BME280_readTemperature
  5118  00D3  0021               	movlb	1	; select bank1
  5119  00D4  083A               	movf	(_cal_data+1)^(0+128),w
  5120  00D5  0020               	movlb	0	; select bank0
  5121  00D6  00B4               	movwf	??_BME280_readTemperature+1
  5122  00D7  01B5               	clrf	??_BME280_readTemperature+2
  5123  00D8  01B6               	clrf	??_BME280_readTemperature+3
  5124  00D9  09B3               	comf	??_BME280_readTemperature,f
  5125  00DA  09B4               	comf	??_BME280_readTemperature+1,f
  5126  00DB  09B5               	comf	??_BME280_readTemperature+2,f
  5127  00DC  09B6               	comf	??_BME280_readTemperature+3,f
  5128  00DD  0AB3               	incf	??_BME280_readTemperature,f
  5129  00DE  1903               	skipnz
  5130  00DF  0AB4               	incf	??_BME280_readTemperature+1,f
  5131  00E0  1903               	skipnz
  5132  00E1  0AB5               	incf	??_BME280_readTemperature+2,f
  5133  00E2  1903               	skipnz
  5134  00E3  0AB6               	incf	??_BME280_readTemperature+3,f
  5135  00E4  0859               	movf	BME280_readTemperature@adc_T,w
  5136  00E5  00B7               	movwf	??_BME280_readTemperature+4
  5137  00E6  085A               	movf	BME280_readTemperature@adc_T+1,w
  5138  00E7  00B8               	movwf	??_BME280_readTemperature+5
  5139  00E8  085B               	movf	BME280_readTemperature@adc_T+2,w
  5140  00E9  00B9               	movwf	??_BME280_readTemperature+6
  5141  00EA  085C               	movf	BME280_readTemperature@adc_T+3,w
  5142  00EB  00BA               	movwf	??_BME280_readTemperature+7
  5143  00EC  3004               	movlw	4
  5144  00ED  00BB               	movwf	??_BME280_readTemperature+8
  5145  00EE                     u1755:	
  5146  00EE  37BA               	asrf	??_BME280_readTemperature+7,f
  5147  00EF  0CB9               	rrf	??_BME280_readTemperature+6,f
  5148  00F0  0CB8               	rrf	??_BME280_readTemperature+5,f
  5149  00F1  0CB7               	rrf	??_BME280_readTemperature+4,f
  5150  00F2  0BBB               	decfsz	??_BME280_readTemperature+8,f
  5151  00F3  28EE               	goto	u1755
  5152  00F4  0837               	movf	??_BME280_readTemperature+4,w
  5153  00F5  07B3               	addwf	??_BME280_readTemperature,f
  5154  00F6  0838               	movf	??_BME280_readTemperature+5,w
  5155  00F7  3DB4               	addwfc	??_BME280_readTemperature+1,f
  5156  00F8  0839               	movf	??_BME280_readTemperature+6,w
  5157  00F9  3DB5               	addwfc	??_BME280_readTemperature+2,f
  5158  00FA  083A               	movf	??_BME280_readTemperature+7,w
  5159  00FB  3DB6               	addwfc	??_BME280_readTemperature+3,f
  5160  00FC  0836               	movf	??_BME280_readTemperature+3,w
  5161  00FD  00F7               	movwf	___lmul@multiplicand+3
  5162  00FE  0835               	movf	??_BME280_readTemperature+2,w
  5163  00FF  00F6               	movwf	___lmul@multiplicand+2
  5164  0100  0834               	movf	??_BME280_readTemperature+1,w
  5165  0101  00F5               	movwf	___lmul@multiplicand+1
  5166  0102  0833               	movf	??_BME280_readTemperature,w
  5167  0103  00F4               	movwf	___lmul@multiplicand
  5168  0104  0021               	movlb	1	; select bank1
  5169  0105  0839               	movf	_cal_data^(0+128),w
  5170  0106  0020               	movlb	0	; select bank0
  5171  0107  00BC               	movwf	??_BME280_readTemperature+9
  5172  0108  0021               	movlb	1	; select bank1
  5173  0109  083A               	movf	(_cal_data+1)^(0+128),w
  5174  010A  0020               	movlb	0	; select bank0
  5175  010B  00BD               	movwf	??_BME280_readTemperature+10
  5176  010C  01BE               	clrf	??_BME280_readTemperature+11
  5177  010D  01BF               	clrf	??_BME280_readTemperature+12
  5178  010E  09BC               	comf	??_BME280_readTemperature+9,f
  5179  010F  09BD               	comf	??_BME280_readTemperature+10,f
  5180  0110  09BE               	comf	??_BME280_readTemperature+11,f
  5181  0111  09BF               	comf	??_BME280_readTemperature+12,f
  5182  0112  0ABC               	incf	??_BME280_readTemperature+9,f
  5183  0113  1903               	skipnz
  5184  0114  0ABD               	incf	??_BME280_readTemperature+10,f
  5185  0115  1903               	skipnz
  5186  0116  0ABE               	incf	??_BME280_readTemperature+11,f
  5187  0117  1903               	skipnz
  5188  0118  0ABF               	incf	??_BME280_readTemperature+12,f
  5189  0119  0859               	movf	BME280_readTemperature@adc_T,w
  5190  011A  00C0               	movwf	??_BME280_readTemperature+13
  5191  011B  085A               	movf	BME280_readTemperature@adc_T+1,w
  5192  011C  00C1               	movwf	??_BME280_readTemperature+14
  5193  011D  085B               	movf	BME280_readTemperature@adc_T+2,w
  5194  011E  00C2               	movwf	??_BME280_readTemperature+15
  5195  011F  085C               	movf	BME280_readTemperature@adc_T+3,w
  5196  0120  00C3               	movwf	??_BME280_readTemperature+16
  5197  0121  3004               	movlw	4
  5198  0122  00C4               	movwf	??_BME280_readTemperature+17
  5199  0123                     u1765:	
  5200  0123  37C3               	asrf	??_BME280_readTemperature+16,f
  5201  0124  0CC2               	rrf	??_BME280_readTemperature+15,f
  5202  0125  0CC1               	rrf	??_BME280_readTemperature+14,f
  5203  0126  0CC0               	rrf	??_BME280_readTemperature+13,f
  5204  0127  0BC4               	decfsz	??_BME280_readTemperature+17,f
  5205  0128  2923               	goto	u1765
  5206  0129  0840               	movf	??_BME280_readTemperature+13,w
  5207  012A  07BC               	addwf	??_BME280_readTemperature+9,f
  5208  012B  0841               	movf	??_BME280_readTemperature+14,w
  5209  012C  3DBD               	addwfc	??_BME280_readTemperature+10,f
  5210  012D  0842               	movf	??_BME280_readTemperature+15,w
  5211  012E  3DBE               	addwfc	??_BME280_readTemperature+11,f
  5212  012F  0843               	movf	??_BME280_readTemperature+16,w
  5213  0130  3DBF               	addwfc	??_BME280_readTemperature+12,f
  5214  0131  083F               	movf	??_BME280_readTemperature+12,w
  5215  0132  00F3               	movwf	___lmul@multiplier+3
  5216  0133  083E               	movf	??_BME280_readTemperature+11,w
  5217  0134  00F2               	movwf	___lmul@multiplier+2
  5218  0135  083D               	movf	??_BME280_readTemperature+10,w
  5219  0136  00F1               	movwf	___lmul@multiplier+1
  5220  0137  083C               	movf	??_BME280_readTemperature+9,w
  5221  0138  00F0               	movwf	___lmul@multiplier
  5222  0139  318A  22AF  3180   	fcall	___lmul
  5223  013C  0870               	movf	?___lmul,w
  5224  013D  0020               	movlb	0	; select bank0
  5225  013E  00C5               	movwf	??_BME280_readTemperature+18
  5226  013F  0871               	movf	?___lmul+1,w
  5227  0140  00C6               	movwf	??_BME280_readTemperature+19
  5228  0141  0872               	movf	?___lmul+2,w
  5229  0142  00C7               	movwf	??_BME280_readTemperature+20
  5230  0143  0873               	movf	?___lmul+3,w
  5231  0144  00C8               	movwf	??_BME280_readTemperature+21
  5232  0145  300C               	movlw	12
  5233  0146  00C9               	movwf	??_BME280_readTemperature+22
  5234  0147                     u1775:	
  5235  0147  37C8               	asrf	??_BME280_readTemperature+21,f
  5236  0148  0CC7               	rrf	??_BME280_readTemperature+20,f
  5237  0149  0CC6               	rrf	??_BME280_readTemperature+19,f
  5238  014A  0CC5               	rrf	??_BME280_readTemperature+18,f
  5239  014B  0BC9               	decfsz	??_BME280_readTemperature+22,f
  5240  014C  2947               	goto	u1775
  5241  014D  0848               	movf	??_BME280_readTemperature+21,w
  5242  014E  00D5               	movwf	_BME280_readTemperature$1238+3
  5243  014F  0847               	movf	??_BME280_readTemperature+20,w
  5244  0150  00D4               	movwf	_BME280_readTemperature$1238+2
  5245  0151  0846               	movf	??_BME280_readTemperature+19,w
  5246  0152  00D3               	movwf	_BME280_readTemperature$1238+1
  5247  0153  0845               	movf	??_BME280_readTemperature+18,w
  5248  0154  00D2               	movwf	_BME280_readTemperature$1238
  5249                           
  5250                           ;bme280.c: 193: var2 = (((((adc_T>>4) - ((int32_t)cal_data.dig_T1)) *
  5251                           ;bme280.c: 195: ((adc_T>>4) - ((int32_t)cal_data.dig_T1))) >> 12) *
  5252                           ;bme280.c: 197: ((int32_t)cal_data.dig_T3)) >> 14;
  5253  0155  0855               	movf	_BME280_readTemperature$1238+3,w
  5254  0156  00F3               	movwf	___lmul@multiplier+3
  5255  0157  0854               	movf	_BME280_readTemperature$1238+2,w
  5256  0158  00F2               	movwf	___lmul@multiplier+2
  5257  0159  0853               	movf	_BME280_readTemperature$1238+1,w
  5258  015A  00F1               	movwf	___lmul@multiplier+1
  5259  015B  0852               	movf	_BME280_readTemperature$1238,w
  5260  015C  00F0               	movwf	___lmul@multiplier
  5261  015D  0021               	movlb	1	; select bank1
  5262  015E  083D               	movf	(_cal_data^(0+128)+4),w
  5263  015F  00F4               	movwf	___lmul@multiplicand
  5264  0160  083E               	movf	((_cal_data+1)^(0+128)+4),w
  5265  0161  00F5               	movwf	___lmul@multiplicand+1
  5266  0162  0D89               	rlf	9,f
  5267  0163  3B89               	subwfb	9,f
  5268  0164  0989               	comf	9,f
  5269  0165  00F6               	movwf	___lmul@multiplicand+2
  5270  0166  00F7               	movwf	___lmul@multiplicand+3
  5271  0167  318A  22AF  3180   	fcall	___lmul
  5272  016A  0870               	movf	?___lmul,w
  5273  016B  0020               	movlb	0	; select bank0
  5274  016C  00B3               	movwf	??_BME280_readTemperature
  5275  016D  0871               	movf	?___lmul+1,w
  5276  016E  00B4               	movwf	??_BME280_readTemperature+1
  5277  016F  0872               	movf	?___lmul+2,w
  5278  0170  00B5               	movwf	??_BME280_readTemperature+2
  5279  0171  0873               	movf	?___lmul+3,w
  5280  0172  00B6               	movwf	??_BME280_readTemperature+3
  5281  0173  300E               	movlw	14
  5282  0174  00B7               	movwf	??_BME280_readTemperature+4
  5283  0175                     u1785:	
  5284  0175  37B6               	asrf	??_BME280_readTemperature+3,f
  5285  0176  0CB5               	rrf	??_BME280_readTemperature+2,f
  5286  0177  0CB4               	rrf	??_BME280_readTemperature+1,f
  5287  0178  0CB3               	rrf	??_BME280_readTemperature,f
  5288  0179  0BB7               	decfsz	??_BME280_readTemperature+4,f
  5289  017A  2975               	goto	u1785
  5290  017B  0836               	movf	??_BME280_readTemperature+3,w
  5291  017C  00D1               	movwf	BME280_readTemperature@var2+3
  5292  017D  0835               	movf	??_BME280_readTemperature+2,w
  5293  017E  00D0               	movwf	BME280_readTemperature@var2+2
  5294  017F  0834               	movf	??_BME280_readTemperature+1,w
  5295  0180  00CF               	movwf	BME280_readTemperature@var2+1
  5296  0181  0833               	movf	??_BME280_readTemperature,w
  5297  0182  00CE               	movwf	BME280_readTemperature@var2
  5298                           
  5299                           ;bme280.c: 199: t_fine = var1 + var2;
  5300  0183  084A               	movf	BME280_readTemperature@var1,w
  5301  0184  074E               	addwf	BME280_readTemperature@var2,w
  5302  0185  00B3               	movwf	??_BME280_readTemperature
  5303  0186  084B               	movf	BME280_readTemperature@var1+1,w
  5304  0187  3D4F               	addwfc	BME280_readTemperature@var2+1,w
  5305  0188  00B4               	movwf	??_BME280_readTemperature+1
  5306  0189  084C               	movf	BME280_readTemperature@var1+2,w
  5307  018A  3D50               	addwfc	BME280_readTemperature@var2+2,w
  5308  018B  00B5               	movwf	??_BME280_readTemperature+2
  5309  018C  084D               	movf	BME280_readTemperature@var1+3,w
  5310  018D  3D51               	addwfc	BME280_readTemperature@var2+3,w
  5311  018E  00B6               	movwf	??_BME280_readTemperature+3
  5312  018F  0836               	movf	??_BME280_readTemperature+3,w
  5313  0190  0021               	movlb	1	; select bank1
  5314  0191  00B3               	movwf	(_t_fine+3)^(0+128)
  5315  0192  0020               	movlb	0	; select bank0
  5316  0193  0835               	movf	??_BME280_readTemperature+2,w
  5317  0194  0021               	movlb	1	; select bank1
  5318  0195  00B2               	movwf	(_t_fine+2)^(0+128)
  5319  0196  0020               	movlb	0	; select bank0
  5320  0197  0834               	movf	??_BME280_readTemperature+1,w
  5321  0198  0021               	movlb	1	; select bank1
  5322  0199  00B1               	movwf	(_t_fine+1)^(0+128)
  5323  019A  0020               	movlb	0	; select bank0
  5324  019B  0833               	movf	??_BME280_readTemperature,w
  5325  019C  0021               	movlb	1	; select bank1
  5326  019D  00B0               	movwf	_t_fine^(0+128)
  5327                           
  5328                           ;bme280.c: 202: temperature = (t_fine * 5 + 128) >> 8;
  5329  019E  3080               	movlw	128
  5330  019F  0020               	movlb	0	; select bank0
  5331  01A0  00B3               	movwf	??_BME280_readTemperature
  5332  01A1  3000               	movlw	0
  5333  01A2  00B4               	movwf	??_BME280_readTemperature+1
  5334  01A3  3000               	movlw	0
  5335  01A4  00B5               	movwf	??_BME280_readTemperature+2
  5336  01A5  3000               	movlw	0
  5337  01A6  00B6               	movwf	??_BME280_readTemperature+3
  5338  01A7  3000               	movlw	0
  5339  01A8  00F7               	movwf	___lmul@multiplicand+3
  5340  01A9  3000               	movlw	0
  5341  01AA  00F6               	movwf	___lmul@multiplicand+2
  5342  01AB  3000               	movlw	0
  5343  01AC  00F5               	movwf	___lmul@multiplicand+1
  5344  01AD  3005               	movlw	5
  5345  01AE  00F4               	movwf	___lmul@multiplicand
  5346  01AF  0021               	movlb	1	; select bank1
  5347  01B0  0833               	movf	(_t_fine+3)^(0+128),w
  5348  01B1  00F3               	movwf	___lmul@multiplier+3
  5349  01B2  0832               	movf	(_t_fine+2)^(0+128),w
  5350  01B3  00F2               	movwf	___lmul@multiplier+2
  5351  01B4  0831               	movf	(_t_fine+1)^(0+128),w
  5352  01B5  00F1               	movwf	___lmul@multiplier+1
  5353  01B6  0830               	movf	_t_fine^(0+128),w
  5354  01B7  00F0               	movwf	___lmul@multiplier
  5355  01B8  318A  22AF  3180   	fcall	___lmul
  5356  01BB  0870               	movf	?___lmul,w
  5357  01BC  0020               	movlb	0	; select bank0
  5358  01BD  07B3               	addwf	??_BME280_readTemperature,f
  5359  01BE  0871               	movf	?___lmul+1,w
  5360  01BF  3DB4               	addwfc	??_BME280_readTemperature+1,f
  5361  01C0  0872               	movf	?___lmul+2,w
  5362  01C1  3DB5               	addwfc	??_BME280_readTemperature+2,f
  5363  01C2  0873               	movf	?___lmul+3,w
  5364  01C3  3DB6               	addwfc	??_BME280_readTemperature+3,f
  5365  01C4  3008               	movlw	8
  5366  01C5  00B7               	movwf	??_BME280_readTemperature+4
  5367  01C6                     u1795:	
  5368  01C6  37B6               	asrf	??_BME280_readTemperature+3,f
  5369  01C7  0CB5               	rrf	??_BME280_readTemperature+2,f
  5370  01C8  0CB4               	rrf	??_BME280_readTemperature+1,f
  5371  01C9  0CB3               	rrf	??_BME280_readTemperature,f
  5372  01CA  0BB7               	decfsz	??_BME280_readTemperature+4,f
  5373  01CB  29C6               	goto	u1795
  5374  01CC  0836               	movf	??_BME280_readTemperature+3,w
  5375  01CD  00A3               	movwf	___altoft@c+3
  5376  01CE  0835               	movf	??_BME280_readTemperature+2,w
  5377  01CF  00A2               	movwf	___altoft@c+2
  5378  01D0  0834               	movf	??_BME280_readTemperature+1,w
  5379  01D1  00A1               	movwf	___altoft@c+1
  5380  01D2  0833               	movf	??_BME280_readTemperature,w
  5381  01D3  00A0               	movwf	___altoft@c
  5382  01D4  318B  2349  3180   	fcall	___altoft
  5383  01D7  0020               	movlb	0	; select bank0
  5384  01D8  0820               	movf	?___altoft,w
  5385  01D9  00D6               	movwf	BME280_readTemperature@temperature
  5386  01DA  0821               	movf	?___altoft+1,w
  5387  01DB  00D7               	movwf	BME280_readTemperature@temperature+1
  5388  01DC  0822               	movf	?___altoft+2,w
  5389  01DD  00D8               	movwf	BME280_readTemperature@temperature+2
  5390                           
  5391                           ;bme280.c: 204: temperature = temperature / 100;
  5392  01DE  3000               	movlw	0
  5393  01DF  00A0               	movwf	___ftdiv@f2
  5394  01E0  30C8               	movlw	200
  5395  01E1  00A1               	movwf	___ftdiv@f2+1
  5396  01E2  3042               	movlw	66
  5397  01E3  00A2               	movwf	___ftdiv@f2+2
  5398  01E4  0856               	movf	BME280_readTemperature@temperature,w
  5399  01E5  00A3               	movwf	___ftdiv@f1
  5400  01E6  0857               	movf	BME280_readTemperature@temperature+1,w
  5401  01E7  00A4               	movwf	___ftdiv@f1+1
  5402  01E8  0858               	movf	BME280_readTemperature@temperature+2,w
  5403  01E9  00A5               	movwf	___ftdiv@f1+2
  5404  01EA  318E  2659         	fcall	___ftdiv
  5405  01EC  0020               	movlb	0	; select bank0
  5406  01ED  0820               	movf	?___ftdiv,w
  5407  01EE  00D6               	movwf	BME280_readTemperature@temperature
  5408  01EF  0821               	movf	?___ftdiv+1,w
  5409  01F0  00D7               	movwf	BME280_readTemperature@temperature+1
  5410  01F1  0822               	movf	?___ftdiv+2,w
  5411  01F2  00D8               	movwf	BME280_readTemperature@temperature+2
  5412                           
  5413                           ;bme280.c: 206: return temperature ;
  5414  01F3  0856               	movf	BME280_readTemperature@temperature,w
  5415  01F4  00B0               	movwf	?_BME280_readTemperature
  5416  01F5  0857               	movf	BME280_readTemperature@temperature+1,w
  5417  01F6  00B1               	movwf	?_BME280_readTemperature+1
  5418  01F7  0858               	movf	BME280_readTemperature@temperature+2,w
  5419  01F8  00B2               	movwf	?_BME280_readTemperature+2
  5420  01F9  0008               	return
  5421  01FA                     __end_of_BME280_readTemperature:	
  5422                           
  5423                           	psect	text19
  5424  0452                     __ptext19:	
  5425 ;; *************** function _BME280_readPressure *****************
  5426 ;; Defined at:
  5427 ;;		line 249 in file "bme280.c"
  5428 ;; Parameters:    Size  Location     Type
  5429 ;;		None
  5430 ;; Auto vars:     Size  Location     Type
  5431 ;;  var1            4   52[BANK0 ] long 
  5432 ;;  p               4   48[BANK0 ] unsigned long 
  5433 ;;  var2            4   44[BANK0 ] long 
  5434 ;;  adc_P           4   36[BANK0 ] long 
  5435 ;; Return value:  Size  Location     Type
  5436 ;;                  3   16[BANK0 ] float 
  5437 ;; Registers used:
  5438 ;;		wreg, status,2, status,0, pclath, cstack
  5439 ;; Tracked objects:
  5440 ;;		On entry : 0/0
  5441 ;;		On exit  : 0/0
  5442 ;;		Unchanged: 0/0
  5443 ;; Data sizes:     COMMON   BANK0   BANK1   BANK2   BANK3   BANK4   BANK5   BANK6   BANK7   BANK8   BANK9  BANK10  BANK1
      +1  BANK12
  5444 ;;      Params:         0       3       0       0       0       0       0       0       0       0       0       0       
      +0       0
  5445 ;;      Locals:         0      20       0       0       0       0       0       0       0       0       0       0       
      +0       0
  5446 ;;      Temps:          0      17       0       0       0       0       0       0       0       0       0       0       
      +0       0
  5447 ;;      Totals:         0      40       0       0       0       0       0       0       0       0       0       0       
      +0       0
  5448 ;;Total ram usage:       40 bytes
  5449 ;; Hardware stack levels used:    1
  5450 ;; Hardware stack levels required when called:    3
  5451 ;; This function calls:
  5452 ;;		_BME280_read24
  5453 ;;		___ftdiv
  5454 ;;		___lldiv
  5455 ;;		___lltoft
  5456 ;;		___lmul
  5457 ;; This function is called by:
  5458 ;;		_main
  5459 ;; This function uses a non-reentrant model
  5460 ;;
  5461                           
  5462                           
  5463                           ;psect for function _BME280_readPressure
  5464  0452                     _BME280_readPressure:	
  5465                           
  5466                           ;bme280.c: 251: int32_t adc_P = BME280_read24(0xF7);
  5467                           
  5468                           ;incstack = 0
  5469                           ; Regs used in _BME280_readPressure: [wreg+status,2+status,0+pclath+cstack]
  5470  0452  30F7               	movlw	247
  5471  0453  318D  254C  3184   	fcall	_BME280_read24
  5472  0456  0879               	movf	?_BME280_read24+3,w
  5473  0457  0020               	movlb	0	; select bank0
  5474  0458  00C7               	movwf	BME280_readPressure@adc_P+3
  5475  0459  0878               	movf	?_BME280_read24+2,w
  5476  045A  00C6               	movwf	BME280_readPressure@adc_P+2
  5477  045B  0877               	movf	?_BME280_read24+1,w
  5478  045C  00C5               	movwf	BME280_readPressure@adc_P+1
  5479  045D  0876               	movf	?_BME280_read24,w
  5480  045E  00C4               	movwf	BME280_readPressure@adc_P
  5481                           
  5482                           ;bme280.c: 252: int32_t var1,var2 ;
  5483                           ;bme280.c: 253: uint32_t p ;
  5484                           ;bme280.c: 257: var1 = (((int32_t)t_fine)>>1) - (int32_t)64000;
  5485  045F  0021               	movlb	1	; select bank1
  5486  0460  0830               	movf	_t_fine^(0+128),w
  5487  0461  0020               	movlb	0	; select bank0
  5488  0462  00B3               	movwf	??_BME280_readPressure
  5489  0463  0021               	movlb	1	; select bank1
  5490  0464  0831               	movf	(_t_fine+1)^(0+128),w
  5491  0465  0020               	movlb	0	; select bank0
  5492  0466  00B4               	movwf	??_BME280_readPressure+1
  5493  0467  0021               	movlb	1	; select bank1
  5494  0468  0832               	movf	(_t_fine+2)^(0+128),w
  5495  0469  0020               	movlb	0	; select bank0
  5496  046A  00B5               	movwf	??_BME280_readPressure+2
  5497  046B  0021               	movlb	1	; select bank1
  5498  046C  0833               	movf	(_t_fine+3)^(0+128),w
  5499  046D  0020               	movlb	0	; select bank0
  5500  046E  00B6               	movwf	??_BME280_readPressure+3
  5501  046F  3001               	movlw	1
  5502  0470  00B7               	movwf	??_BME280_readPressure+4
  5503  0471                     u1925:	
  5504  0471  37B6               	asrf	??_BME280_readPressure+3,f
  5505  0472  0CB5               	rrf	??_BME280_readPressure+2,f
  5506  0473  0CB4               	rrf	??_BME280_readPressure+1,f
  5507  0474  0CB3               	rrf	??_BME280_readPressure,f
  5508  0475  0BB7               	decfsz	??_BME280_readPressure+4,f
  5509  0476  2C71               	goto	u1925
  5510  0477  3000               	movlw	0
  5511  0478  0733               	addwf	??_BME280_readPressure,w
  5512  0479  00D4               	movwf	BME280_readPressure@var1
  5513  047A  3006               	movlw	6
  5514  047B  3D34               	addwfc	??_BME280_readPressure+1,w
  5515  047C  00D5               	movwf	BME280_readPressure@var1+1
  5516  047D  30FF               	movlw	255
  5517  047E  3D35               	addwfc	??_BME280_readPressure+2,w
  5518  047F  00D6               	movwf	BME280_readPressure@var1+2
  5519  0480  30FF               	movlw	255
  5520  0481  3D36               	addwfc	??_BME280_readPressure+3,w
  5521  0482  00D7               	movwf	BME280_readPressure@var1+3
  5522                           
  5523                           ;bme280.c: 258: var2 = (((var1>>2) * (var1>>2)) >> 11 ) * ((int32_t)cal_data.dig_P6);
  5524  0483  0854               	movf	BME280_readPressure@var1,w
  5525  0484  00B3               	movwf	??_BME280_readPressure
  5526  0485  0855               	movf	BME280_readPressure@var1+1,w
  5527  0486  00B4               	movwf	??_BME280_readPressure+1
  5528  0487  0856               	movf	BME280_readPressure@var1+2,w
  5529  0488  00B5               	movwf	??_BME280_readPressure+2
  5530  0489  0857               	movf	BME280_readPressure@var1+3,w
  5531  048A  00B6               	movwf	??_BME280_readPressure+3
  5532  048B  3002               	movlw	2
  5533  048C  00B7               	movwf	??_BME280_readPressure+4
  5534  048D                     u1935:	
  5535  048D  37B6               	asrf	??_BME280_readPressure+3,f
  5536  048E  0CB5               	rrf	??_BME280_readPressure+2,f
  5537  048F  0CB4               	rrf	??_BME280_readPressure+1,f
  5538  0490  0CB3               	rrf	??_BME280_readPressure,f
  5539  0491  0BB7               	decfsz	??_BME280_readPressure+4,f
  5540  0492  2C8D               	goto	u1935
  5541  0493  0836               	movf	??_BME280_readPressure+3,w
  5542  0494  00F7               	movwf	___lmul@multiplicand+3
  5543  0495  0835               	movf	??_BME280_readPressure+2,w
  5544  0496  00F6               	movwf	___lmul@multiplicand+2
  5545  0497  0834               	movf	??_BME280_readPressure+1,w
  5546  0498  00F5               	movwf	___lmul@multiplicand+1
  5547  0499  0833               	movf	??_BME280_readPressure,w
  5548  049A  00F4               	movwf	___lmul@multiplicand
  5549  049B  0854               	movf	BME280_readPressure@var1,w
  5550  049C  00B8               	movwf	??_BME280_readPressure+5
  5551  049D  0855               	movf	BME280_readPressure@var1+1,w
  5552  049E  00B9               	movwf	??_BME280_readPressure+6
  5553  049F  0856               	movf	BME280_readPressure@var1+2,w
  5554  04A0  00BA               	movwf	??_BME280_readPressure+7
  5555  04A1  0857               	movf	BME280_readPressure@var1+3,w
  5556  04A2  00BB               	movwf	??_BME280_readPressure+8
  5557  04A3  3002               	movlw	2
  5558  04A4  00BC               	movwf	??_BME280_readPressure+9
  5559  04A5                     u1945:	
  5560  04A5  37BB               	asrf	??_BME280_readPressure+8,f
  5561  04A6  0CBA               	rrf	??_BME280_readPressure+7,f
  5562  04A7  0CB9               	rrf	??_BME280_readPressure+6,f
  5563  04A8  0CB8               	rrf	??_BME280_readPressure+5,f
  5564  04A9  0BBC               	decfsz	??_BME280_readPressure+9,f
  5565  04AA  2CA5               	goto	u1945
  5566  04AB  083B               	movf	??_BME280_readPressure+8,w
  5567  04AC  00F3               	movwf	___lmul@multiplier+3
  5568  04AD  083A               	movf	??_BME280_readPressure+7,w
  5569  04AE  00F2               	movwf	___lmul@multiplier+2
  5570  04AF  0839               	movf	??_BME280_readPressure+6,w
  5571  04B0  00F1               	movwf	___lmul@multiplier+1
  5572  04B1  0838               	movf	??_BME280_readPressure+5,w
  5573  04B2  00F0               	movwf	___lmul@multiplier
  5574  04B3  318A  22AF  3184   	fcall	___lmul
  5575  04B6  0870               	movf	?___lmul,w
  5576  04B7  0020               	movlb	0	; select bank0
  5577  04B8  00BD               	movwf	??_BME280_readPressure+10
  5578  04B9  0871               	movf	?___lmul+1,w
  5579  04BA  00BE               	movwf	??_BME280_readPressure+11
  5580  04BB  0872               	movf	?___lmul+2,w
  5581  04BC  00BF               	movwf	??_BME280_readPressure+12
  5582  04BD  0873               	movf	?___lmul+3,w
  5583  04BE  00C0               	movwf	??_BME280_readPressure+13
  5584  04BF  300B               	movlw	11
  5585  04C0  00C1               	movwf	??_BME280_readPressure+14
  5586  04C1                     u1955:	
  5587  04C1  37C0               	asrf	??_BME280_readPressure+13,f
  5588  04C2  0CBF               	rrf	??_BME280_readPressure+12,f
  5589  04C3  0CBE               	rrf	??_BME280_readPressure+11,f
  5590  04C4  0CBD               	rrf	??_BME280_readPressure+10,f
  5591  04C5  0BC1               	decfsz	??_BME280_readPressure+14,f
  5592  04C6  2CC1               	goto	u1955
  5593  04C7  0840               	movf	??_BME280_readPressure+13,w
  5594  04C8  00CB               	movwf	_BME280_readPressure$1244+3
  5595  04C9  083F               	movf	??_BME280_readPressure+12,w
  5596  04CA  00CA               	movwf	_BME280_readPressure$1244+2
  5597  04CB  083E               	movf	??_BME280_readPressure+11,w
  5598  04CC  00C9               	movwf	_BME280_readPressure$1244+1
  5599  04CD  083D               	movf	??_BME280_readPressure+10,w
  5600  04CE  00C8               	movwf	_BME280_readPressure$1244
  5601                           
  5602                           ;bme280.c: 258: var2 = (((var1>>2) * (var1>>2)) >> 11 ) * ((int32_t)cal_data.dig_P6);
  5603  04CF  084B               	movf	_BME280_readPressure$1244+3,w
  5604  04D0  00F3               	movwf	___lmul@multiplier+3
  5605  04D1  084A               	movf	_BME280_readPressure$1244+2,w
  5606  04D2  00F2               	movwf	___lmul@multiplier+2
  5607  04D3  0849               	movf	_BME280_readPressure$1244+1,w
  5608  04D4  00F1               	movwf	___lmul@multiplier+1
  5609  04D5  0848               	movf	_BME280_readPressure$1244,w
  5610  04D6  00F0               	movwf	___lmul@multiplier
  5611  04D7  0021               	movlb	1	; select bank1
  5612  04D8  0849               	movf	(_cal_data^(0+128)+16),w
  5613  04D9  00F4               	movwf	___lmul@multiplicand
  5614  04DA  084A               	movf	((_cal_data+1)^(0+128)+16),w
  5615  04DB  00F5               	movwf	___lmul@multiplicand+1
  5616  04DC  0D89               	rlf	9,f
  5617  04DD  3B89               	subwfb	9,f
  5618  04DE  0989               	comf	9,f
  5619  04DF  00F6               	movwf	___lmul@multiplicand+2
  5620  04E0  00F7               	movwf	___lmul@multiplicand+3
  5621  04E1  318A  22AF  3184   	fcall	___lmul
  5622  04E4  0873               	movf	?___lmul+3,w
  5623  04E5  0020               	movlb	0	; select bank0
  5624  04E6  00CF               	movwf	BME280_readPressure@var2+3
  5625  04E7  0872               	movf	?___lmul+2,w
  5626  04E8  00CE               	movwf	BME280_readPressure@var2+2
  5627  04E9  0871               	movf	?___lmul+1,w
  5628  04EA  00CD               	movwf	BME280_readPressure@var2+1
  5629  04EB  0870               	movf	?___lmul,w
  5630  04EC  00CC               	movwf	BME280_readPressure@var2
  5631                           
  5632                           ;bme280.c: 259: var2 = var2 + ((var1*((int32_t)cal_data.dig_P5))<<1);
  5633  04ED  084C               	movf	BME280_readPressure@var2,w
  5634  04EE  00B3               	movwf	??_BME280_readPressure
  5635  04EF  084D               	movf	BME280_readPressure@var2+1,w
  5636  04F0  00B4               	movwf	??_BME280_readPressure+1
  5637  04F1  084E               	movf	BME280_readPressure@var2+2,w
  5638  04F2  00B5               	movwf	??_BME280_readPressure+2
  5639  04F3  084F               	movf	BME280_readPressure@var2+3,w
  5640  04F4  00B6               	movwf	??_BME280_readPressure+3
  5641  04F5  0021               	movlb	1	; select bank1
  5642  04F6  0847               	movf	(_cal_data^(0+128)+14),w
  5643  04F7  00F0               	movwf	___lmul@multiplier
  5644  04F8  0848               	movf	((_cal_data+1)^(0+128)+14),w
  5645  04F9  00F1               	movwf	___lmul@multiplier+1
  5646  04FA  0D89               	rlf	9,f
  5647  04FB  3B89               	subwfb	9,f
  5648  04FC  0989               	comf	9,f
  5649  04FD  00F2               	movwf	___lmul@multiplier+2
  5650  04FE  00F3               	movwf	___lmul@multiplier+3
  5651  04FF  0020               	movlb	0	; select bank0
  5652  0500  0857               	movf	BME280_readPressure@var1+3,w
  5653  0501  00F7               	movwf	___lmul@multiplicand+3
  5654  0502  0856               	movf	BME280_readPressure@var1+2,w
  5655  0503  00F6               	movwf	___lmul@multiplicand+2
  5656  0504  0855               	movf	BME280_readPressure@var1+1,w
  5657  0505  00F5               	movwf	___lmul@multiplicand+1
  5658  0506  0854               	movf	BME280_readPressure@var1,w
  5659  0507  00F4               	movwf	___lmul@multiplicand
  5660  0508  318A  22AF  3184   	fcall	___lmul
  5661  050B  0870               	movf	?___lmul,w
  5662  050C  0020               	movlb	0	; select bank0
  5663  050D  00B7               	movwf	??_BME280_readPressure+4
  5664  050E  0871               	movf	?___lmul+1,w
  5665  050F  00B8               	movwf	??_BME280_readPressure+5
  5666  0510  0872               	movf	?___lmul+2,w
  5667  0511  00B9               	movwf	??_BME280_readPressure+6
  5668  0512  0873               	movf	?___lmul+3,w
  5669  0513  00BA               	movwf	??_BME280_readPressure+7
  5670  0514  3001               	movlw	1
  5671  0515                     u1965:	
  5672  0515  35B7               	lslf	??_BME280_readPressure+4,f
  5673  0516  0DB8               	rlf	??_BME280_readPressure+5,f
  5674  0517  0DB9               	rlf	??_BME280_readPressure+6,f
  5675  0518  0DBA               	rlf	??_BME280_readPressure+7,f
  5676  0519  0B89               	decfsz	9,f
  5677  051A  2D15               	goto	u1965
  5678  051B  0837               	movf	??_BME280_readPressure+4,w
  5679  051C  07B3               	addwf	??_BME280_readPressure,f
  5680  051D  0838               	movf	??_BME280_readPressure+5,w
  5681  051E  3DB4               	addwfc	??_BME280_readPressure+1,f
  5682  051F  0839               	movf	??_BME280_readPressure+6,w
  5683  0520  3DB5               	addwfc	??_BME280_readPressure+2,f
  5684  0521  083A               	movf	??_BME280_readPressure+7,w
  5685  0522  3DB6               	addwfc	??_BME280_readPressure+3,f
  5686  0523  0836               	movf	??_BME280_readPressure+3,w
  5687  0524  00CF               	movwf	BME280_readPressure@var2+3
  5688  0525  0835               	movf	??_BME280_readPressure+2,w
  5689  0526  00CE               	movwf	BME280_readPressure@var2+2
  5690  0527  0834               	movf	??_BME280_readPressure+1,w
  5691  0528  00CD               	movwf	BME280_readPressure@var2+1
  5692  0529  0833               	movf	??_BME280_readPressure,w
  5693  052A  00CC               	movwf	BME280_readPressure@var2
  5694                           
  5695                           ;bme280.c: 260: var2 = (var2>>2)+(((int32_t)cal_data.dig_P4)<<16);
  5696  052B  0021               	movlb	1	; select bank1
  5697  052C  0845               	movf	(_cal_data^(0+128)+12),w
  5698  052D  0020               	movlb	0	; select bank0
  5699  052E  00B3               	movwf	??_BME280_readPressure
  5700  052F  0021               	movlb	1	; select bank1
  5701  0530  0846               	movf	((_cal_data+1)^(0+128)+12),w
  5702  0531  0020               	movlb	0	; select bank0
  5703  0532  00B4               	movwf	??_BME280_readPressure+1
  5704  0533  01B5               	clrf	??_BME280_readPressure+2
  5705  0534  01B6               	clrf	??_BME280_readPressure+3
  5706  0535  3010               	movlw	16
  5707  0536                     u1975:	
  5708  0536  35B3               	lslf	??_BME280_readPressure,f
  5709  0537  0DB4               	rlf	??_BME280_readPressure+1,f
  5710  0538  0DB5               	rlf	??_BME280_readPressure+2,f
  5711  0539  0DB6               	rlf	??_BME280_readPressure+3,f
  5712  053A  0B89               	decfsz	9,f
  5713  053B  2D36               	goto	u1975
  5714  053C  084C               	movf	BME280_readPressure@var2,w
  5715  053D  00B7               	movwf	??_BME280_readPressure+4
  5716  053E  084D               	movf	BME280_readPressure@var2+1,w
  5717  053F  00B8               	movwf	??_BME280_readPressure+5
  5718  0540  084E               	movf	BME280_readPressure@var2+2,w
  5719  0541  00B9               	movwf	??_BME280_readPressure+6
  5720  0542  084F               	movf	BME280_readPressure@var2+3,w
  5721  0543  00BA               	movwf	??_BME280_readPressure+7
  5722  0544  3002               	movlw	2
  5723  0545  00BB               	movwf	??_BME280_readPressure+8
  5724  0546                     u1985:	
  5725  0546  37BA               	asrf	??_BME280_readPressure+7,f
  5726  0547  0CB9               	rrf	??_BME280_readPressure+6,f
  5727  0548  0CB8               	rrf	??_BME280_readPressure+5,f
  5728  0549  0CB7               	rrf	??_BME280_readPressure+4,f
  5729  054A  0BBB               	decfsz	??_BME280_readPressure+8,f
  5730  054B  2D46               	goto	u1985
  5731  054C  0837               	movf	??_BME280_readPressure+4,w
  5732  054D  07B3               	addwf	??_BME280_readPressure,f
  5733  054E  0838               	movf	??_BME280_readPressure+5,w
  5734  054F  3DB4               	addwfc	??_BME280_readPressure+1,f
  5735  0550  0839               	movf	??_BME280_readPressure+6,w
  5736  0551  3DB5               	addwfc	??_BME280_readPressure+2,f
  5737  0552  083A               	movf	??_BME280_readPressure+7,w
  5738  0553  3DB6               	addwfc	??_BME280_readPressure+3,f
  5739  0554  0836               	movf	??_BME280_readPressure+3,w
  5740  0555  00CF               	movwf	BME280_readPressure@var2+3
  5741  0556  0835               	movf	??_BME280_readPressure+2,w
  5742  0557  00CE               	movwf	BME280_readPressure@var2+2
  5743  0558  0834               	movf	??_BME280_readPressure+1,w
  5744  0559  00CD               	movwf	BME280_readPressure@var2+1
  5745  055A  0833               	movf	??_BME280_readPressure,w
  5746  055B  00CC               	movwf	BME280_readPressure@var2
  5747                           
  5748                           ;bme280.c: 261: var1 = (((cal_data.dig_P3 * (((var1>>2) * (var1>>2)) >> 13 )) >> 3) + ((
      +                          ((int32_t)cal_data.dig_P2) * var1)>>1))>>18;
  5749  055C  0854               	movf	BME280_readPressure@var1,w
  5750  055D  00B3               	movwf	??_BME280_readPressure
  5751  055E  0855               	movf	BME280_readPressure@var1+1,w
  5752  055F  00B4               	movwf	??_BME280_readPressure+1
  5753  0560  0856               	movf	BME280_readPressure@var1+2,w
  5754  0561  00B5               	movwf	??_BME280_readPressure+2
  5755  0562  0857               	movf	BME280_readPressure@var1+3,w
  5756  0563  00B6               	movwf	??_BME280_readPressure+3
  5757  0564  3002               	movlw	2
  5758  0565  00B7               	movwf	??_BME280_readPressure+4
  5759  0566                     u1995:	
  5760  0566  37B6               	asrf	??_BME280_readPressure+3,f
  5761  0567  0CB5               	rrf	??_BME280_readPressure+2,f
  5762  0568  0CB4               	rrf	??_BME280_readPressure+1,f
  5763  0569  0CB3               	rrf	??_BME280_readPressure,f
  5764  056A  0BB7               	decfsz	??_BME280_readPressure+4,f
  5765  056B  2D66               	goto	u1995
  5766  056C  0836               	movf	??_BME280_readPressure+3,w
  5767  056D  00F7               	movwf	___lmul@multiplicand+3
  5768  056E  0835               	movf	??_BME280_readPressure+2,w
  5769  056F  00F6               	movwf	___lmul@multiplicand+2
  5770  0570  0834               	movf	??_BME280_readPressure+1,w
  5771  0571  00F5               	movwf	___lmul@multiplicand+1
  5772  0572  0833               	movf	??_BME280_readPressure,w
  5773  0573  00F4               	movwf	___lmul@multiplicand
  5774  0574  0854               	movf	BME280_readPressure@var1,w
  5775  0575  00B8               	movwf	??_BME280_readPressure+5
  5776  0576  0855               	movf	BME280_readPressure@var1+1,w
  5777  0577  00B9               	movwf	??_BME280_readPressure+6
  5778  0578  0856               	movf	BME280_readPressure@var1+2,w
  5779  0579  00BA               	movwf	??_BME280_readPressure+7
  5780  057A  0857               	movf	BME280_readPressure@var1+3,w
  5781  057B  00BB               	movwf	??_BME280_readPressure+8
  5782  057C  3002               	movlw	2
  5783  057D  00BC               	movwf	??_BME280_readPressure+9
  5784  057E                     u2005:	
  5785  057E  37BB               	asrf	??_BME280_readPressure+8,f
  5786  057F  0CBA               	rrf	??_BME280_readPressure+7,f
  5787  0580  0CB9               	rrf	??_BME280_readPressure+6,f
  5788  0581  0CB8               	rrf	??_BME280_readPressure+5,f
  5789  0582  0BBC               	decfsz	??_BME280_readPressure+9,f
  5790  0583  2D7E               	goto	u2005
  5791  0584  083B               	movf	??_BME280_readPressure+8,w
  5792  0585  00F3               	movwf	___lmul@multiplier+3
  5793  0586  083A               	movf	??_BME280_readPressure+7,w
  5794  0587  00F2               	movwf	___lmul@multiplier+2
  5795  0588  0839               	movf	??_BME280_readPressure+6,w
  5796  0589  00F1               	movwf	___lmul@multiplier+1
  5797  058A  0838               	movf	??_BME280_readPressure+5,w
  5798  058B  00F0               	movwf	___lmul@multiplier
  5799  058C  318A  22AF  3184   	fcall	___lmul
  5800  058F  0870               	movf	?___lmul,w
  5801  0590  0020               	movlb	0	; select bank0
  5802  0591  00BD               	movwf	??_BME280_readPressure+10
  5803  0592  0871               	movf	?___lmul+1,w
  5804  0593  00BE               	movwf	??_BME280_readPressure+11
  5805  0594  0872               	movf	?___lmul+2,w
  5806  0595  00BF               	movwf	??_BME280_readPressure+12
  5807  0596  0873               	movf	?___lmul+3,w
  5808  0597  00C0               	movwf	??_BME280_readPressure+13
  5809  0598  300D               	movlw	13
  5810  0599  00C1               	movwf	??_BME280_readPressure+14
  5811  059A                     u2015:	
  5812  059A  37C0               	asrf	??_BME280_readPressure+13,f
  5813  059B  0CBF               	rrf	??_BME280_readPressure+12,f
  5814  059C  0CBE               	rrf	??_BME280_readPressure+11,f
  5815  059D  0CBD               	rrf	??_BME280_readPressure+10,f
  5816  059E  0BC1               	decfsz	??_BME280_readPressure+14,f
  5817  059F  2D9A               	goto	u2015
  5818  05A0  0840               	movf	??_BME280_readPressure+13,w
  5819  05A1  00CB               	movwf	_BME280_readPressure$1244+3
  5820  05A2  083F               	movf	??_BME280_readPressure+12,w
  5821  05A3  00CA               	movwf	_BME280_readPressure$1244+2
  5822  05A4  083E               	movf	??_BME280_readPressure+11,w
  5823  05A5  00C9               	movwf	_BME280_readPressure$1244+1
  5824  05A6  083D               	movf	??_BME280_readPressure+10,w
  5825  05A7  00C8               	movwf	_BME280_readPressure$1244
  5826                           
  5827                           ;bme280.c: 261: var1 = (((cal_data.dig_P3 * (((var1>>2) * (var1>>2)) >> 13 )) >> 3) + ((
      +                          ((int32_t)cal_data.dig_P2) * var1)>>1))>>18;
  5828  05A8  0021               	movlb	1	; select bank1
  5829  05A9  0841               	movf	(_cal_data^(0+128)+8),w
  5830  05AA  00F0               	movwf	___lmul@multiplier
  5831  05AB  0842               	movf	((_cal_data+1)^(0+128)+8),w
  5832  05AC  00F1               	movwf	___lmul@multiplier+1
  5833  05AD  0D89               	rlf	9,f
  5834  05AE  3B89               	subwfb	9,f
  5835  05AF  0989               	comf	9,f
  5836  05B0  00F2               	movwf	___lmul@multiplier+2
  5837  05B1  00F3               	movwf	___lmul@multiplier+3
  5838  05B2  0020               	movlb	0	; select bank0
  5839  05B3  0857               	movf	BME280_readPressure@var1+3,w
  5840  05B4  00F7               	movwf	___lmul@multiplicand+3
  5841  05B5  0856               	movf	BME280_readPressure@var1+2,w
  5842  05B6  00F6               	movwf	___lmul@multiplicand+2
  5843  05B7  0855               	movf	BME280_readPressure@var1+1,w
  5844  05B8  00F5               	movwf	___lmul@multiplicand+1
  5845  05B9  0854               	movf	BME280_readPressure@var1,w
  5846  05BA  00F4               	movwf	___lmul@multiplicand
  5847  05BB  318A  22AF  3184   	fcall	___lmul
  5848  05BE  0870               	movf	?___lmul,w
  5849  05BF  0020               	movlb	0	; select bank0
  5850  05C0  00B3               	movwf	??_BME280_readPressure
  5851  05C1  0871               	movf	?___lmul+1,w
  5852  05C2  00B4               	movwf	??_BME280_readPressure+1
  5853  05C3  0872               	movf	?___lmul+2,w
  5854  05C4  00B5               	movwf	??_BME280_readPressure+2
  5855  05C5  0873               	movf	?___lmul+3,w
  5856  05C6  00B6               	movwf	??_BME280_readPressure+3
  5857  05C7  3001               	movlw	1
  5858  05C8  00B7               	movwf	??_BME280_readPressure+4
  5859  05C9                     u2025:	
  5860  05C9  37B6               	asrf	??_BME280_readPressure+3,f
  5861  05CA  0CB5               	rrf	??_BME280_readPressure+2,f
  5862  05CB  0CB4               	rrf	??_BME280_readPressure+1,f
  5863  05CC  0CB3               	rrf	??_BME280_readPressure,f
  5864  05CD  0BB7               	decfsz	??_BME280_readPressure+4,f
  5865  05CE  2DC9               	goto	u2025
  5866  05CF  0021               	movlb	1	; select bank1
  5867  05D0  0843               	movf	(_cal_data^(0+128)+10),w
  5868  05D1  00F0               	movwf	___lmul@multiplier
  5869  05D2  0844               	movf	((_cal_data+1)^(0+128)+10),w
  5870  05D3  00F1               	movwf	___lmul@multiplier+1
  5871  05D4  0D89               	rlf	9,f
  5872  05D5  3B89               	subwfb	9,f
  5873  05D6  0989               	comf	9,f
  5874  05D7  00F2               	movwf	___lmul@multiplier+2
  5875  05D8  00F3               	movwf	___lmul@multiplier+3
  5876  05D9  0020               	movlb	0	; select bank0
  5877  05DA  084B               	movf	_BME280_readPressure$1244+3,w
  5878  05DB  00F7               	movwf	___lmul@multiplicand+3
  5879  05DC  084A               	movf	_BME280_readPressure$1244+2,w
  5880  05DD  00F6               	movwf	___lmul@multiplicand+2
  5881  05DE  0849               	movf	_BME280_readPressure$1244+1,w
  5882  05DF  00F5               	movwf	___lmul@multiplicand+1
  5883  05E0  0848               	movf	_BME280_readPressure$1244,w
  5884  05E1  00F4               	movwf	___lmul@multiplicand
  5885  05E2  318A  22AF  3184   	fcall	___lmul
  5886  05E5  0870               	movf	?___lmul,w
  5887  05E6  0020               	movlb	0	; select bank0
  5888  05E7  00B8               	movwf	??_BME280_readPressure+5
  5889  05E8  0871               	movf	?___lmul+1,w
  5890  05E9  00B9               	movwf	??_BME280_readPressure+6
  5891  05EA  0872               	movf	?___lmul+2,w
  5892  05EB  00BA               	movwf	??_BME280_readPressure+7
  5893  05EC  0873               	movf	?___lmul+3,w
  5894  05ED  00BB               	movwf	??_BME280_readPressure+8
  5895  05EE  3003               	movlw	3
  5896  05EF  00BC               	movwf	??_BME280_readPressure+9
  5897  05F0                     u2035:	
  5898  05F0  37BB               	asrf	??_BME280_readPressure+8,f
  5899  05F1  0CBA               	rrf	??_BME280_readPressure+7,f
  5900  05F2  0CB9               	rrf	??_BME280_readPressure+6,f
  5901  05F3  0CB8               	rrf	??_BME280_readPressure+5,f
  5902  05F4  0BBC               	decfsz	??_BME280_readPressure+9,f
  5903  05F5  2DF0               	goto	u2035
  5904  05F6  0838               	movf	??_BME280_readPressure+5,w
  5905  05F7  07B3               	addwf	??_BME280_readPressure,f
  5906  05F8  0839               	movf	??_BME280_readPressure+6,w
  5907  05F9  3DB4               	addwfc	??_BME280_readPressure+1,f
  5908  05FA  083A               	movf	??_BME280_readPressure+7,w
  5909  05FB  3DB5               	addwfc	??_BME280_readPressure+2,f
  5910  05FC  083B               	movf	??_BME280_readPressure+8,w
  5911  05FD  3DB6               	addwfc	??_BME280_readPressure+3,f
  5912  05FE  3012               	movlw	18
  5913  05FF  00BD               	movwf	??_BME280_readPressure+10
  5914  0600                     u2045:	
  5915  0600  37B6               	asrf	??_BME280_readPressure+3,f
  5916  0601  0CB5               	rrf	??_BME280_readPressure+2,f
  5917  0602  0CB4               	rrf	??_BME280_readPressure+1,f
  5918  0603  0CB3               	rrf	??_BME280_readPressure,f
  5919  0604  0BBD               	decfsz	??_BME280_readPressure+10,f
  5920  0605  2E00               	goto	u2045
  5921  0606  0836               	movf	??_BME280_readPressure+3,w
  5922  0607  00D7               	movwf	BME280_readPressure@var1+3
  5923  0608  0835               	movf	??_BME280_readPressure+2,w
  5924  0609  00D6               	movwf	BME280_readPressure@var1+2
  5925  060A  0834               	movf	??_BME280_readPressure+1,w
  5926  060B  00D5               	movwf	BME280_readPressure@var1+1
  5927  060C  0833               	movf	??_BME280_readPressure,w
  5928  060D  00D4               	movwf	BME280_readPressure@var1
  5929                           
  5930                           ;bme280.c: 262: var1 =((((32768+var1))*((int32_t)cal_data.dig_P1))>>15);
  5931  060E  3000               	movlw	0
  5932  060F  0754               	addwf	BME280_readPressure@var1,w
  5933  0610  00F0               	movwf	___lmul@multiplier
  5934  0611  3080               	movlw	128
  5935  0612  3D55               	addwfc	BME280_readPressure@var1+1,w
  5936  0613  00F1               	movwf	___lmul@multiplier+1
  5937  0614  3000               	movlw	0
  5938  0615  3D56               	addwfc	BME280_readPressure@var1+2,w
  5939  0616  00F2               	movwf	___lmul@multiplier+2
  5940  0617  3000               	movlw	0
  5941  0618  3D57               	addwfc	BME280_readPressure@var1+3,w
  5942  0619  00F3               	movwf	___lmul@multiplier+3
  5943  061A  0021               	movlb	1	; select bank1
  5944  061B  083F               	movf	(_cal_data^(0+128)+6),w
  5945  061C  00F4               	movwf	___lmul@multiplicand
  5946  061D  0840               	movf	((_cal_data+1)^(0+128)+6),w
  5947  061E  00F5               	movwf	___lmul@multiplicand+1
  5948  061F  01F6               	clrf	___lmul@multiplicand+2
  5949  0620  01F7               	clrf	___lmul@multiplicand+3
  5950  0621  318A  22AF  3184   	fcall	___lmul
  5951  0624  0870               	movf	?___lmul,w
  5952  0625  0020               	movlb	0	; select bank0
  5953  0626  00B3               	movwf	??_BME280_readPressure
  5954  0627  0871               	movf	?___lmul+1,w
  5955  0628  00B4               	movwf	??_BME280_readPressure+1
  5956  0629  0872               	movf	?___lmul+2,w
  5957  062A  00B5               	movwf	??_BME280_readPressure+2
  5958  062B  0873               	movf	?___lmul+3,w
  5959  062C  00B6               	movwf	??_BME280_readPressure+3
  5960  062D  300F               	movlw	15
  5961  062E  00B7               	movwf	??_BME280_readPressure+4
  5962  062F                     u2055:	
  5963  062F  37B6               	asrf	??_BME280_readPressure+3,f
  5964  0630  0CB5               	rrf	??_BME280_readPressure+2,f
  5965  0631  0CB4               	rrf	??_BME280_readPressure+1,f
  5966  0632  0CB3               	rrf	??_BME280_readPressure,f
  5967  0633  0BB7               	decfsz	??_BME280_readPressure+4,f
  5968  0634  2E2F               	goto	u2055
  5969  0635  0836               	movf	??_BME280_readPressure+3,w
  5970  0636  00D7               	movwf	BME280_readPressure@var1+3
  5971  0637  0835               	movf	??_BME280_readPressure+2,w
  5972  0638  00D6               	movwf	BME280_readPressure@var1+2
  5973  0639  0834               	movf	??_BME280_readPressure+1,w
  5974  063A  00D5               	movwf	BME280_readPressure@var1+1
  5975  063B  0833               	movf	??_BME280_readPressure,w
  5976  063C  00D4               	movwf	BME280_readPressure@var1
  5977                           
  5978                           ;bme280.c: 263: if (var1 == 0) {
  5979  063D  0857               	movf	BME280_readPressure@var1+3,w
  5980  063E  0456               	iorwf	BME280_readPressure@var1+2,w
  5981  063F  0455               	iorwf	BME280_readPressure@var1+1,w
  5982  0640  0454               	iorwf	BME280_readPressure@var1,w
  5983  0641  1D03               	skipz
  5984  0642  2E4A               	goto	l1873
  5985                           
  5986                           ;bme280.c: 264: return 0;
  5987  0643  3000               	movlw	0
  5988  0644  00B0               	movwf	?_BME280_readPressure
  5989  0645  3000               	movlw	0
  5990  0646  00B1               	movwf	?_BME280_readPressure+1
  5991  0647  3000               	movlw	0
  5992  0648  00B2               	movwf	?_BME280_readPressure+2
  5993  0649  0008               	return
  5994  064A                     l1873:	
  5995                           
  5996                           ;bme280.c: 265: }
  5997                           ;bme280.c: 266: p = (((uint32_t)(((int32_t)1048576)-adc_P)-(var2>>12)))*3125;
  5998  064A  0844               	movf	BME280_readPressure@adc_P,w
  5999  064B  00B3               	movwf	??_BME280_readPressure
  6000  064C  0845               	movf	BME280_readPressure@adc_P+1,w
  6001  064D  00B4               	movwf	??_BME280_readPressure+1
  6002  064E  0846               	movf	BME280_readPressure@adc_P+2,w
  6003  064F  00B5               	movwf	??_BME280_readPressure+2
  6004  0650  0847               	movf	BME280_readPressure@adc_P+3,w
  6005  0651  00B6               	movwf	??_BME280_readPressure+3
  6006  0652  084C               	movf	BME280_readPressure@var2,w
  6007  0653  00B7               	movwf	??_BME280_readPressure+4
  6008  0654  084D               	movf	BME280_readPressure@var2+1,w
  6009  0655  00B8               	movwf	??_BME280_readPressure+5
  6010  0656  084E               	movf	BME280_readPressure@var2+2,w
  6011  0657  00B9               	movwf	??_BME280_readPressure+6
  6012  0658  084F               	movf	BME280_readPressure@var2+3,w
  6013  0659  00BA               	movwf	??_BME280_readPressure+7
  6014  065A  300C               	movlw	12
  6015  065B  00BB               	movwf	??_BME280_readPressure+8
  6016  065C                     u2075:	
  6017  065C  37BA               	asrf	??_BME280_readPressure+7,f
  6018  065D  0CB9               	rrf	??_BME280_readPressure+6,f
  6019  065E  0CB8               	rrf	??_BME280_readPressure+5,f
  6020  065F  0CB7               	rrf	??_BME280_readPressure+4,f
  6021  0660  0BBB               	decfsz	??_BME280_readPressure+8,f
  6022  0661  2E5C               	goto	u2075
  6023  0662  0837               	movf	??_BME280_readPressure+4,w
  6024  0663  07B3               	addwf	??_BME280_readPressure,f
  6025  0664  0838               	movf	??_BME280_readPressure+5,w
  6026  0665  3DB4               	addwfc	??_BME280_readPressure+1,f
  6027  0666  0839               	movf	??_BME280_readPressure+6,w
  6028  0667  3DB5               	addwfc	??_BME280_readPressure+2,f
  6029  0668  083A               	movf	??_BME280_readPressure+7,w
  6030  0669  3DB6               	addwfc	??_BME280_readPressure+3,f
  6031  066A  09B3               	comf	??_BME280_readPressure,f
  6032  066B  09B4               	comf	??_BME280_readPressure+1,f
  6033  066C  09B5               	comf	??_BME280_readPressure+2,f
  6034  066D  09B6               	comf	??_BME280_readPressure+3,f
  6035  066E  0AB3               	incf	??_BME280_readPressure,f
  6036  066F  1903               	skipnz
  6037  0670  0AB4               	incf	??_BME280_readPressure+1,f
  6038  0671  1903               	skipnz
  6039  0672  0AB5               	incf	??_BME280_readPressure+2,f
  6040  0673  1903               	skipnz
  6041  0674  0AB6               	incf	??_BME280_readPressure+3,f
  6042  0675  3000               	movlw	0
  6043  0676  0733               	addwf	??_BME280_readPressure,w
  6044  0677  00F0               	movwf	___lmul@multiplier
  6045  0678  3000               	movlw	0
  6046  0679  3D34               	addwfc	??_BME280_readPressure+1,w
  6047  067A  00F1               	movwf	___lmul@multiplier+1
  6048  067B  3010               	movlw	16
  6049  067C  3D35               	addwfc	??_BME280_readPressure+2,w
  6050  067D  00F2               	movwf	___lmul@multiplier+2
  6051  067E  3000               	movlw	0
  6052  067F  3D36               	addwfc	??_BME280_readPressure+3,w
  6053  0680  00F3               	movwf	___lmul@multiplier+3
  6054  0681  3000               	movlw	0
  6055  0682  00F7               	movwf	___lmul@multiplicand+3
  6056  0683  3000               	movlw	0
  6057  0684  00F6               	movwf	___lmul@multiplicand+2
  6058  0685  300C               	movlw	12
  6059  0686  00F5               	movwf	___lmul@multiplicand+1
  6060  0687  3035               	movlw	53
  6061  0688  00F4               	movwf	___lmul@multiplicand
  6062  0689  318A  22AF  3184   	fcall	___lmul
  6063  068C  0873               	movf	?___lmul+3,w
  6064  068D  0020               	movlb	0	; select bank0
  6065  068E  00D3               	movwf	BME280_readPressure@p+3
  6066  068F  0872               	movf	?___lmul+2,w
  6067  0690  00D2               	movwf	BME280_readPressure@p+2
  6068  0691  0871               	movf	?___lmul+1,w
  6069  0692  00D1               	movwf	BME280_readPressure@p+1
  6070  0693  0870               	movf	?___lmul,w
  6071  0694  00D0               	movwf	BME280_readPressure@p
  6072                           
  6073                           ;bme280.c: 267: if (p < 0x80000000) {
  6074  0695  3080               	movlw	128
  6075  0696  0253               	subwf	BME280_readPressure@p+3,w
  6076  0697  1803               	btfsc	3,0
  6077  0698  2EB6               	goto	l1879
  6078                           
  6079                           ;bme280.c: 268: p = (p << 1) / ((uint32_t)var1);
  6080  0699  0857               	movf	BME280_readPressure@var1+3,w
  6081  069A  00F3               	movwf	___lldiv@divisor+3
  6082  069B  0856               	movf	BME280_readPressure@var1+2,w
  6083  069C  00F2               	movwf	___lldiv@divisor+2
  6084  069D  0855               	movf	BME280_readPressure@var1+1,w
  6085  069E  00F1               	movwf	___lldiv@divisor+1
  6086  069F  0854               	movf	BME280_readPressure@var1,w
  6087  06A0  00F0               	movwf	___lldiv@divisor
  6088  06A1  3550               	lslf	BME280_readPressure@p,w
  6089  06A2  00F4               	movwf	___lldiv@dividend
  6090  06A3  0D51               	rlf	BME280_readPressure@p+1,w
  6091  06A4  00F5               	movwf	___lldiv@dividend+1
  6092  06A5  0D52               	rlf	BME280_readPressure@p+2,w
  6093  06A6  00F6               	movwf	___lldiv@dividend+2
  6094  06A7  0D53               	rlf	BME280_readPressure@p+3,w
  6095  06A8  00F7               	movwf	___lldiv@dividend+3
  6096  06A9  3180  2006  3184   	fcall	___lldiv
  6097  06AC  0873               	movf	?___lldiv+3,w
  6098  06AD  0020               	movlb	0	; select bank0
  6099  06AE  00D3               	movwf	BME280_readPressure@p+3
  6100  06AF  0872               	movf	?___lldiv+2,w
  6101  06B0  00D2               	movwf	BME280_readPressure@p+2
  6102  06B1  0871               	movf	?___lldiv+1,w
  6103  06B2  00D1               	movwf	BME280_readPressure@p+1
  6104  06B3  0870               	movf	?___lldiv,w
  6105  06B4  00D0               	movwf	BME280_readPressure@p
  6106                           
  6107                           ;bme280.c: 269: } else {
  6108  06B5  2ED2               	goto	l307
  6109  06B6                     l1879:	
  6110                           
  6111                           ;bme280.c: 270: p = (p / (uint32_t)var1) * 2;
  6112  06B6  0857               	movf	BME280_readPressure@var1+3,w
  6113  06B7  00F3               	movwf	___lldiv@divisor+3
  6114  06B8  0856               	movf	BME280_readPressure@var1+2,w
  6115  06B9  00F2               	movwf	___lldiv@divisor+2
  6116  06BA  0855               	movf	BME280_readPressure@var1+1,w
  6117  06BB  00F1               	movwf	___lldiv@divisor+1
  6118  06BC  0854               	movf	BME280_readPressure@var1,w
  6119  06BD  00F0               	movwf	___lldiv@divisor
  6120  06BE  0853               	movf	BME280_readPressure@p+3,w
  6121  06BF  00F7               	movwf	___lldiv@dividend+3
  6122  06C0  0852               	movf	BME280_readPressure@p+2,w
  6123  06C1  00F6               	movwf	___lldiv@dividend+2
  6124  06C2  0851               	movf	BME280_readPressure@p+1,w
  6125  06C3  00F5               	movwf	___lldiv@dividend+1
  6126  06C4  0850               	movf	BME280_readPressure@p,w
  6127  06C5  00F4               	movwf	___lldiv@dividend
  6128  06C6  3180  2006  3184   	fcall	___lldiv
  6129  06C9  3570               	lslf	?___lldiv,w
  6130  06CA  0020               	movlb	0	; select bank0
  6131  06CB  00D0               	movwf	BME280_readPressure@p
  6132  06CC  0D71               	rlf	?___lldiv+1,w
  6133  06CD  00D1               	movwf	BME280_readPressure@p+1
  6134  06CE  0D72               	rlf	?___lldiv+2,w
  6135  06CF  00D2               	movwf	BME280_readPressure@p+2
  6136  06D0  0D73               	rlf	?___lldiv+3,w
  6137  06D1  00D3               	movwf	BME280_readPressure@p+3
  6138  06D2                     l307:	
  6139                           
  6140                           ;bme280.c: 271: }
  6141                           ;bme280.c: 272: var1 = (((int32_t)cal_data.dig_P9) * ((int32_t)(((p>>3) * (p>>3))>>13)))
      +                          >>12;
  6142  06D2  0850               	movf	BME280_readPressure@p,w
  6143  06D3  00B3               	movwf	??_BME280_readPressure
  6144  06D4  0851               	movf	BME280_readPressure@p+1,w
  6145  06D5  00B4               	movwf	??_BME280_readPressure+1
  6146  06D6  0852               	movf	BME280_readPressure@p+2,w
  6147  06D7  00B5               	movwf	??_BME280_readPressure+2
  6148  06D8  0853               	movf	BME280_readPressure@p+3,w
  6149  06D9  00B6               	movwf	??_BME280_readPressure+3
  6150  06DA  3003               	movlw	3
  6151  06DB                     u2095:	
  6152  06DB  36B6               	lsrf	??_BME280_readPressure+3,f
  6153  06DC  0CB5               	rrf	??_BME280_readPressure+2,f
  6154  06DD  0CB4               	rrf	??_BME280_readPressure+1,f
  6155  06DE  0CB3               	rrf	??_BME280_readPressure,f
  6156  06DF  0B89               	decfsz	9,f
  6157  06E0  2EDB               	goto	u2095
  6158  06E1  0836               	movf	??_BME280_readPressure+3,w
  6159  06E2  00F7               	movwf	___lmul@multiplicand+3
  6160  06E3  0835               	movf	??_BME280_readPressure+2,w
  6161  06E4  00F6               	movwf	___lmul@multiplicand+2
  6162  06E5  0834               	movf	??_BME280_readPressure+1,w
  6163  06E6  00F5               	movwf	___lmul@multiplicand+1
  6164  06E7  0833               	movf	??_BME280_readPressure,w
  6165  06E8  00F4               	movwf	___lmul@multiplicand
  6166  06E9  0850               	movf	BME280_readPressure@p,w
  6167  06EA  00B7               	movwf	??_BME280_readPressure+4
  6168  06EB  0851               	movf	BME280_readPressure@p+1,w
  6169  06EC  00B8               	movwf	??_BME280_readPressure+5
  6170  06ED  0852               	movf	BME280_readPressure@p+2,w
  6171  06EE  00B9               	movwf	??_BME280_readPressure+6
  6172  06EF  0853               	movf	BME280_readPressure@p+3,w
  6173  06F0  00BA               	movwf	??_BME280_readPressure+7
  6174  06F1  3003               	movlw	3
  6175  06F2                     u2105:	
  6176  06F2  36BA               	lsrf	??_BME280_readPressure+7,f
  6177  06F3  0CB9               	rrf	??_BME280_readPressure+6,f
  6178  06F4  0CB8               	rrf	??_BME280_readPressure+5,f
  6179  06F5  0CB7               	rrf	??_BME280_readPressure+4,f
  6180  06F6  0B89               	decfsz	9,f
  6181  06F7  2EF2               	goto	u2105
  6182  06F8  083A               	movf	??_BME280_readPressure+7,w
  6183  06F9  00F3               	movwf	___lmul@multiplier+3
  6184  06FA  0839               	movf	??_BME280_readPressure+6,w
  6185  06FB  00F2               	movwf	___lmul@multiplier+2
  6186  06FC  0838               	movf	??_BME280_readPressure+5,w
  6187  06FD  00F1               	movwf	___lmul@multiplier+1
  6188  06FE  0837               	movf	??_BME280_readPressure+4,w
  6189  06FF  00F0               	movwf	___lmul@multiplier
  6190  0700  318A  22AF  3184   	fcall	___lmul
  6191  0703  0870               	movf	?___lmul,w
  6192  0704  0020               	movlb	0	; select bank0
  6193  0705  00BB               	movwf	??_BME280_readPressure+8
  6194  0706  0871               	movf	?___lmul+1,w
  6195  0707  00BC               	movwf	??_BME280_readPressure+9
  6196  0708  0872               	movf	?___lmul+2,w
  6197  0709  00BD               	movwf	??_BME280_readPressure+10
  6198  070A  0873               	movf	?___lmul+3,w
  6199  070B  00BE               	movwf	??_BME280_readPressure+11
  6200  070C  300D               	movlw	13
  6201  070D                     u2115:	
  6202  070D  36BE               	lsrf	??_BME280_readPressure+11,f
  6203  070E  0CBD               	rrf	??_BME280_readPressure+10,f
  6204  070F  0CBC               	rrf	??_BME280_readPressure+9,f
  6205  0710  0CBB               	rrf	??_BME280_readPressure+8,f
  6206  0711  0B89               	decfsz	9,f
  6207  0712  2F0D               	goto	u2115
  6208  0713  083E               	movf	??_BME280_readPressure+11,w
  6209  0714  00CB               	movwf	_BME280_readPressure$1244+3
  6210  0715  083D               	movf	??_BME280_readPressure+10,w
  6211  0716  00CA               	movwf	_BME280_readPressure$1244+2
  6212  0717  083C               	movf	??_BME280_readPressure+9,w
  6213  0718  00C9               	movwf	_BME280_readPressure$1244+1
  6214  0719  083B               	movf	??_BME280_readPressure+8,w
  6215  071A  00C8               	movwf	_BME280_readPressure$1244
  6216                           
  6217                           ;bme280.c: 271: }
  6218                           ;bme280.c: 272: var1 = (((int32_t)cal_data.dig_P9) * ((int32_t)(((p>>3) * (p>>3))>>13)))
      +                          >>12;
  6219  071B  0021               	movlb	1	; select bank1
  6220  071C  084F               	movf	(_cal_data^(0+128)+22),w
  6221  071D  00F0               	movwf	___lmul@multiplier
  6222  071E  0850               	movf	((_cal_data+1)^(0+128)+22),w
  6223  071F  00F1               	movwf	___lmul@multiplier+1
  6224  0720  0D89               	rlf	9,f
  6225  0721  3B89               	subwfb	9,f
  6226  0722  0989               	comf	9,f
  6227  0723  00F2               	movwf	___lmul@multiplier+2
  6228  0724  00F3               	movwf	___lmul@multiplier+3
  6229  0725  0020               	movlb	0	; select bank0
  6230  0726  084B               	movf	_BME280_readPressure$1244+3,w
  6231  0727  00F7               	movwf	___lmul@multiplicand+3
  6232  0728  084A               	movf	_BME280_readPressure$1244+2,w
  6233  0729  00F6               	movwf	___lmul@multiplicand+2
  6234  072A  0849               	movf	_BME280_readPressure$1244+1,w
  6235  072B  00F5               	movwf	___lmul@multiplicand+1
  6236  072C  0848               	movf	_BME280_readPressure$1244,w
  6237  072D  00F4               	movwf	___lmul@multiplicand
  6238  072E  318A  22AF  3184   	fcall	___lmul
  6239  0731  0870               	movf	?___lmul,w
  6240  0732  0020               	movlb	0	; select bank0
  6241  0733  00B3               	movwf	??_BME280_readPressure
  6242  0734  0871               	movf	?___lmul+1,w
  6243  0735  00B4               	movwf	??_BME280_readPressure+1
  6244  0736  0872               	movf	?___lmul+2,w
  6245  0737  00B5               	movwf	??_BME280_readPressure+2
  6246  0738  0873               	movf	?___lmul+3,w
  6247  0739  00B6               	movwf	??_BME280_readPressure+3
  6248  073A  300C               	movlw	12
  6249  073B  00B7               	movwf	??_BME280_readPressure+4
  6250  073C                     u2125:	
  6251  073C  37B6               	asrf	??_BME280_readPressure+3,f
  6252  073D  0CB5               	rrf	??_BME280_readPressure+2,f
  6253  073E  0CB4               	rrf	??_BME280_readPressure+1,f
  6254  073F  0CB3               	rrf	??_BME280_readPressure,f
  6255  0740  0BB7               	decfsz	??_BME280_readPressure+4,f
  6256  0741  2F3C               	goto	u2125
  6257  0742  0836               	movf	??_BME280_readPressure+3,w
  6258  0743  00D7               	movwf	BME280_readPressure@var1+3
  6259  0744  0835               	movf	??_BME280_readPressure+2,w
  6260  0745  00D6               	movwf	BME280_readPressure@var1+2
  6261  0746  0834               	movf	??_BME280_readPressure+1,w
  6262  0747  00D5               	movwf	BME280_readPressure@var1+1
  6263  0748  0833               	movf	??_BME280_readPressure,w
  6264  0749  00D4               	movwf	BME280_readPressure@var1
  6265                           
  6266                           ;bme280.c: 273: var2 = (((int32_t)(p>>2)) * ((int32_t)cal_data.dig_P8))>>13;
  6267  074A  0850               	movf	BME280_readPressure@p,w
  6268  074B  00B3               	movwf	??_BME280_readPressure
  6269  074C  0851               	movf	BME280_readPressure@p+1,w
  6270  074D  00B4               	movwf	??_BME280_readPressure+1
  6271  074E  0852               	movf	BME280_readPressure@p+2,w
  6272  074F  00B5               	movwf	??_BME280_readPressure+2
  6273  0750  0853               	movf	BME280_readPressure@p+3,w
  6274  0751  00B6               	movwf	??_BME280_readPressure+3
  6275  0752  3002               	movlw	2
  6276  0753                     u2135:	
  6277  0753  36B6               	lsrf	??_BME280_readPressure+3,f
  6278  0754  0CB5               	rrf	??_BME280_readPressure+2,f
  6279  0755  0CB4               	rrf	??_BME280_readPressure+1,f
  6280  0756  0CB3               	rrf	??_BME280_readPressure,f
  6281  0757  0B89               	decfsz	9,f
  6282  0758  2F53               	goto	u2135
  6283  0759  0836               	movf	??_BME280_readPressure+3,w
  6284  075A  00F3               	movwf	___lmul@multiplier+3
  6285  075B  0835               	movf	??_BME280_readPressure+2,w
  6286  075C  00F2               	movwf	___lmul@multiplier+2
  6287  075D  0834               	movf	??_BME280_readPressure+1,w
  6288  075E  00F1               	movwf	___lmul@multiplier+1
  6289  075F  0833               	movf	??_BME280_readPressure,w
  6290  0760  00F0               	movwf	___lmul@multiplier
  6291  0761  0021               	movlb	1	; select bank1
  6292  0762  084D               	movf	(_cal_data^(0+128)+20),w
  6293  0763  00F4               	movwf	___lmul@multiplicand
  6294  0764  084E               	movf	((_cal_data+1)^(0+128)+20),w
  6295  0765  00F5               	movwf	___lmul@multiplicand+1
  6296  0766  0D89               	rlf	9,f
  6297  0767  3B89               	subwfb	9,f
  6298  0768  0989               	comf	9,f
  6299  0769  00F6               	movwf	___lmul@multiplicand+2
  6300  076A  00F7               	movwf	___lmul@multiplicand+3
  6301  076B  318A  22AF  3184   	fcall	___lmul
  6302  076E  0870               	movf	?___lmul,w
  6303  076F  0020               	movlb	0	; select bank0
  6304  0770  00B7               	movwf	??_BME280_readPressure+4
  6305  0771  0871               	movf	?___lmul+1,w
  6306  0772  00B8               	movwf	??_BME280_readPressure+5
  6307  0773  0872               	movf	?___lmul+2,w
  6308  0774  00B9               	movwf	??_BME280_readPressure+6
  6309  0775  0873               	movf	?___lmul+3,w
  6310  0776  00BA               	movwf	??_BME280_readPressure+7
  6311  0777  300D               	movlw	13
  6312  0778  00BB               	movwf	??_BME280_readPressure+8
  6313  0779                     u2145:	
  6314  0779  37BA               	asrf	??_BME280_readPressure+7,f
  6315  077A  0CB9               	rrf	??_BME280_readPressure+6,f
  6316  077B  0CB8               	rrf	??_BME280_readPressure+5,f
  6317  077C  0CB7               	rrf	??_BME280_readPressure+4,f
  6318  077D  0BBB               	decfsz	??_BME280_readPressure+8,f
  6319  077E  2F79               	goto	u2145
  6320  077F  083A               	movf	??_BME280_readPressure+7,w
  6321  0780  00CF               	movwf	BME280_readPressure@var2+3
  6322  0781  0839               	movf	??_BME280_readPressure+6,w
  6323  0782  00CE               	movwf	BME280_readPressure@var2+2
  6324  0783  0838               	movf	??_BME280_readPressure+5,w
  6325  0784  00CD               	movwf	BME280_readPressure@var2+1
  6326  0785  0837               	movf	??_BME280_readPressure+4,w
  6327  0786  00CC               	movwf	BME280_readPressure@var2
  6328                           
  6329                           ;bme280.c: 274: p = (uint32_t)((int32_t)p + ((var1 + var2 + cal_data.dig_P7) >> 4));
  6330  0787  0850               	movf	BME280_readPressure@p,w
  6331  0788  00B3               	movwf	??_BME280_readPressure
  6332  0789  0851               	movf	BME280_readPressure@p+1,w
  6333  078A  00B4               	movwf	??_BME280_readPressure+1
  6334  078B  0852               	movf	BME280_readPressure@p+2,w
  6335  078C  00B5               	movwf	??_BME280_readPressure+2
  6336  078D  0853               	movf	BME280_readPressure@p+3,w
  6337  078E  00B6               	movwf	??_BME280_readPressure+3
  6338  078F  084C               	movf	BME280_readPressure@var2,w
  6339  0790  00B7               	movwf	??_BME280_readPressure+4
  6340  0791  084D               	movf	BME280_readPressure@var2+1,w
  6341  0792  00B8               	movwf	??_BME280_readPressure+5
  6342  0793  084E               	movf	BME280_readPressure@var2+2,w
  6343  0794  00B9               	movwf	??_BME280_readPressure+6
  6344  0795  084F               	movf	BME280_readPressure@var2+3,w
  6345  0796  00BA               	movwf	??_BME280_readPressure+7
  6346  0797  0854               	movf	BME280_readPressure@var1,w
  6347  0798  00BB               	movwf	??_BME280_readPressure+8
  6348  0799  0855               	movf	BME280_readPressure@var1+1,w
  6349  079A  00BC               	movwf	??_BME280_readPressure+9
  6350  079B  0856               	movf	BME280_readPressure@var1+2,w
  6351  079C  00BD               	movwf	??_BME280_readPressure+10
  6352  079D  0857               	movf	BME280_readPressure@var1+3,w
  6353  079E  00BE               	movwf	??_BME280_readPressure+11
  6354  079F  0021               	movlb	1	; select bank1
  6355  07A0  084B               	movf	(_cal_data^(0+128)+18),w
  6356  07A1  0020               	movlb	0	; select bank0
  6357  07A2  00BF               	movwf	??_BME280_readPressure+12
  6358  07A3  0021               	movlb	1	; select bank1
  6359  07A4  084C               	movf	((_cal_data+1)^(0+128)+18),w
  6360  07A5  0020               	movlb	0	; select bank0
  6361  07A6  00C0               	movwf	??_BME280_readPressure+13
  6362  07A7  3000               	movlw	0
  6363  07A8  1BC0               	btfsc	??_BME280_readPressure+13,7
  6364  07A9  30FF               	movlw	255
  6365  07AA  00C1               	movwf	??_BME280_readPressure+14
  6366  07AB  00C2               	movwf	??_BME280_readPressure+15
  6367  07AC  083F               	movf	??_BME280_readPressure+12,w
  6368  07AD  07BB               	addwf	??_BME280_readPressure+8,f
  6369  07AE  0840               	movf	??_BME280_readPressure+13,w
  6370  07AF  3DBC               	addwfc	??_BME280_readPressure+9,f
  6371  07B0  0841               	movf	??_BME280_readPressure+14,w
  6372  07B1  3DBD               	addwfc	??_BME280_readPressure+10,f
  6373  07B2  0842               	movf	??_BME280_readPressure+15,w
  6374  07B3  3DBE               	addwfc	??_BME280_readPressure+11,f
  6375  07B4  083B               	movf	??_BME280_readPressure+8,w
  6376  07B5  07B7               	addwf	??_BME280_readPressure+4,f
  6377  07B6  083C               	movf	??_BME280_readPressure+9,w
  6378  07B7  3DB8               	addwfc	??_BME280_readPressure+5,f
  6379  07B8  083D               	movf	??_BME280_readPressure+10,w
  6380  07B9  3DB9               	addwfc	??_BME280_readPressure+6,f
  6381  07BA  083E               	movf	??_BME280_readPressure+11,w
  6382  07BB  3DBA               	addwfc	??_BME280_readPressure+7,f
  6383  07BC  3004               	movlw	4
  6384  07BD  00C3               	movwf	??_BME280_readPressure+16
  6385  07BE                     u2155:	
  6386  07BE  37BA               	asrf	??_BME280_readPressure+7,f
  6387  07BF  0CB9               	rrf	??_BME280_readPressure+6,f
  6388  07C0  0CB8               	rrf	??_BME280_readPressure+5,f
  6389  07C1  0CB7               	rrf	??_BME280_readPressure+4,f
  6390  07C2  0BC3               	decfsz	??_BME280_readPressure+16,f
  6391  07C3  2FBE               	goto	u2155
  6392  07C4  0837               	movf	??_BME280_readPressure+4,w
  6393  07C5  07B3               	addwf	??_BME280_readPressure,f
  6394  07C6  0838               	movf	??_BME280_readPressure+5,w
  6395  07C7  3DB4               	addwfc	??_BME280_readPressure+1,f
  6396  07C8  0839               	movf	??_BME280_readPressure+6,w
  6397  07C9  3DB5               	addwfc	??_BME280_readPressure+2,f
  6398  07CA  083A               	movf	??_BME280_readPressure+7,w
  6399  07CB  3DB6               	addwfc	??_BME280_readPressure+3,f
  6400  07CC  0836               	movf	??_BME280_readPressure+3,w
  6401  07CD  00D3               	movwf	BME280_readPressure@p+3
  6402  07CE  0835               	movf	??_BME280_readPressure+2,w
  6403  07CF  00D2               	movwf	BME280_readPressure@p+2
  6404  07D0  0834               	movf	??_BME280_readPressure+1,w
  6405  07D1  00D1               	movwf	BME280_readPressure@p+1
  6406  07D2  0833               	movf	??_BME280_readPressure,w
  6407  07D3  00D0               	movwf	BME280_readPressure@p
  6408                           
  6409                           ;bme280.c: 275: return (p/100.0);
  6410  07D4  3000               	movlw	0
  6411  07D5  00A0               	movwf	___ftdiv@f2
  6412  07D6  30C8               	movlw	200
  6413  07D7  00A1               	movwf	___ftdiv@f2+1
  6414  07D8  3042               	movlw	66
  6415  07D9  00A2               	movwf	___ftdiv@f2+2
  6416  07DA  0853               	movf	BME280_readPressure@p+3,w
  6417  07DB  00FB               	movwf	___lltoft@c+3
  6418  07DC  0852               	movf	BME280_readPressure@p+2,w
  6419  07DD  00FA               	movwf	___lltoft@c+2
  6420  07DE  0851               	movf	BME280_readPressure@p+1,w
  6421  07DF  00F9               	movwf	___lltoft@c+1
  6422  07E0  0850               	movf	BME280_readPressure@p,w
  6423  07E1  00F8               	movwf	___lltoft@c
  6424  07E2  318A  222E  3184   	fcall	___lltoft
  6425  07E5  0878               	movf	?___lltoft,w
  6426  07E6  0020               	movlb	0	; select bank0
  6427  07E7  00A3               	movwf	___ftdiv@f1
  6428  07E8  0879               	movf	?___lltoft+1,w
  6429  07E9  00A4               	movwf	___ftdiv@f1+1
  6430  07EA  087A               	movf	?___lltoft+2,w
  6431  07EB  00A5               	movwf	___ftdiv@f1+2
  6432  07EC  318E  2659         	fcall	___ftdiv
  6433  07EE  0020               	movlb	0	; select bank0
  6434  07EF  0820               	movf	?___ftdiv,w
  6435  07F0  00B0               	movwf	?_BME280_readPressure
  6436  07F1  0821               	movf	?___ftdiv+1,w
  6437  07F2  00B1               	movwf	?_BME280_readPressure+1
  6438  07F3  0822               	movf	?___ftdiv+2,w
  6439  07F4  00B2               	movwf	?_BME280_readPressure+2
  6440  07F5  0008               	return
  6441  07F6                     __end_of_BME280_readPressure:	
  6442                           
  6443                           	psect	text20
  6444  0A2E                     __ptext20:	
  6445 ;; *************** function ___lltoft *****************
  6446 ;; Defined at:
  6447 ;;		line 35 in file "/opt/microchip/xc8/v1.45/sources/common/lltoft.c"
  6448 ;; Parameters:    Size  Location     Type
  6449 ;;  c               4    8[COMMON] unsigned long 
  6450 ;; Auto vars:     Size  Location     Type
  6451 ;;  exp             1   13[COMMON] unsigned char 
  6452 ;; Return value:  Size  Location     Type
  6453 ;;                  3    8[COMMON] float 
  6454 ;; Registers used:
  6455 ;;		wreg, status,2, status,0, pclath, cstack
  6456 ;; Tracked objects:
  6457 ;;		On entry : 0/0
  6458 ;;		On exit  : 0/0
  6459 ;;		Unchanged: 0/0
  6460 ;; Data sizes:     COMMON   BANK0   BANK1   BANK2   BANK3   BANK4   BANK5   BANK6   BANK7   BANK8   BANK9  BANK10  BANK1
      +1  BANK12
  6461 ;;      Params:         4       0       0       0       0       0       0       0       0       0       0       0       
      +0       0
  6462 ;;      Locals:         1       0       0       0       0       0       0       0       0       0       0       0       
      +0       0
  6463 ;;      Temps:          1       0       0       0       0       0       0       0       0       0       0       0       
      +0       0
  6464 ;;      Totals:         6       0       0       0       0       0       0       0       0       0       0       0       
      +0       0
  6465 ;;Total ram usage:        6 bytes
  6466 ;; Hardware stack levels used:    1
  6467 ;; Hardware stack levels required when called:    1
  6468 ;; This function calls:
  6469 ;;		___ftpack
  6470 ;; This function is called by:
  6471 ;;		_BME280_readPressure
  6472 ;; This function uses a non-reentrant model
  6473 ;;
  6474                           
  6475                           
  6476                           ;psect for function ___lltoft
  6477  0A2E                     ___lltoft:	
  6478                           
  6479                           ;incstack = 0
  6480                           ; Regs used in ___lltoft: [wreg+status,2+status,0+pclath+cstack]
  6481  0A2E  308E               	movlw	142
  6482  0A2F  00FC               	movwf	??___lltoft
  6483  0A30  087C               	movf	??___lltoft,w
  6484  0A31  00FD               	movwf	___lltoft@exp
  6485  0A32                     l1695:	
  6486  0A32  30FF               	movlw	255
  6487  0A33  057B               	andwf	___lltoft@c+3,w
  6488  0A34  1903               	btfsc	3,2
  6489  0A35  2A42               	goto	l1697
  6490  0A36  3001               	movlw	1
  6491  0A37                     u1615:	
  6492  0A37  36FB               	lsrf	___lltoft@c+3,f
  6493  0A38  0CFA               	rrf	___lltoft@c+2,f
  6494  0A39  0CF9               	rrf	___lltoft@c+1,f
  6495  0A3A  0CF8               	rrf	___lltoft@c,f
  6496  0A3B  0B89               	decfsz	9,f
  6497  0A3C  2A37               	goto	u1615
  6498  0A3D  3001               	movlw	1
  6499  0A3E  00FC               	movwf	??___lltoft
  6500  0A3F  087C               	movf	??___lltoft,w
  6501  0A40  07FD               	addwf	___lltoft@exp,f
  6502  0A41  2A32               	goto	l1695
  6503  0A42                     l1697:	
  6504  0A42  0878               	movf	___lltoft@c,w
  6505  0A43  00F0               	movwf	___ftpack@arg
  6506  0A44  0879               	movf	___lltoft@c+1,w
  6507  0A45  00F1               	movwf	___ftpack@arg+1
  6508  0A46  087A               	movf	___lltoft@c+2,w
  6509  0A47  00F2               	movwf	___ftpack@arg+2
  6510  0A48  087D               	movf	___lltoft@exp,w
  6511  0A49  00FC               	movwf	??___lltoft
  6512  0A4A  087C               	movf	??___lltoft,w
  6513  0A4B  00F3               	movwf	___ftpack@exp
  6514  0A4C  01F4               	clrf	___ftpack@sign
  6515  0A4D  318C  247B         	fcall	___ftpack
  6516  0A4F  0870               	movf	?___ftpack,w
  6517  0A50  00F8               	movwf	?___lltoft
  6518  0A51  0871               	movf	?___ftpack+1,w
  6519  0A52  00F9               	movwf	?___lltoft+1
  6520  0A53  0872               	movf	?___ftpack+2,w
  6521  0A54  00FA               	movwf	?___lltoft+2
  6522  0A55  0008               	return
  6523  0A56                     __end_of___lltoft:	
  6524                           
  6525                           	psect	text21
  6526  0006                     __ptext21:	
  6527 ;; *************** function ___lldiv *****************
  6528 ;; Defined at:
  6529 ;;		line 6 in file "/opt/microchip/xc8/v1.45/sources/common/lldiv.c"
  6530 ;; Parameters:    Size  Location     Type
  6531 ;;  divisor         4    0[COMMON] unsigned long 
  6532 ;;  dividend        4    4[COMMON] unsigned long 
  6533 ;; Auto vars:     Size  Location     Type
  6534 ;;  quotient        4    9[COMMON] unsigned long 
  6535 ;;  counter         1   13[COMMON] unsigned char 
  6536 ;; Return value:  Size  Location     Type
  6537 ;;                  4    0[COMMON] unsigned long 
  6538 ;; Registers used:
  6539 ;;		wreg, status,2, status,0
  6540 ;; Tracked objects:
  6541 ;;		On entry : 0/0
  6542 ;;		On exit  : 0/0
  6543 ;;		Unchanged: 0/0
  6544 ;; Data sizes:     COMMON   BANK0   BANK1   BANK2   BANK3   BANK4   BANK5   BANK6   BANK7   BANK8   BANK9  BANK10  BANK1
      +1  BANK12
  6545 ;;      Params:         8       0       0       0       0       0       0       0       0       0       0       0       
      +0       0
  6546 ;;      Locals:         5       0       0       0       0       0       0       0       0       0       0       0       
      +0       0
  6547 ;;      Temps:          1       0       0       0       0       0       0       0       0       0       0       0       
      +0       0
  6548 ;;      Totals:        14       0       0       0       0       0       0       0       0       0       0       0       
      +0       0
  6549 ;;Total ram usage:       14 bytes
  6550 ;; Hardware stack levels used:    1
  6551 ;; This function calls:
  6552 ;;		Nothing
  6553 ;; This function is called by:
  6554 ;;		_I2C_Master_Init
  6555 ;;		_BME280_readPressure
  6556 ;; This function uses a non-reentrant model
  6557 ;;
  6558                           
  6559                           
  6560                           ;psect for function ___lldiv
  6561  0006                     ___lldiv:	
  6562                           
  6563                           ;incstack = 0
  6564                           ; Regs used in ___lldiv: [wreg+status,2+status,0]
  6565  0006  3000               	movlw	0
  6566  0007  00FC               	movwf	___lldiv@quotient+3
  6567  0008  3000               	movlw	0
  6568  0009  00FB               	movwf	___lldiv@quotient+2
  6569  000A  3000               	movlw	0
  6570  000B  00FA               	movwf	___lldiv@quotient+1
  6571  000C  3000               	movlw	0
  6572  000D  00F9               	movwf	___lldiv@quotient
  6573  000E  0873               	movf	___lldiv@divisor+3,w
  6574  000F  0472               	iorwf	___lldiv@divisor+2,w
  6575  0010  0471               	iorwf	___lldiv@divisor+1,w
  6576  0011  0470               	iorwf	___lldiv@divisor,w
  6577  0012  1903               	skipnz
  6578  0013  284F               	goto	l1687
  6579  0014  01FD               	clrf	___lldiv@counter
  6580  0015  0AFD               	incf	___lldiv@counter,f
  6581  0016                     l1673:	
  6582  0016  1BF3               	btfsc	___lldiv@divisor+3,7
  6583  0017  2824               	goto	l1675
  6584  0018  3001               	movlw	1
  6585  0019                     u1555:	
  6586  0019  35F0               	lslf	___lldiv@divisor,f
  6587  001A  0DF1               	rlf	___lldiv@divisor+1,f
  6588  001B  0DF2               	rlf	___lldiv@divisor+2,f
  6589  001C  0DF3               	rlf	___lldiv@divisor+3,f
  6590  001D  0B89               	decfsz	9,f
  6591  001E  2819               	goto	u1555
  6592  001F  3001               	movlw	1
  6593  0020  00F8               	movwf	??___lldiv
  6594  0021  0878               	movf	??___lldiv,w
  6595  0022  07FD               	addwf	___lldiv@counter,f
  6596  0023  2816               	goto	l1673
  6597  0024                     l1675:	
  6598  0024  3001               	movlw	1
  6599  0025                     u1575:	
  6600  0025  35F9               	lslf	___lldiv@quotient,f
  6601  0026  0DFA               	rlf	___lldiv@quotient+1,f
  6602  0027  0DFB               	rlf	___lldiv@quotient+2,f
  6603  0028  0DFC               	rlf	___lldiv@quotient+3,f
  6604  0029  0B89               	decfsz	9,f
  6605  002A  2825               	goto	u1575
  6606  002B  0873               	movf	___lldiv@divisor+3,w
  6607  002C  0277               	subwf	___lldiv@dividend+3,w
  6608  002D  1D03               	skipz
  6609  002E  2839               	goto	u1585
  6610  002F  0872               	movf	___lldiv@divisor+2,w
  6611  0030  0276               	subwf	___lldiv@dividend+2,w
  6612  0031  1D03               	skipz
  6613  0032  2839               	goto	u1585
  6614  0033  0871               	movf	___lldiv@divisor+1,w
  6615  0034  0275               	subwf	___lldiv@dividend+1,w
  6616  0035  1D03               	skipz
  6617  0036  2839               	goto	u1585
  6618  0037  0870               	movf	___lldiv@divisor,w
  6619  0038  0274               	subwf	___lldiv@dividend,w
  6620  0039                     u1585:	
  6621  0039  1C03               	skipc
  6622  003A  2844               	goto	l1683
  6623  003B  0870               	movf	___lldiv@divisor,w
  6624  003C  02F4               	subwf	___lldiv@dividend,f
  6625  003D  0871               	movf	___lldiv@divisor+1,w
  6626  003E  3BF5               	subwfb	___lldiv@dividend+1,f
  6627  003F  0872               	movf	___lldiv@divisor+2,w
  6628  0040  3BF6               	subwfb	___lldiv@dividend+2,f
  6629  0041  0873               	movf	___lldiv@divisor+3,w
  6630  0042  3BF7               	subwfb	___lldiv@dividend+3,f
  6631  0043  1479               	bsf	___lldiv@quotient,0
  6632  0044                     l1683:	
  6633  0044  3001               	movlw	1
  6634  0045                     u1595:	
  6635  0045  36F3               	lsrf	___lldiv@divisor+3,f
  6636  0046  0CF2               	rrf	___lldiv@divisor+2,f
  6637  0047  0CF1               	rrf	___lldiv@divisor+1,f
  6638  0048  0CF0               	rrf	___lldiv@divisor,f
  6639  0049  0B89               	decfsz	9,f
  6640  004A  2845               	goto	u1595
  6641  004B  3001               	movlw	1
  6642  004C  02FD               	subwf	___lldiv@counter,f
  6643  004D  1D03               	btfss	3,2
  6644  004E  2824               	goto	l1675
  6645  004F                     l1687:	
  6646  004F  087C               	movf	___lldiv@quotient+3,w
  6647  0050  00F3               	movwf	?___lldiv+3
  6648  0051  087B               	movf	___lldiv@quotient+2,w
  6649  0052  00F2               	movwf	?___lldiv+2
  6650  0053  087A               	movf	___lldiv@quotient+1,w
  6651  0054  00F1               	movwf	?___lldiv+1
  6652  0055  0879               	movf	___lldiv@quotient,w
  6653  0056  00F0               	movwf	?___lldiv
  6654  0057  0008               	return
  6655  0058                     __end_of___lldiv:	
  6656                           
  6657                           	psect	text22
  6658  0D4C                     __ptext22:	
  6659 ;; *************** function _BME280_read24 *****************
  6660 ;; Defined at:
  6661 ;;		line 49 in file "bme280.c"
  6662 ;; Parameters:    Size  Location     Type
  6663 ;;  reg             1    wreg     unsigned char 
  6664 ;; Auto vars:     Size  Location     Type
  6665 ;;  reg             1    0[BANK0 ] unsigned char 
  6666 ;;  temp            4    1[BANK0 ] unsigned long 
  6667 ;; Return value:  Size  Location     Type
  6668 ;;                  4    6[COMMON] unsigned long 
  6669 ;; Registers used:
  6670 ;;		wreg, status,2, status,0, pclath, cstack
  6671 ;; Tracked objects:
  6672 ;;		On entry : 0/0
  6673 ;;		On exit  : 0/0
  6674 ;;		Unchanged: 0/0
  6675 ;; Data sizes:     COMMON   BANK0   BANK1   BANK2   BANK3   BANK4   BANK5   BANK6   BANK7   BANK8   BANK9  BANK10  BANK1
      +1  BANK12
  6676 ;;      Params:         4       0       0       0       0       0       0       0       0       0       0       0       
      +0       0
  6677 ;;      Locals:         0       5       0       0       0       0       0       0       0       0       0       0       
      +0       0
  6678 ;;      Temps:          4       0       0       0       0       0       0       0       0       0       0       0       
      +0       0
  6679 ;;      Totals:         8       5       0       0       0       0       0       0       0       0       0       0       
      +0       0
  6680 ;;Total ram usage:       13 bytes
  6681 ;; Hardware stack levels used:    1
  6682 ;; Hardware stack levels required when called:    2
  6683 ;; This function calls:
  6684 ;;		_I2C_Master_Read
  6685 ;;		_I2C_Master_Start
  6686 ;;		_I2C_Master_Stop
  6687 ;;		_I2C_Master_Wait
  6688 ;;		_I2C_Master_Write
  6689 ;; This function is called by:
  6690 ;;		_BME280_readTemperature
  6691 ;;		_BME280_readPressure
  6692 ;; This function uses a non-reentrant model
  6693 ;;
  6694                           
  6695                           
  6696                           ;psect for function _BME280_read24
  6697  0D4C                     _BME280_read24:	
  6698                           
  6699                           ;incstack = 0
  6700                           ; Regs used in _BME280_read24: [wreg+status,2+status,0+pclath+cstack]
  6701                           ;BME280_read24@reg stored from wreg
  6702  0D4C  0020               	movlb	0	; select bank0
  6703  0D4D  00A0               	movwf	BME280_read24@reg
  6704                           
  6705                           ;bme280.c: 51: uint32_t temp ;
  6706                           ;bme280.c: 52: I2C_Master_Start();
  6707  0D4E  3189  2134  318D   	fcall	_I2C_Master_Start
  6708                           
  6709                           ;bme280.c: 53: I2C_Master_Write(0xEC);
  6710  0D51  30EC               	movlw	236
  6711  0D52  00F0               	movwf	I2C_Master_Write@d
  6712  0D53  3000               	movlw	0
  6713  0D54  00F1               	movwf	I2C_Master_Write@d+1
  6714  0D55  3189  2143  318D   	fcall	_I2C_Master_Write
  6715                           
  6716                           ;bme280.c: 54: I2C_Master_Wait();
  6717  0D58  3189  214F  318D   	fcall	_I2C_Master_Wait
  6718                           
  6719                           ;bme280.c: 55: I2C_Master_Write(reg);
  6720  0D5B  0020               	movlb	0	; select bank0
  6721  0D5C  0820               	movf	BME280_read24@reg,w
  6722  0D5D  00FA               	movwf	??_BME280_read24
  6723  0D5E  01FB               	clrf	??_BME280_read24+1
  6724  0D5F  087A               	movf	??_BME280_read24,w
  6725  0D60  00F0               	movwf	I2C_Master_Write@d
  6726  0D61  087B               	movf	??_BME280_read24+1,w
  6727  0D62  00F1               	movwf	I2C_Master_Write@d+1
  6728  0D63  3189  2143  318D   	fcall	_I2C_Master_Write
  6729                           
  6730                           ;bme280.c: 56: I2C_Master_Wait();
  6731  0D66  3189  214F  318D   	fcall	_I2C_Master_Wait
  6732                           
  6733                           ;bme280.c: 57: I2C_Master_Stop();
  6734  0D69  3189  2139  318D   	fcall	_I2C_Master_Stop
  6735                           
  6736                           ;bme280.c: 58: I2C_Master_Start();
  6737  0D6C  3189  2134  318D   	fcall	_I2C_Master_Start
  6738                           
  6739                           ;bme280.c: 59: I2C_Master_Write(0xED);
  6740  0D6F  30ED               	movlw	237
  6741  0D70  00F0               	movwf	I2C_Master_Write@d
  6742  0D71  3000               	movlw	0
  6743  0D72  00F1               	movwf	I2C_Master_Write@d+1
  6744  0D73  3189  2143  318D   	fcall	_I2C_Master_Write
  6745                           
  6746                           ;bme280.c: 60: I2C_Master_Wait();
  6747  0D76  3189  214F  318D   	fcall	_I2C_Master_Wait
  6748                           
  6749                           ;bme280.c: 61: temp = I2C_Master_Read(1);
  6750  0D79  3001               	movlw	1
  6751  0D7A  00F0               	movwf	I2C_Master_Read@a
  6752  0D7B  3000               	movlw	0
  6753  0D7C  00F1               	movwf	I2C_Master_Read@a+1
  6754  0D7D  318A  220C  318D   	fcall	_I2C_Master_Read
  6755  0D80  0870               	movf	?_I2C_Master_Read,w
  6756  0D81  0020               	movlb	0	; select bank0
  6757  0D82  00A1               	movwf	BME280_read24@temp
  6758  0D83  0871               	movf	?_I2C_Master_Read+1,w
  6759  0D84  00A2               	movwf	BME280_read24@temp+1
  6760  0D85  01A3               	clrf	BME280_read24@temp+2
  6761  0D86  01A4               	clrf	BME280_read24@temp+3
  6762                           
  6763                           ;bme280.c: 62: temp<<=8;
  6764  0D87  3008               	movlw	8
  6765  0D88                     u1275:	
  6766  0D88  35A1               	lslf	BME280_read24@temp,f
  6767  0D89  0DA2               	rlf	BME280_read24@temp+1,f
  6768  0D8A  0DA3               	rlf	BME280_read24@temp+2,f
  6769  0D8B  0DA4               	rlf	BME280_read24@temp+3,f
  6770  0D8C  0B89               	decfsz	9,f
  6771  0D8D  2D88               	goto	u1275
  6772                           
  6773                           ;bme280.c: 63: I2C_Master_Wait();
  6774  0D8E  3189  214F  318D   	fcall	_I2C_Master_Wait
  6775                           
  6776                           ;bme280.c: 64: temp |= I2C_Master_Read(1);
  6777  0D91  3001               	movlw	1
  6778  0D92  00F0               	movwf	I2C_Master_Read@a
  6779  0D93  3000               	movlw	0
  6780  0D94  00F1               	movwf	I2C_Master_Read@a+1
  6781  0D95  318A  220C  318D   	fcall	_I2C_Master_Read
  6782  0D98  0870               	movf	?_I2C_Master_Read,w
  6783  0D99  00FA               	movwf	??_BME280_read24
  6784  0D9A  0871               	movf	?_I2C_Master_Read+1,w
  6785  0D9B  00FB               	movwf	??_BME280_read24+1
  6786  0D9C  01FC               	clrf	??_BME280_read24+2
  6787  0D9D  01FD               	clrf	??_BME280_read24+3
  6788  0D9E  087A               	movf	??_BME280_read24,w
  6789  0D9F  0020               	movlb	0	; select bank0
  6790  0DA0  04A1               	iorwf	BME280_read24@temp,f
  6791  0DA1  087B               	movf	??_BME280_read24+1,w
  6792  0DA2  04A2               	iorwf	BME280_read24@temp+1,f
  6793  0DA3  087C               	movf	??_BME280_read24+2,w
  6794  0DA4  04A3               	iorwf	BME280_read24@temp+2,f
  6795  0DA5  087D               	movf	??_BME280_read24+3,w
  6796  0DA6  04A4               	iorwf	BME280_read24@temp+3,f
  6797                           
  6798                           ;bme280.c: 65: temp<<=8;
  6799  0DA7  3008               	movlw	8
  6800  0DA8                     u1285:	
  6801  0DA8  35A1               	lslf	BME280_read24@temp,f
  6802  0DA9  0DA2               	rlf	BME280_read24@temp+1,f
  6803  0DAA  0DA3               	rlf	BME280_read24@temp+2,f
  6804  0DAB  0DA4               	rlf	BME280_read24@temp+3,f
  6805  0DAC  0B89               	decfsz	9,f
  6806  0DAD  2DA8               	goto	u1285
  6807                           
  6808                           ;bme280.c: 66: I2C_Master_Wait();
  6809  0DAE  3189  214F  318D   	fcall	_I2C_Master_Wait
  6810                           
  6811                           ;bme280.c: 67: temp |= I2C_Master_Read(0);
  6812  0DB1  3000               	movlw	0
  6813  0DB2  00F0               	movwf	I2C_Master_Read@a
  6814  0DB3  00F1               	movwf	I2C_Master_Read@a+1
  6815  0DB4  318A  220C  318D   	fcall	_I2C_Master_Read
  6816  0DB7  0870               	movf	?_I2C_Master_Read,w
  6817  0DB8  00FA               	movwf	??_BME280_read24
  6818  0DB9  0871               	movf	?_I2C_Master_Read+1,w
  6819  0DBA  00FB               	movwf	??_BME280_read24+1
  6820  0DBB  01FC               	clrf	??_BME280_read24+2
  6821  0DBC  01FD               	clrf	??_BME280_read24+3
  6822  0DBD  087A               	movf	??_BME280_read24,w
  6823  0DBE  0020               	movlb	0	; select bank0
  6824  0DBF  04A1               	iorwf	BME280_read24@temp,f
  6825  0DC0  087B               	movf	??_BME280_read24+1,w
  6826  0DC1  04A2               	iorwf	BME280_read24@temp+1,f
  6827  0DC2  087C               	movf	??_BME280_read24+2,w
  6828  0DC3  04A3               	iorwf	BME280_read24@temp+2,f
  6829  0DC4  087D               	movf	??_BME280_read24+3,w
  6830  0DC5  04A4               	iorwf	BME280_read24@temp+3,f
  6831                           
  6832                           ;bme280.c: 69: I2C_Master_Stop();
  6833  0DC6  3189  2139         	fcall	_I2C_Master_Stop
  6834                           
  6835                           ;bme280.c: 71: return temp;
  6836  0DC8  0020               	movlb	0	; select bank0
  6837  0DC9  0824               	movf	BME280_read24@temp+3,w
  6838  0DCA  00F9               	movwf	?_BME280_read24+3
  6839  0DCB  0823               	movf	BME280_read24@temp+2,w
  6840  0DCC  00F8               	movwf	?_BME280_read24+2
  6841  0DCD  0822               	movf	BME280_read24@temp+1,w
  6842  0DCE  00F7               	movwf	?_BME280_read24+1
  6843  0DCF  0821               	movf	BME280_read24@temp,w
  6844  0DD0  00F6               	movwf	?_BME280_read24
  6845  0DD1  0008               	return
  6846  0DD2                     __end_of_BME280_read24:	
  6847                           
  6848                           	psect	text23
  6849  01FA                     __ptext23:	
  6850 ;; *************** function _BME280_readHumidity *****************
  6851 ;; Defined at:
  6852 ;;		line 215 in file "bme280.c"
  6853 ;; Parameters:    Size  Location     Type
  6854 ;;		None
  6855 ;; Auto vars:     Size  Location     Type
  6856 ;;  v_x1_u32r       4   63[BANK0 ] long 
  6857 ;;  adc_H           4   36[BANK0 ] long 
  6858 ;;  h               3   56[BANK0 ] float 
  6859 ;; Return value:  Size  Location     Type
  6860 ;;                  3   16[BANK0 ] float 
  6861 ;; Registers used:
  6862 ;;		wreg, status,2, status,0, pclath, cstack
  6863 ;; Tracked objects:
  6864 ;;		On entry : 0/0
  6865 ;;		On exit  : 0/0
  6866 ;;		Unchanged: 0/0
  6867 ;; Data sizes:     COMMON   BANK0   BANK1   BANK2   BANK3   BANK4   BANK5   BANK6   BANK7   BANK8   BANK9  BANK10  BANK1
      +1  BANK12
  6868 ;;      Params:         0       3       0       0       0       0       0       0       0       0       0       0       
      +0       0
  6869 ;;      Locals:         0      31       0       0       0       0       0       0       0       0       0       0       
      +0       0
  6870 ;;      Temps:          0      17       0       0       0       0       0       0       0       0       0       0       
      +0       0
  6871 ;;      Totals:         0      51       0       0       0       0       0       0       0       0       0       0       
      +0       0
  6872 ;;Total ram usage:       51 bytes
  6873 ;; Hardware stack levels used:    1
  6874 ;; Hardware stack levels required when called:    3
  6875 ;; This function calls:
  6876 ;;		_BME280_read16
  6877 ;;		___altoft
  6878 ;;		___ftdiv
  6879 ;;		___lmul
  6880 ;; This function is called by:
  6881 ;;		_main
  6882 ;; This function uses a non-reentrant model
  6883 ;;
  6884                           
  6885                           
  6886                           ;psect for function _BME280_readHumidity
  6887  01FA                     _BME280_readHumidity:	
  6888                           
  6889                           ;bme280.c: 217: int32_t adc_H = BME280_read16(0xFD);
  6890                           
  6891                           ;incstack = 0
  6892                           ; Regs used in _BME280_readHumidity: [wreg+status,2+status,0+pclath+cstack]
  6893  01FA  30FD               	movlw	253
  6894  01FB  318B  23CA  3181   	fcall	_BME280_read16
  6895  01FE  0876               	movf	?_BME280_read16,w
  6896  01FF  0020               	movlb	0	; select bank0
  6897  0200  00C4               	movwf	BME280_readHumidity@adc_H
  6898  0201  0877               	movf	?_BME280_read16+1,w
  6899  0202  00C5               	movwf	BME280_readHumidity@adc_H+1
  6900  0203  01C6               	clrf	BME280_readHumidity@adc_H+2
  6901  0204  01C7               	clrf	BME280_readHumidity@adc_H+3
  6902                           
  6903                           ;bme280.c: 219: int32_t v_x1_u32r;
  6904                           ;bme280.c: 221: v_x1_u32r = (t_fine - ((int32_t)76800));
  6905  0205  3000               	movlw	0
  6906  0206  0021               	movlb	1	; select bank1
  6907  0207  0730               	addwf	_t_fine^(0+128),w
  6908  0208  0020               	movlb	0	; select bank0
  6909  0209  00DF               	movwf	BME280_readHumidity@v_x1_u32r
  6910  020A  30D4               	movlw	212
  6911  020B  0021               	movlb	1	; select bank1
  6912  020C  3D31               	addwfc	(_t_fine+1)^(0+128),w
  6913  020D  0020               	movlb	0	; select bank0
  6914  020E  00E0               	movwf	BME280_readHumidity@v_x1_u32r+1
  6915  020F  30FE               	movlw	254
  6916  0210  0021               	movlb	1	; select bank1
  6917  0211  3D32               	addwfc	(_t_fine+2)^(0+128),w
  6918  0212  0020               	movlb	0	; select bank0
  6919  0213  00E1               	movwf	BME280_readHumidity@v_x1_u32r+2
  6920  0214  30FF               	movlw	255
  6921  0215  0021               	movlb	1	; select bank1
  6922  0216  3D33               	addwfc	(_t_fine+3)^(0+128),w
  6923  0217  0020               	movlb	0	; select bank0
  6924  0218  00E2               	movwf	BME280_readHumidity@v_x1_u32r+3
  6925                           
  6926                           ;bme280.c: 223: v_x1_u32r = (((((adc_H << 14) - (((int32_t)cal_data.dig_H4) << 20) -
  6927                           ;bme280.c: 225: (((int32_t)cal_data.dig_H5) * v_x1_u32r)) + ((int32_t)16384)) >> 15) *
  6928                           ;bme280.c: 227: (((((((v_x1_u32r * ((int32_t)cal_data.dig_H6)) >> 10) *
  6929                           ;bme280.c: 229: (((v_x1_u32r * ((int32_t)cal_data.dig_H3)) >> 11) + ((int32_t)32768))) >
      +                          > 10) +
  6930                           ;bme280.c: 231: ((int32_t)2097152)) * ((int32_t)cal_data.dig_H2) + 8192) >> 14));
  6931  0219  0862               	movf	BME280_readHumidity@v_x1_u32r+3,w
  6932  021A  00F7               	movwf	___lmul@multiplicand+3
  6933  021B  0861               	movf	BME280_readHumidity@v_x1_u32r+2,w
  6934  021C  00F6               	movwf	___lmul@multiplicand+2
  6935  021D  0860               	movf	BME280_readHumidity@v_x1_u32r+1,w
  6936  021E  00F5               	movwf	___lmul@multiplicand+1
  6937  021F  085F               	movf	BME280_readHumidity@v_x1_u32r,w
  6938  0220  00F4               	movwf	___lmul@multiplicand
  6939  0221  0021               	movlb	1	; select bank1
  6940  0222  0859               	movf	(_cal_data^(0+128)+32),w
  6941  0223  00F0               	movwf	___lmul@multiplier
  6942  0224  3980               	andlw	128
  6943  0225  1D03               	skipz
  6944  0226  30FF               	movlw	255
  6945  0227  00F1               	movwf	___lmul@multiplier+1
  6946  0228  00F2               	movwf	___lmul@multiplier+2
  6947  0229  00F3               	movwf	___lmul@multiplier+3
  6948  022A  318A  22AF  3181   	fcall	___lmul
  6949  022D  0870               	movf	?___lmul,w
  6950  022E  0020               	movlb	0	; select bank0
  6951  022F  00B3               	movwf	??_BME280_readHumidity
  6952  0230  0871               	movf	?___lmul+1,w
  6953  0231  00B4               	movwf	??_BME280_readHumidity+1
  6954  0232  0872               	movf	?___lmul+2,w
  6955  0233  00B5               	movwf	??_BME280_readHumidity+2
  6956  0234  0873               	movf	?___lmul+3,w
  6957  0235  00B6               	movwf	??_BME280_readHumidity+3
  6958  0236  300A               	movlw	10
  6959  0237  00B7               	movwf	??_BME280_readHumidity+4
  6960  0238                     u1805:	
  6961  0238  37B6               	asrf	??_BME280_readHumidity+3,f
  6962  0239  0CB5               	rrf	??_BME280_readHumidity+2,f
  6963  023A  0CB4               	rrf	??_BME280_readHumidity+1,f
  6964  023B  0CB3               	rrf	??_BME280_readHumidity,f
  6965  023C  0BB7               	decfsz	??_BME280_readHumidity+4,f
  6966  023D  2A38               	goto	u1805
  6967  023E  0836               	movf	??_BME280_readHumidity+3,w
  6968  023F  00DE               	movwf	_BME280_readHumidity$1239+3
  6969  0240  0835               	movf	??_BME280_readHumidity+2,w
  6970  0241  00DD               	movwf	_BME280_readHumidity$1239+2
  6971  0242  0834               	movf	??_BME280_readHumidity+1,w
  6972  0243  00DC               	movwf	_BME280_readHumidity$1239+1
  6973  0244  0833               	movf	??_BME280_readHumidity,w
  6974  0245  00DB               	movwf	_BME280_readHumidity$1239
  6975                           
  6976                           ;bme280.c: 223: v_x1_u32r = (((((adc_H << 14) - (((int32_t)cal_data.dig_H4) << 20) -
  6977                           ;bme280.c: 225: (((int32_t)cal_data.dig_H5) * v_x1_u32r)) + ((int32_t)16384)) >> 15) *
  6978                           ;bme280.c: 227: (((((((v_x1_u32r * ((int32_t)cal_data.dig_H6)) >> 10) *
  6979                           ;bme280.c: 229: (((v_x1_u32r * ((int32_t)cal_data.dig_H3)) >> 11) + ((int32_t)32768))) >
      +                          > 10) +
  6980                           ;bme280.c: 231: ((int32_t)2097152)) * ((int32_t)cal_data.dig_H2) + 8192) >> 14));
  6981  0246  0862               	movf	BME280_readHumidity@v_x1_u32r+3,w
  6982  0247  00F7               	movwf	___lmul@multiplicand+3
  6983  0248  0861               	movf	BME280_readHumidity@v_x1_u32r+2,w
  6984  0249  00F6               	movwf	___lmul@multiplicand+2
  6985  024A  0860               	movf	BME280_readHumidity@v_x1_u32r+1,w
  6986  024B  00F5               	movwf	___lmul@multiplicand+1
  6987  024C  085F               	movf	BME280_readHumidity@v_x1_u32r,w
  6988  024D  00F4               	movwf	___lmul@multiplicand
  6989  024E  0021               	movlb	1	; select bank1
  6990  024F  0854               	movf	(_cal_data^(0+128)+27),w
  6991  0250  0020               	movlb	0	; select bank0
  6992  0251  00B3               	movwf	??_BME280_readHumidity
  6993  0252  01B4               	clrf	??_BME280_readHumidity+1
  6994  0253  01B5               	clrf	??_BME280_readHumidity+2
  6995  0254  01B6               	clrf	??_BME280_readHumidity+3
  6996  0255  0836               	movf	??_BME280_readHumidity+3,w
  6997  0256  00F3               	movwf	___lmul@multiplier+3
  6998  0257  0835               	movf	??_BME280_readHumidity+2,w
  6999  0258  00F2               	movwf	___lmul@multiplier+2
  7000  0259  0834               	movf	??_BME280_readHumidity+1,w
  7001  025A  00F1               	movwf	___lmul@multiplier+1
  7002  025B  0833               	movf	??_BME280_readHumidity,w
  7003  025C  00F0               	movwf	___lmul@multiplier
  7004  025D  318A  22AF  3181   	fcall	___lmul
  7005  0260  0870               	movf	?___lmul,w
  7006  0261  0020               	movlb	0	; select bank0
  7007  0262  00B7               	movwf	??_BME280_readHumidity+4
  7008  0263  0871               	movf	?___lmul+1,w
  7009  0264  00B8               	movwf	??_BME280_readHumidity+5
  7010  0265  0872               	movf	?___lmul+2,w
  7011  0266  00B9               	movwf	??_BME280_readHumidity+6
  7012  0267  0873               	movf	?___lmul+3,w
  7013  0268  00BA               	movwf	??_BME280_readHumidity+7
  7014  0269  300B               	movlw	11
  7015  026A  00BB               	movwf	??_BME280_readHumidity+8
  7016  026B                     u1815:	
  7017  026B  37BA               	asrf	??_BME280_readHumidity+7,f
  7018  026C  0CB9               	rrf	??_BME280_readHumidity+6,f
  7019  026D  0CB8               	rrf	??_BME280_readHumidity+5,f
  7020  026E  0CB7               	rrf	??_BME280_readHumidity+4,f
  7021  026F  0BBB               	decfsz	??_BME280_readHumidity+8,f
  7022  0270  2A6B               	goto	u1815
  7023  0271  3000               	movlw	0
  7024  0272  0737               	addwf	??_BME280_readHumidity+4,w
  7025  0273  00C8               	movwf	_BME280_readHumidity$1240
  7026  0274  3080               	movlw	128
  7027  0275  3D38               	addwfc	??_BME280_readHumidity+5,w
  7028  0276  00C9               	movwf	_BME280_readHumidity$1240+1
  7029  0277  3000               	movlw	0
  7030  0278  3D39               	addwfc	??_BME280_readHumidity+6,w
  7031  0279  00CA               	movwf	_BME280_readHumidity$1240+2
  7032  027A  3000               	movlw	0
  7033  027B  3D3A               	addwfc	??_BME280_readHumidity+7,w
  7034  027C  00CB               	movwf	_BME280_readHumidity$1240+3
  7035                           
  7036                           ;bme280.c: 223: v_x1_u32r = (((((adc_H << 14) - (((int32_t)cal_data.dig_H4) << 20) -
  7037                           ;bme280.c: 225: (((int32_t)cal_data.dig_H5) * v_x1_u32r)) + ((int32_t)16384)) >> 15) *
  7038                           ;bme280.c: 227: (((((((v_x1_u32r * ((int32_t)cal_data.dig_H6)) >> 10) *
  7039                           ;bme280.c: 229: (((v_x1_u32r * ((int32_t)cal_data.dig_H3)) >> 11) + ((int32_t)32768))) >
      +                          > 10) +
  7040                           ;bme280.c: 231: ((int32_t)2097152)) * ((int32_t)cal_data.dig_H2) + 8192) >> 14));
  7041  027D  085E               	movf	_BME280_readHumidity$1239+3,w
  7042  027E  00F7               	movwf	___lmul@multiplicand+3
  7043  027F  085D               	movf	_BME280_readHumidity$1239+2,w
  7044  0280  00F6               	movwf	___lmul@multiplicand+2
  7045  0281  085C               	movf	_BME280_readHumidity$1239+1,w
  7046  0282  00F5               	movwf	___lmul@multiplicand+1
  7047  0283  085B               	movf	_BME280_readHumidity$1239,w
  7048  0284  00F4               	movwf	___lmul@multiplicand
  7049  0285  084B               	movf	_BME280_readHumidity$1240+3,w
  7050  0286  00F3               	movwf	___lmul@multiplier+3
  7051  0287  084A               	movf	_BME280_readHumidity$1240+2,w
  7052  0288  00F2               	movwf	___lmul@multiplier+2
  7053  0289  0849               	movf	_BME280_readHumidity$1240+1,w
  7054  028A  00F1               	movwf	___lmul@multiplier+1
  7055  028B  0848               	movf	_BME280_readHumidity$1240,w
  7056  028C  00F0               	movwf	___lmul@multiplier
  7057  028D  318A  22AF  3181   	fcall	___lmul
  7058  0290  0870               	movf	?___lmul,w
  7059  0291  0020               	movlb	0	; select bank0
  7060  0292  00B3               	movwf	??_BME280_readHumidity
  7061  0293  0871               	movf	?___lmul+1,w
  7062  0294  00B4               	movwf	??_BME280_readHumidity+1
  7063  0295  0872               	movf	?___lmul+2,w
  7064  0296  00B5               	movwf	??_BME280_readHumidity+2
  7065  0297  0873               	movf	?___lmul+3,w
  7066  0298  00B6               	movwf	??_BME280_readHumidity+3
  7067  0299  300A               	movlw	10
  7068  029A  00B7               	movwf	??_BME280_readHumidity+4
  7069  029B                     u1825:	
  7070  029B  37B6               	asrf	??_BME280_readHumidity+3,f
  7071  029C  0CB5               	rrf	??_BME280_readHumidity+2,f
  7072  029D  0CB4               	rrf	??_BME280_readHumidity+1,f
  7073  029E  0CB3               	rrf	??_BME280_readHumidity,f
  7074  029F  0BB7               	decfsz	??_BME280_readHumidity+4,f
  7075  02A0  2A9B               	goto	u1825
  7076  02A1  3000               	movlw	0
  7077  02A2  0733               	addwf	??_BME280_readHumidity,w
  7078  02A3  00CC               	movwf	_BME280_readHumidity$1241
  7079  02A4  3000               	movlw	0
  7080  02A5  3D34               	addwfc	??_BME280_readHumidity+1,w
  7081  02A6  00CD               	movwf	_BME280_readHumidity$1241+1
  7082  02A7  3020               	movlw	32
  7083  02A8  3D35               	addwfc	??_BME280_readHumidity+2,w
  7084  02A9  00CE               	movwf	_BME280_readHumidity$1241+2
  7085  02AA  3000               	movlw	0
  7086  02AB  3D36               	addwfc	??_BME280_readHumidity+3,w
  7087  02AC  00CF               	movwf	_BME280_readHumidity$1241+3
  7088                           
  7089                           ;bme280.c: 223: v_x1_u32r = (((((adc_H << 14) - (((int32_t)cal_data.dig_H4) << 20) -
  7090                           ;bme280.c: 225: (((int32_t)cal_data.dig_H5) * v_x1_u32r)) + ((int32_t)16384)) >> 15) *
  7091                           ;bme280.c: 227: (((((((v_x1_u32r * ((int32_t)cal_data.dig_H6)) >> 10) *
  7092                           ;bme280.c: 229: (((v_x1_u32r * ((int32_t)cal_data.dig_H3)) >> 11) + ((int32_t)32768))) >
      +                          > 10) +
  7093                           ;bme280.c: 231: ((int32_t)2097152)) * ((int32_t)cal_data.dig_H2) + 8192) >> 14));
  7094  02AD  3000               	movlw	0
  7095  02AE  00B3               	movwf	??_BME280_readHumidity
  7096  02AF  3040               	movlw	64
  7097  02B0  00B4               	movwf	??_BME280_readHumidity+1
  7098  02B1  3000               	movlw	0
  7099  02B2  00B5               	movwf	??_BME280_readHumidity+2
  7100  02B3  3000               	movlw	0
  7101  02B4  00B6               	movwf	??_BME280_readHumidity+3
  7102  02B5  0862               	movf	BME280_readHumidity@v_x1_u32r+3,w
  7103  02B6  00F7               	movwf	___lmul@multiplicand+3
  7104  02B7  0861               	movf	BME280_readHumidity@v_x1_u32r+2,w
  7105  02B8  00F6               	movwf	___lmul@multiplicand+2
  7106  02B9  0860               	movf	BME280_readHumidity@v_x1_u32r+1,w
  7107  02BA  00F5               	movwf	___lmul@multiplicand+1
  7108  02BB  085F               	movf	BME280_readHumidity@v_x1_u32r,w
  7109  02BC  00F4               	movwf	___lmul@multiplicand
  7110  02BD  0021               	movlb	1	; select bank1
  7111  02BE  0857               	movf	(_cal_data^(0+128)+30),w
  7112  02BF  00F0               	movwf	___lmul@multiplier
  7113  02C0  0858               	movf	((_cal_data+1)^(0+128)+30),w
  7114  02C1  00F1               	movwf	___lmul@multiplier+1
  7115  02C2  0D89               	rlf	9,f
  7116  02C3  3B89               	subwfb	9,f
  7117  02C4  0989               	comf	9,f
  7118  02C5  00F2               	movwf	___lmul@multiplier+2
  7119  02C6  00F3               	movwf	___lmul@multiplier+3
  7120  02C7  318A  22AF  3181   	fcall	___lmul
  7121  02CA  0970               	comf	?___lmul,w
  7122  02CB  0020               	movlb	0	; select bank0
  7123  02CC  00B7               	movwf	??_BME280_readHumidity+4
  7124  02CD  0971               	comf	?___lmul+1,w
  7125  02CE  00B8               	movwf	??_BME280_readHumidity+5
  7126  02CF  0972               	comf	?___lmul+2,w
  7127  02D0  00B9               	movwf	??_BME280_readHumidity+6
  7128  02D1  0973               	comf	?___lmul+3,w
  7129  02D2  00BA               	movwf	??_BME280_readHumidity+7
  7130  02D3  0AB7               	incf	??_BME280_readHumidity+4,f
  7131  02D4  1903               	skipnz
  7132  02D5  0AB8               	incf	??_BME280_readHumidity+5,f
  7133  02D6  1903               	skipnz
  7134  02D7  0AB9               	incf	??_BME280_readHumidity+6,f
  7135  02D8  1903               	skipnz
  7136  02D9  0ABA               	incf	??_BME280_readHumidity+7,f
  7137  02DA  0021               	movlb	1	; select bank1
  7138  02DB  0855               	movf	(_cal_data^(0+128)+28),w
  7139  02DC  0020               	movlb	0	; select bank0
  7140  02DD  00BB               	movwf	??_BME280_readHumidity+8
  7141  02DE  0021               	movlb	1	; select bank1
  7142  02DF  0856               	movf	((_cal_data+1)^(0+128)+28),w
  7143  02E0  0020               	movlb	0	; select bank0
  7144  02E1  00BC               	movwf	??_BME280_readHumidity+9
  7145  02E2  01BD               	clrf	??_BME280_readHumidity+10
  7146  02E3  01BE               	clrf	??_BME280_readHumidity+11
  7147  02E4  3014               	movlw	20
  7148  02E5                     u1835:	
  7149  02E5  35BB               	lslf	??_BME280_readHumidity+8,f
  7150  02E6  0DBC               	rlf	??_BME280_readHumidity+9,f
  7151  02E7  0DBD               	rlf	??_BME280_readHumidity+10,f
  7152  02E8  0DBE               	rlf	??_BME280_readHumidity+11,f
  7153  02E9  0B89               	decfsz	9,f
  7154  02EA  2AE5               	goto	u1835
  7155  02EB  09BB               	comf	??_BME280_readHumidity+8,f
  7156  02EC  09BC               	comf	??_BME280_readHumidity+9,f
  7157  02ED  09BD               	comf	??_BME280_readHumidity+10,f
  7158  02EE  09BE               	comf	??_BME280_readHumidity+11,f
  7159  02EF  0ABB               	incf	??_BME280_readHumidity+8,f
  7160  02F0  1903               	skipnz
  7161  02F1  0ABC               	incf	??_BME280_readHumidity+9,f
  7162  02F2  1903               	skipnz
  7163  02F3  0ABD               	incf	??_BME280_readHumidity+10,f
  7164  02F4  1903               	skipnz
  7165  02F5  0ABE               	incf	??_BME280_readHumidity+11,f
  7166  02F6  0844               	movf	BME280_readHumidity@adc_H,w
  7167  02F7  00BF               	movwf	??_BME280_readHumidity+12
  7168  02F8  0845               	movf	BME280_readHumidity@adc_H+1,w
  7169  02F9  00C0               	movwf	??_BME280_readHumidity+13
  7170  02FA  0846               	movf	BME280_readHumidity@adc_H+2,w
  7171  02FB  00C1               	movwf	??_BME280_readHumidity+14
  7172  02FC  0847               	movf	BME280_readHumidity@adc_H+3,w
  7173  02FD  00C2               	movwf	??_BME280_readHumidity+15
  7174  02FE  300E               	movlw	14
  7175  02FF                     u1845:	
  7176  02FF  35BF               	lslf	??_BME280_readHumidity+12,f
  7177  0300  0DC0               	rlf	??_BME280_readHumidity+13,f
  7178  0301  0DC1               	rlf	??_BME280_readHumidity+14,f
  7179  0302  0DC2               	rlf	??_BME280_readHumidity+15,f
  7180  0303  0B89               	decfsz	9,f
  7181  0304  2AFF               	goto	u1845
  7182  0305  083F               	movf	??_BME280_readHumidity+12,w
  7183  0306  07BB               	addwf	??_BME280_readHumidity+8,f
  7184  0307  0840               	movf	??_BME280_readHumidity+13,w
  7185  0308  3DBC               	addwfc	??_BME280_readHumidity+9,f
  7186  0309  0841               	movf	??_BME280_readHumidity+14,w
  7187  030A  3DBD               	addwfc	??_BME280_readHumidity+10,f
  7188  030B  0842               	movf	??_BME280_readHumidity+15,w
  7189  030C  3DBE               	addwfc	??_BME280_readHumidity+11,f
  7190  030D  083B               	movf	??_BME280_readHumidity+8,w
  7191  030E  07B7               	addwf	??_BME280_readHumidity+4,f
  7192  030F  083C               	movf	??_BME280_readHumidity+9,w
  7193  0310  3DB8               	addwfc	??_BME280_readHumidity+5,f
  7194  0311  083D               	movf	??_BME280_readHumidity+10,w
  7195  0312  3DB9               	addwfc	??_BME280_readHumidity+6,f
  7196  0313  083E               	movf	??_BME280_readHumidity+11,w
  7197  0314  3DBA               	addwfc	??_BME280_readHumidity+7,f
  7198  0315  0837               	movf	??_BME280_readHumidity+4,w
  7199  0316  07B3               	addwf	??_BME280_readHumidity,f
  7200  0317  0838               	movf	??_BME280_readHumidity+5,w
  7201  0318  3DB4               	addwfc	??_BME280_readHumidity+1,f
  7202  0319  0839               	movf	??_BME280_readHumidity+6,w
  7203  031A  3DB5               	addwfc	??_BME280_readHumidity+2,f
  7204  031B  083A               	movf	??_BME280_readHumidity+7,w
  7205  031C  3DB6               	addwfc	??_BME280_readHumidity+3,f
  7206  031D  300F               	movlw	15
  7207  031E  00C3               	movwf	??_BME280_readHumidity+16
  7208  031F                     u1855:	
  7209  031F  37B6               	asrf	??_BME280_readHumidity+3,f
  7210  0320  0CB5               	rrf	??_BME280_readHumidity+2,f
  7211  0321  0CB4               	rrf	??_BME280_readHumidity+1,f
  7212  0322  0CB3               	rrf	??_BME280_readHumidity,f
  7213  0323  0BC3               	decfsz	??_BME280_readHumidity+16,f
  7214  0324  2B1F               	goto	u1855
  7215  0325  0836               	movf	??_BME280_readHumidity+3,w
  7216  0326  00D3               	movwf	_BME280_readHumidity$1242+3
  7217  0327  0835               	movf	??_BME280_readHumidity+2,w
  7218  0328  00D2               	movwf	_BME280_readHumidity$1242+2
  7219  0329  0834               	movf	??_BME280_readHumidity+1,w
  7220  032A  00D1               	movwf	_BME280_readHumidity$1242+1
  7221  032B  0833               	movf	??_BME280_readHumidity,w
  7222  032C  00D0               	movwf	_BME280_readHumidity$1242
  7223                           
  7224                           ;bme280.c: 223: v_x1_u32r = (((((adc_H << 14) - (((int32_t)cal_data.dig_H4) << 20) -
  7225                           ;bme280.c: 225: (((int32_t)cal_data.dig_H5) * v_x1_u32r)) + ((int32_t)16384)) >> 15) *
  7226                           ;bme280.c: 227: (((((((v_x1_u32r * ((int32_t)cal_data.dig_H6)) >> 10) *
  7227                           ;bme280.c: 229: (((v_x1_u32r * ((int32_t)cal_data.dig_H3)) >> 11) + ((int32_t)32768))) >
      +                          > 10) +
  7228                           ;bme280.c: 231: ((int32_t)2097152)) * ((int32_t)cal_data.dig_H2) + 8192) >> 14));
  7229  032D  3000               	movlw	0
  7230  032E  00B3               	movwf	??_BME280_readHumidity
  7231  032F  3020               	movlw	32
  7232  0330  00B4               	movwf	??_BME280_readHumidity+1
  7233  0331  3000               	movlw	0
  7234  0332  00B5               	movwf	??_BME280_readHumidity+2
  7235  0333  3000               	movlw	0
  7236  0334  00B6               	movwf	??_BME280_readHumidity+3
  7237  0335  0021               	movlb	1	; select bank1
  7238  0336  0852               	movf	(_cal_data^(0+128)+25),w
  7239  0337  00F4               	movwf	___lmul@multiplicand
  7240  0338  0853               	movf	((_cal_data+1)^(0+128)+25),w
  7241  0339  00F5               	movwf	___lmul@multiplicand+1
  7242  033A  0D89               	rlf	9,f
  7243  033B  3B89               	subwfb	9,f
  7244  033C  0989               	comf	9,f
  7245  033D  00F6               	movwf	___lmul@multiplicand+2
  7246  033E  00F7               	movwf	___lmul@multiplicand+3
  7247  033F  0020               	movlb	0	; select bank0
  7248  0340  084F               	movf	_BME280_readHumidity$1241+3,w
  7249  0341  00F3               	movwf	___lmul@multiplier+3
  7250  0342  084E               	movf	_BME280_readHumidity$1241+2,w
  7251  0343  00F2               	movwf	___lmul@multiplier+2
  7252  0344  084D               	movf	_BME280_readHumidity$1241+1,w
  7253  0345  00F1               	movwf	___lmul@multiplier+1
  7254  0346  084C               	movf	_BME280_readHumidity$1241,w
  7255  0347  00F0               	movwf	___lmul@multiplier
  7256  0348  318A  22AF  3181   	fcall	___lmul
  7257  034B  0870               	movf	?___lmul,w
  7258  034C  0020               	movlb	0	; select bank0
  7259  034D  07B3               	addwf	??_BME280_readHumidity,f
  7260  034E  0871               	movf	?___lmul+1,w
  7261  034F  3DB4               	addwfc	??_BME280_readHumidity+1,f
  7262  0350  0872               	movf	?___lmul+2,w
  7263  0351  3DB5               	addwfc	??_BME280_readHumidity+2,f
  7264  0352  0873               	movf	?___lmul+3,w
  7265  0353  3DB6               	addwfc	??_BME280_readHumidity+3,f
  7266  0354  300E               	movlw	14
  7267  0355  00B7               	movwf	??_BME280_readHumidity+4
  7268  0356                     u1865:	
  7269  0356  37B6               	asrf	??_BME280_readHumidity+3,f
  7270  0357  0CB5               	rrf	??_BME280_readHumidity+2,f
  7271  0358  0CB4               	rrf	??_BME280_readHumidity+1,f
  7272  0359  0CB3               	rrf	??_BME280_readHumidity,f
  7273  035A  0BB7               	decfsz	??_BME280_readHumidity+4,f
  7274  035B  2B56               	goto	u1865
  7275  035C  0836               	movf	??_BME280_readHumidity+3,w
  7276  035D  00D7               	movwf	_BME280_readHumidity$1243+3
  7277  035E  0835               	movf	??_BME280_readHumidity+2,w
  7278  035F  00D6               	movwf	_BME280_readHumidity$1243+2
  7279  0360  0834               	movf	??_BME280_readHumidity+1,w
  7280  0361  00D5               	movwf	_BME280_readHumidity$1243+1
  7281  0362  0833               	movf	??_BME280_readHumidity,w
  7282  0363  00D4               	movwf	_BME280_readHumidity$1243
  7283                           
  7284                           ;bme280.c: 223: v_x1_u32r = (((((adc_H << 14) - (((int32_t)cal_data.dig_H4) << 20) -
  7285                           ;bme280.c: 225: (((int32_t)cal_data.dig_H5) * v_x1_u32r)) + ((int32_t)16384)) >> 15) *
  7286                           ;bme280.c: 227: (((((((v_x1_u32r * ((int32_t)cal_data.dig_H6)) >> 10) *
  7287                           ;bme280.c: 229: (((v_x1_u32r * ((int32_t)cal_data.dig_H3)) >> 11) + ((int32_t)32768))) >
      +                          > 10) +
  7288                           ;bme280.c: 231: ((int32_t)2097152)) * ((int32_t)cal_data.dig_H2) + 8192) >> 14));
  7289  0364  0853               	movf	_BME280_readHumidity$1242+3,w
  7290  0365  00F3               	movwf	___lmul@multiplier+3
  7291  0366  0852               	movf	_BME280_readHumidity$1242+2,w
  7292  0367  00F2               	movwf	___lmul@multiplier+2
  7293  0368  0851               	movf	_BME280_readHumidity$1242+1,w
  7294  0369  00F1               	movwf	___lmul@multiplier+1
  7295  036A  0850               	movf	_BME280_readHumidity$1242,w
  7296  036B  00F0               	movwf	___lmul@multiplier
  7297  036C  0857               	movf	_BME280_readHumidity$1243+3,w
  7298  036D  00F7               	movwf	___lmul@multiplicand+3
  7299  036E  0856               	movf	_BME280_readHumidity$1243+2,w
  7300  036F  00F6               	movwf	___lmul@multiplicand+2
  7301  0370  0855               	movf	_BME280_readHumidity$1243+1,w
  7302  0371  00F5               	movwf	___lmul@multiplicand+1
  7303  0372  0854               	movf	_BME280_readHumidity$1243,w
  7304  0373  00F4               	movwf	___lmul@multiplicand
  7305  0374  318A  22AF  3181   	fcall	___lmul
  7306  0377  0873               	movf	?___lmul+3,w
  7307  0378  0020               	movlb	0	; select bank0
  7308  0379  00E2               	movwf	BME280_readHumidity@v_x1_u32r+3
  7309  037A  0872               	movf	?___lmul+2,w
  7310  037B  00E1               	movwf	BME280_readHumidity@v_x1_u32r+2
  7311  037C  0871               	movf	?___lmul+1,w
  7312  037D  00E0               	movwf	BME280_readHumidity@v_x1_u32r+1
  7313  037E  0870               	movf	?___lmul,w
  7314  037F  00DF               	movwf	BME280_readHumidity@v_x1_u32r
  7315                           
  7316                           ;bme280.c: 234: v_x1_u32r = (v_x1_u32r - (((((v_x1_u32r >> 15) * (v_x1_u32r >> 15)) >> 7
      +                          ) *
  7317                           ;bme280.c: 236: ((int32_t)cal_data.dig_H1)) >> 4));
  7318  0380  085F               	movf	BME280_readHumidity@v_x1_u32r,w
  7319  0381  00B3               	movwf	??_BME280_readHumidity
  7320  0382  0860               	movf	BME280_readHumidity@v_x1_u32r+1,w
  7321  0383  00B4               	movwf	??_BME280_readHumidity+1
  7322  0384  0861               	movf	BME280_readHumidity@v_x1_u32r+2,w
  7323  0385  00B5               	movwf	??_BME280_readHumidity+2
  7324  0386  0862               	movf	BME280_readHumidity@v_x1_u32r+3,w
  7325  0387  00B6               	movwf	??_BME280_readHumidity+3
  7326  0388  300F               	movlw	15
  7327  0389  00B7               	movwf	??_BME280_readHumidity+4
  7328  038A                     u1875:	
  7329  038A  37B6               	asrf	??_BME280_readHumidity+3,f
  7330  038B  0CB5               	rrf	??_BME280_readHumidity+2,f
  7331  038C  0CB4               	rrf	??_BME280_readHumidity+1,f
  7332  038D  0CB3               	rrf	??_BME280_readHumidity,f
  7333  038E  0BB7               	decfsz	??_BME280_readHumidity+4,f
  7334  038F  2B8A               	goto	u1875
  7335  0390  0836               	movf	??_BME280_readHumidity+3,w
  7336  0391  00F7               	movwf	___lmul@multiplicand+3
  7337  0392  0835               	movf	??_BME280_readHumidity+2,w
  7338  0393  00F6               	movwf	___lmul@multiplicand+2
  7339  0394  0834               	movf	??_BME280_readHumidity+1,w
  7340  0395  00F5               	movwf	___lmul@multiplicand+1
  7341  0396  0833               	movf	??_BME280_readHumidity,w
  7342  0397  00F4               	movwf	___lmul@multiplicand
  7343  0398  085F               	movf	BME280_readHumidity@v_x1_u32r,w
  7344  0399  00B8               	movwf	??_BME280_readHumidity+5
  7345  039A  0860               	movf	BME280_readHumidity@v_x1_u32r+1,w
  7346  039B  00B9               	movwf	??_BME280_readHumidity+6
  7347  039C  0861               	movf	BME280_readHumidity@v_x1_u32r+2,w
  7348  039D  00BA               	movwf	??_BME280_readHumidity+7
  7349  039E  0862               	movf	BME280_readHumidity@v_x1_u32r+3,w
  7350  039F  00BB               	movwf	??_BME280_readHumidity+8
  7351  03A0  300F               	movlw	15
  7352  03A1  00BC               	movwf	??_BME280_readHumidity+9
  7353  03A2                     u1885:	
  7354  03A2  37BB               	asrf	??_BME280_readHumidity+8,f
  7355  03A3  0CBA               	rrf	??_BME280_readHumidity+7,f
  7356  03A4  0CB9               	rrf	??_BME280_readHumidity+6,f
  7357  03A5  0CB8               	rrf	??_BME280_readHumidity+5,f
  7358  03A6  0BBC               	decfsz	??_BME280_readHumidity+9,f
  7359  03A7  2BA2               	goto	u1885
  7360  03A8  083B               	movf	??_BME280_readHumidity+8,w
  7361  03A9  00F3               	movwf	___lmul@multiplier+3
  7362  03AA  083A               	movf	??_BME280_readHumidity+7,w
  7363  03AB  00F2               	movwf	___lmul@multiplier+2
  7364  03AC  0839               	movf	??_BME280_readHumidity+6,w
  7365  03AD  00F1               	movwf	___lmul@multiplier+1
  7366  03AE  0838               	movf	??_BME280_readHumidity+5,w
  7367  03AF  00F0               	movwf	___lmul@multiplier
  7368  03B0  318A  22AF  3181   	fcall	___lmul
  7369  03B3  0870               	movf	?___lmul,w
  7370  03B4  0020               	movlb	0	; select bank0
  7371  03B5  00BD               	movwf	??_BME280_readHumidity+10
  7372  03B6  0871               	movf	?___lmul+1,w
  7373  03B7  00BE               	movwf	??_BME280_readHumidity+11
  7374  03B8  0872               	movf	?___lmul+2,w
  7375  03B9  00BF               	movwf	??_BME280_readHumidity+12
  7376  03BA  0873               	movf	?___lmul+3,w
  7377  03BB  00C0               	movwf	??_BME280_readHumidity+13
  7378  03BC  3007               	movlw	7
  7379  03BD  00C1               	movwf	??_BME280_readHumidity+14
  7380  03BE                     u1895:	
  7381  03BE  37C0               	asrf	??_BME280_readHumidity+13,f
  7382  03BF  0CBF               	rrf	??_BME280_readHumidity+12,f
  7383  03C0  0CBE               	rrf	??_BME280_readHumidity+11,f
  7384  03C1  0CBD               	rrf	??_BME280_readHumidity+10,f
  7385  03C2  0BC1               	decfsz	??_BME280_readHumidity+14,f
  7386  03C3  2BBE               	goto	u1895
  7387  03C4  0840               	movf	??_BME280_readHumidity+13,w
  7388  03C5  00DE               	movwf	_BME280_readHumidity$1239+3
  7389  03C6  083F               	movf	??_BME280_readHumidity+12,w
  7390  03C7  00DD               	movwf	_BME280_readHumidity$1239+2
  7391  03C8  083E               	movf	??_BME280_readHumidity+11,w
  7392  03C9  00DC               	movwf	_BME280_readHumidity$1239+1
  7393  03CA  083D               	movf	??_BME280_readHumidity+10,w
  7394  03CB  00DB               	movwf	_BME280_readHumidity$1239
  7395                           
  7396                           ;bme280.c: 234: v_x1_u32r = (v_x1_u32r - (((((v_x1_u32r >> 15) * (v_x1_u32r >> 15)) >> 7
      +                          ) *
  7397                           ;bme280.c: 236: ((int32_t)cal_data.dig_H1)) >> 4));
  7398  03CC  085F               	movf	BME280_readHumidity@v_x1_u32r,w
  7399  03CD  00B3               	movwf	??_BME280_readHumidity
  7400  03CE  0860               	movf	BME280_readHumidity@v_x1_u32r+1,w
  7401  03CF  00B4               	movwf	??_BME280_readHumidity+1
  7402  03D0  0861               	movf	BME280_readHumidity@v_x1_u32r+2,w
  7403  03D1  00B5               	movwf	??_BME280_readHumidity+2
  7404  03D2  0862               	movf	BME280_readHumidity@v_x1_u32r+3,w
  7405  03D3  00B6               	movwf	??_BME280_readHumidity+3
  7406  03D4  085E               	movf	_BME280_readHumidity$1239+3,w
  7407  03D5  00F3               	movwf	___lmul@multiplier+3
  7408  03D6  085D               	movf	_BME280_readHumidity$1239+2,w
  7409  03D7  00F2               	movwf	___lmul@multiplier+2
  7410  03D8  085C               	movf	_BME280_readHumidity$1239+1,w
  7411  03D9  00F1               	movwf	___lmul@multiplier+1
  7412  03DA  085B               	movf	_BME280_readHumidity$1239,w
  7413  03DB  00F0               	movwf	___lmul@multiplier
  7414  03DC  0021               	movlb	1	; select bank1
  7415  03DD  0851               	movf	(_cal_data^(0+128)+24),w
  7416  03DE  0020               	movlb	0	; select bank0
  7417  03DF  00B7               	movwf	??_BME280_readHumidity+4
  7418  03E0  01B8               	clrf	??_BME280_readHumidity+5
  7419  03E1  01B9               	clrf	??_BME280_readHumidity+6
  7420  03E2  01BA               	clrf	??_BME280_readHumidity+7
  7421  03E3  083A               	movf	??_BME280_readHumidity+7,w
  7422  03E4  00F7               	movwf	___lmul@multiplicand+3
  7423  03E5  0839               	movf	??_BME280_readHumidity+6,w
  7424  03E6  00F6               	movwf	___lmul@multiplicand+2
  7425  03E7  0838               	movf	??_BME280_readHumidity+5,w
  7426  03E8  00F5               	movwf	___lmul@multiplicand+1
  7427  03E9  0837               	movf	??_BME280_readHumidity+4,w
  7428  03EA  00F4               	movwf	___lmul@multiplicand
  7429  03EB  318A  22AF  3181   	fcall	___lmul
  7430  03EE  0870               	movf	?___lmul,w
  7431  03EF  0020               	movlb	0	; select bank0
  7432  03F0  00BB               	movwf	??_BME280_readHumidity+8
  7433  03F1  0871               	movf	?___lmul+1,w
  7434  03F2  00BC               	movwf	??_BME280_readHumidity+9
  7435  03F3  0872               	movf	?___lmul+2,w
  7436  03F4  00BD               	movwf	??_BME280_readHumidity+10
  7437  03F5  0873               	movf	?___lmul+3,w
  7438  03F6  00BE               	movwf	??_BME280_readHumidity+11
  7439  03F7  3004               	movlw	4
  7440  03F8  00BF               	movwf	??_BME280_readHumidity+12
  7441  03F9                     u1905:	
  7442  03F9  37BE               	asrf	??_BME280_readHumidity+11,f
  7443  03FA  0CBD               	rrf	??_BME280_readHumidity+10,f
  7444  03FB  0CBC               	rrf	??_BME280_readHumidity+9,f
  7445  03FC  0CBB               	rrf	??_BME280_readHumidity+8,f
  7446  03FD  0BBF               	decfsz	??_BME280_readHumidity+12,f
  7447  03FE  2BF9               	goto	u1905
  7448  03FF  09BB               	comf	??_BME280_readHumidity+8,f
  7449  0400  09BC               	comf	??_BME280_readHumidity+9,f
  7450  0401  09BD               	comf	??_BME280_readHumidity+10,f
  7451  0402  09BE               	comf	??_BME280_readHumidity+11,f
  7452  0403  0ABB               	incf	??_BME280_readHumidity+8,f
  7453  0404  1903               	skipnz
  7454  0405  0ABC               	incf	??_BME280_readHumidity+9,f
  7455  0406  1903               	skipnz
  7456  0407  0ABD               	incf	??_BME280_readHumidity+10,f
  7457  0408  1903               	skipnz
  7458  0409  0ABE               	incf	??_BME280_readHumidity+11,f
  7459  040A  083B               	movf	??_BME280_readHumidity+8,w
  7460  040B  07B3               	addwf	??_BME280_readHumidity,f
  7461  040C  083C               	movf	??_BME280_readHumidity+9,w
  7462  040D  3DB4               	addwfc	??_BME280_readHumidity+1,f
  7463  040E  083D               	movf	??_BME280_readHumidity+10,w
  7464  040F  3DB5               	addwfc	??_BME280_readHumidity+2,f
  7465  0410  083E               	movf	??_BME280_readHumidity+11,w
  7466  0411  3DB6               	addwfc	??_BME280_readHumidity+3,f
  7467  0412  0836               	movf	??_BME280_readHumidity+3,w
  7468  0413  00E2               	movwf	BME280_readHumidity@v_x1_u32r+3
  7469  0414  0835               	movf	??_BME280_readHumidity+2,w
  7470  0415  00E1               	movwf	BME280_readHumidity@v_x1_u32r+2
  7471  0416  0834               	movf	??_BME280_readHumidity+1,w
  7472  0417  00E0               	movwf	BME280_readHumidity@v_x1_u32r+1
  7473  0418  0833               	movf	??_BME280_readHumidity,w
  7474  0419  00DF               	movwf	BME280_readHumidity@v_x1_u32r
  7475                           
  7476                           ;bme280.c: 243: float h = (v_x1_u32r>>12);
  7477  041A  085F               	movf	BME280_readHumidity@v_x1_u32r,w
  7478  041B  00B3               	movwf	??_BME280_readHumidity
  7479  041C  0860               	movf	BME280_readHumidity@v_x1_u32r+1,w
  7480  041D  00B4               	movwf	??_BME280_readHumidity+1
  7481  041E  0861               	movf	BME280_readHumidity@v_x1_u32r+2,w
  7482  041F  00B5               	movwf	??_BME280_readHumidity+2
  7483  0420  0862               	movf	BME280_readHumidity@v_x1_u32r+3,w
  7484  0421  00B6               	movwf	??_BME280_readHumidity+3
  7485  0422  300C               	movlw	12
  7486  0423  00B7               	movwf	??_BME280_readHumidity+4
  7487  0424                     u1915:	
  7488  0424  37B6               	asrf	??_BME280_readHumidity+3,f
  7489  0425  0CB5               	rrf	??_BME280_readHumidity+2,f
  7490  0426  0CB4               	rrf	??_BME280_readHumidity+1,f
  7491  0427  0CB3               	rrf	??_BME280_readHumidity,f
  7492  0428  0BB7               	decfsz	??_BME280_readHumidity+4,f
  7493  0429  2C24               	goto	u1915
  7494  042A  0836               	movf	??_BME280_readHumidity+3,w
  7495  042B  00A3               	movwf	___altoft@c+3
  7496  042C  0835               	movf	??_BME280_readHumidity+2,w
  7497  042D  00A2               	movwf	___altoft@c+2
  7498  042E  0834               	movf	??_BME280_readHumidity+1,w
  7499  042F  00A1               	movwf	___altoft@c+1
  7500  0430  0833               	movf	??_BME280_readHumidity,w
  7501  0431  00A0               	movwf	___altoft@c
  7502  0432  318B  2349  3181   	fcall	___altoft
  7503  0435  0020               	movlb	0	; select bank0
  7504  0436  0820               	movf	?___altoft,w
  7505  0437  00D8               	movwf	BME280_readHumidity@h
  7506  0438  0821               	movf	?___altoft+1,w
  7507  0439  00D9               	movwf	BME280_readHumidity@h+1
  7508  043A  0822               	movf	?___altoft+2,w
  7509  043B  00DA               	movwf	BME280_readHumidity@h+2
  7510                           
  7511                           ;bme280.c: 245: return (h / 1024.0);
  7512  043C  3000               	movlw	0
  7513  043D  00A0               	movwf	___ftdiv@f2
  7514  043E  3080               	movlw	128
  7515  043F  00A1               	movwf	___ftdiv@f2+1
  7516  0440  3044               	movlw	68
  7517  0441  00A2               	movwf	___ftdiv@f2+2
  7518  0442  0858               	movf	BME280_readHumidity@h,w
  7519  0443  00A3               	movwf	___ftdiv@f1
  7520  0444  0859               	movf	BME280_readHumidity@h+1,w
  7521  0445  00A4               	movwf	___ftdiv@f1+1
  7522  0446  085A               	movf	BME280_readHumidity@h+2,w
  7523  0447  00A5               	movwf	___ftdiv@f1+2
  7524  0448  318E  2659         	fcall	___ftdiv
  7525  044A  0020               	movlb	0	; select bank0
  7526  044B  0820               	movf	?___ftdiv,w
  7527  044C  00B0               	movwf	?_BME280_readHumidity
  7528  044D  0821               	movf	?___ftdiv+1,w
  7529  044E  00B1               	movwf	?_BME280_readHumidity+1
  7530  044F  0822               	movf	?___ftdiv+2,w
  7531  0450  00B2               	movwf	?_BME280_readHumidity+2
  7532  0451  0008               	return
  7533  0452                     __end_of_BME280_readHumidity:	
  7534                           
  7535                           	psect	text24
  7536  0AAF                     __ptext24:	
  7537 ;; *************** function ___lmul *****************
  7538 ;; Defined at:
  7539 ;;		line 15 in file "/opt/microchip/xc8/v1.45/sources/common/Umul32.c"
  7540 ;; Parameters:    Size  Location     Type
  7541 ;;  multiplier      4    0[COMMON] unsigned long 
  7542 ;;  multiplicand    4    4[COMMON] unsigned long 
  7543 ;; Auto vars:     Size  Location     Type
  7544 ;;  product         4    8[COMMON] unsigned long 
  7545 ;; Return value:  Size  Location     Type
  7546 ;;                  4    0[COMMON] unsigned long 
  7547 ;; Registers used:
  7548 ;;		wreg, status,2, status,0
  7549 ;; Tracked objects:
  7550 ;;		On entry : 0/0
  7551 ;;		On exit  : 0/0
  7552 ;;		Unchanged: 0/0
  7553 ;; Data sizes:     COMMON   BANK0   BANK1   BANK2   BANK3   BANK4   BANK5   BANK6   BANK7   BANK8   BANK9  BANK10  BANK1
      +1  BANK12
  7554 ;;      Params:         8       0       0       0       0       0       0       0       0       0       0       0       
      +0       0
  7555 ;;      Locals:         4       0       0       0       0       0       0       0       0       0       0       0       
      +0       0
  7556 ;;      Temps:          0       0       0       0       0       0       0       0       0       0       0       0       
      +0       0
  7557 ;;      Totals:        12       0       0       0       0       0       0       0       0       0       0       0       
      +0       0
  7558 ;;Total ram usage:       12 bytes
  7559 ;; Hardware stack levels used:    1
  7560 ;; This function calls:
  7561 ;;		Nothing
  7562 ;; This function is called by:
  7563 ;;		_BME280_readTemperature
  7564 ;;		_BME280_readHumidity
  7565 ;;		_BME280_readPressure
  7566 ;; This function uses a non-reentrant model
  7567 ;;
  7568                           
  7569                           
  7570                           ;psect for function ___lmul
  7571  0AAF                     ___lmul:	
  7572                           
  7573                           ;incstack = 0
  7574                           ; Regs used in ___lmul: [wreg+status,2+status,0]
  7575  0AAF  3000               	movlw	0
  7576  0AB0  00FB               	movwf	___lmul@product+3
  7577  0AB1  3000               	movlw	0
  7578  0AB2  00FA               	movwf	___lmul@product+2
  7579  0AB3  3000               	movlw	0
  7580  0AB4  00F9               	movwf	___lmul@product+1
  7581  0AB5  3000               	movlw	0
  7582  0AB6  00F8               	movwf	___lmul@product
  7583  0AB7                     l1555:	
  7584  0AB7  1C70               	btfss	___lmul@multiplier,0
  7585  0AB8  2AC1               	goto	l1559
  7586  0AB9  0874               	movf	___lmul@multiplicand,w
  7587  0ABA  07F8               	addwf	___lmul@product,f
  7588  0ABB  0875               	movf	___lmul@multiplicand+1,w
  7589  0ABC  3DF9               	addwfc	___lmul@product+1,f
  7590  0ABD  0876               	movf	___lmul@multiplicand+2,w
  7591  0ABE  3DFA               	addwfc	___lmul@product+2,f
  7592  0ABF  0877               	movf	___lmul@multiplicand+3,w
  7593  0AC0  3DFB               	addwfc	___lmul@product+3,f
  7594  0AC1                     l1559:	
  7595  0AC1  3001               	movlw	1
  7596  0AC2                     u1305:	
  7597  0AC2  35F4               	lslf	___lmul@multiplicand,f
  7598  0AC3  0DF5               	rlf	___lmul@multiplicand+1,f
  7599  0AC4  0DF6               	rlf	___lmul@multiplicand+2,f
  7600  0AC5  0DF7               	rlf	___lmul@multiplicand+3,f
  7601  0AC6  0B89               	decfsz	9,f
  7602  0AC7  2AC2               	goto	u1305
  7603  0AC8  3001               	movlw	1
  7604  0AC9                     u1315:	
  7605  0AC9  36F3               	lsrf	___lmul@multiplier+3,f
  7606  0ACA  0CF2               	rrf	___lmul@multiplier+2,f
  7607  0ACB  0CF1               	rrf	___lmul@multiplier+1,f
  7608  0ACC  0CF0               	rrf	___lmul@multiplier,f
  7609  0ACD  0B89               	decfsz	9,f
  7610  0ACE  2AC9               	goto	u1315
  7611  0ACF  0873               	movf	___lmul@multiplier+3,w
  7612  0AD0  0472               	iorwf	___lmul@multiplier+2,w
  7613  0AD1  0471               	iorwf	___lmul@multiplier+1,w
  7614  0AD2  0470               	iorwf	___lmul@multiplier,w
  7615  0AD3  1D03               	skipz
  7616  0AD4  2AB7               	goto	l1555
  7617  0AD5  087B               	movf	___lmul@product+3,w
  7618  0AD6  00F3               	movwf	?___lmul+3
  7619  0AD7  087A               	movf	___lmul@product+2,w
  7620  0AD8  00F2               	movwf	?___lmul+2
  7621  0AD9  0879               	movf	___lmul@product+1,w
  7622  0ADA  00F1               	movwf	?___lmul+1
  7623  0ADB  0878               	movf	___lmul@product,w
  7624  0ADC  00F0               	movwf	?___lmul
  7625  0ADD  0008               	return
  7626  0ADE                     __end_of___lmul:	
  7627                           
  7628                           	psect	text25
  7629  0E59                     __ptext25:	
  7630 ;; *************** function ___ftdiv *****************
  7631 ;; Defined at:
  7632 ;;		line 56 in file "/opt/microchip/xc8/v1.45/sources/common/ftdiv.c"
  7633 ;; Parameters:    Size  Location     Type
  7634 ;;  f2              3    0[BANK0 ] float 
  7635 ;;  f1              3    3[BANK0 ] float 
  7636 ;; Auto vars:     Size  Location     Type
  7637 ;;  f3              3   11[BANK0 ] float 
  7638 ;;  sign            1   15[BANK0 ] unsigned char 
  7639 ;;  exp             1   14[BANK0 ] unsigned char 
  7640 ;;  cntr            1   10[BANK0 ] unsigned char 
  7641 ;; Return value:  Size  Location     Type
  7642 ;;                  3    0[BANK0 ] float 
  7643 ;; Registers used:
  7644 ;;		wreg, status,2, status,0, pclath, cstack
  7645 ;; Tracked objects:
  7646 ;;		On entry : 0/0
  7647 ;;		On exit  : 0/0
  7648 ;;		Unchanged: 0/0
  7649 ;; Data sizes:     COMMON   BANK0   BANK1   BANK2   BANK3   BANK4   BANK5   BANK6   BANK7   BANK8   BANK9  BANK10  BANK1
      +1  BANK12
  7650 ;;      Params:         0       6       0       0       0       0       0       0       0       0       0       0       
      +0       0
  7651 ;;      Locals:         0       6       0       0       0       0       0       0       0       0       0       0       
      +0       0
  7652 ;;      Temps:          0       4       0       0       0       0       0       0       0       0       0       0       
      +0       0
  7653 ;;      Totals:         0      16       0       0       0       0       0       0       0       0       0       0       
      +0       0
  7654 ;;Total ram usage:       16 bytes
  7655 ;; Hardware stack levels used:    1
  7656 ;; Hardware stack levels required when called:    1
  7657 ;; This function calls:
  7658 ;;		___ftpack
  7659 ;; This function is called by:
  7660 ;;		_LireLux
  7661 ;;		_BME280_readTemperature
  7662 ;;		_BME280_readHumidity
  7663 ;;		_BME280_readPressure
  7664 ;; This function uses a non-reentrant model
  7665 ;;
  7666                           
  7667                           
  7668                           ;psect for function ___ftdiv
  7669  0E59                     ___ftdiv:	
  7670                           
  7671                           ;incstack = 0
  7672                           ; Regs used in ___ftdiv: [wreg+status,2+status,0+pclath+cstack]
  7673  0E59  0020               	movlb	0	; select bank0
  7674  0E5A  0823               	movf	___ftdiv@f1,w
  7675  0E5B  00A6               	movwf	??___ftdiv
  7676  0E5C  0824               	movf	___ftdiv@f1+1,w
  7677  0E5D  00A7               	movwf	??___ftdiv+1
  7678  0E5E  0825               	movf	___ftdiv@f1+2,w
  7679  0E5F  00A8               	movwf	??___ftdiv+2
  7680  0E60  1003               	clrc
  7681  0E61  0D27               	rlf	??___ftdiv+1,w
  7682  0E62  0D28               	rlf	??___ftdiv+2,w
  7683  0E63  00A9               	movwf	??___ftdiv+3
  7684  0E64  0829               	movf	??___ftdiv+3,w
  7685  0E65  00AE               	movwf	___ftdiv@exp
  7686  0E66  082E               	movf	___ftdiv@exp,w
  7687  0E67  1D03               	btfss	3,2
  7688  0E68  2E70               	goto	l1589
  7689  0E69  3000               	movlw	0
  7690  0E6A  00A0               	movwf	?___ftdiv
  7691  0E6B  3000               	movlw	0
  7692  0E6C  00A1               	movwf	?___ftdiv+1
  7693  0E6D  3000               	movlw	0
  7694  0E6E  00A2               	movwf	?___ftdiv+2
  7695  0E6F  0008               	return
  7696  0E70                     l1589:	
  7697  0E70  0820               	movf	___ftdiv@f2,w
  7698  0E71  00A6               	movwf	??___ftdiv
  7699  0E72  0821               	movf	___ftdiv@f2+1,w
  7700  0E73  00A7               	movwf	??___ftdiv+1
  7701  0E74  0822               	movf	___ftdiv@f2+2,w
  7702  0E75  00A8               	movwf	??___ftdiv+2
  7703  0E76  1003               	clrc
  7704  0E77  0D27               	rlf	??___ftdiv+1,w
  7705  0E78  0D28               	rlf	??___ftdiv+2,w
  7706  0E79  00A9               	movwf	??___ftdiv+3
  7707  0E7A  0829               	movf	??___ftdiv+3,w
  7708  0E7B  00AF               	movwf	___ftdiv@sign
  7709  0E7C  082F               	movf	___ftdiv@sign,w
  7710  0E7D  1D03               	btfss	3,2
  7711  0E7E  2E86               	goto	l1595
  7712  0E7F  3000               	movlw	0
  7713  0E80  00A0               	movwf	?___ftdiv
  7714  0E81  3000               	movlw	0
  7715  0E82  00A1               	movwf	?___ftdiv+1
  7716  0E83  3000               	movlw	0
  7717  0E84  00A2               	movwf	?___ftdiv+2
  7718  0E85  0008               	return
  7719  0E86                     l1595:	
  7720  0E86  3000               	movlw	0
  7721  0E87  00AB               	movwf	___ftdiv@f3
  7722  0E88  3000               	movlw	0
  7723  0E89  00AC               	movwf	___ftdiv@f3+1
  7724  0E8A  3000               	movlw	0
  7725  0E8B  00AD               	movwf	___ftdiv@f3+2
  7726  0E8C  3089               	movlw	137
  7727  0E8D  072F               	addwf	___ftdiv@sign,w
  7728  0E8E  00A6               	movwf	??___ftdiv
  7729  0E8F  0826               	movf	??___ftdiv,w
  7730  0E90  02AE               	subwf	___ftdiv@exp,f
  7731  0E91  0823               	movf	___ftdiv@f1,w
  7732  0E92  00A6               	movwf	??___ftdiv
  7733  0E93  0824               	movf	___ftdiv@f1+1,w
  7734  0E94  00A7               	movwf	??___ftdiv+1
  7735  0E95  0825               	movf	___ftdiv@f1+2,w
  7736  0E96  00A8               	movwf	??___ftdiv+2
  7737  0E97  3010               	movlw	16
  7738  0E98                     u1385:	
  7739  0E98  36A8               	lsrf	??___ftdiv+2,f
  7740  0E99  0CA7               	rrf	??___ftdiv+1,f
  7741  0E9A  0CA6               	rrf	??___ftdiv,f
  7742  0E9B  0B89               	decfsz	9,f
  7743  0E9C  2E98               	goto	u1385
  7744  0E9D  0826               	movf	??___ftdiv,w
  7745  0E9E  00A9               	movwf	??___ftdiv+3
  7746  0E9F  0829               	movf	??___ftdiv+3,w
  7747  0EA0  00AF               	movwf	___ftdiv@sign
  7748  0EA1  0820               	movf	___ftdiv@f2,w
  7749  0EA2  00A6               	movwf	??___ftdiv
  7750  0EA3  0821               	movf	___ftdiv@f2+1,w
  7751  0EA4  00A7               	movwf	??___ftdiv+1
  7752  0EA5  0822               	movf	___ftdiv@f2+2,w
  7753  0EA6  00A8               	movwf	??___ftdiv+2
  7754  0EA7  3010               	movlw	16
  7755  0EA8                     u1395:	
  7756  0EA8  36A8               	lsrf	??___ftdiv+2,f
  7757  0EA9  0CA7               	rrf	??___ftdiv+1,f
  7758  0EAA  0CA6               	rrf	??___ftdiv,f
  7759  0EAB  0B89               	decfsz	9,f
  7760  0EAC  2EA8               	goto	u1395
  7761  0EAD  0826               	movf	??___ftdiv,w
  7762  0EAE  00A9               	movwf	??___ftdiv+3
  7763  0EAF  0829               	movf	??___ftdiv+3,w
  7764  0EB0  06AF               	xorwf	___ftdiv@sign,f
  7765  0EB1  3080               	movlw	128
  7766  0EB2  00A6               	movwf	??___ftdiv
  7767  0EB3  0826               	movf	??___ftdiv,w
  7768  0EB4  05AF               	andwf	___ftdiv@sign,f
  7769  0EB5  17A4               	bsf	___ftdiv@f1+1,7
  7770  0EB6  30FF               	movlw	255
  7771  0EB7  05A3               	andwf	___ftdiv@f1,f
  7772  0EB8  30FF               	movlw	255
  7773  0EB9  05A4               	andwf	___ftdiv@f1+1,f
  7774  0EBA  3000               	movlw	0
  7775  0EBB  05A5               	andwf	___ftdiv@f1+2,f
  7776  0EBC  17A1               	bsf	___ftdiv@f2+1,7
  7777  0EBD  30FF               	movlw	255
  7778  0EBE  05A0               	andwf	___ftdiv@f2,f
  7779  0EBF  30FF               	movlw	255
  7780  0EC0  05A1               	andwf	___ftdiv@f2+1,f
  7781  0EC1  3000               	movlw	0
  7782  0EC2  05A2               	andwf	___ftdiv@f2+2,f
  7783  0EC3  3018               	movlw	24
  7784  0EC4  00A6               	movwf	??___ftdiv
  7785  0EC5  0826               	movf	??___ftdiv,w
  7786  0EC6  00AA               	movwf	___ftdiv@cntr
  7787  0EC7                     l1609:	
  7788  0EC7  3001               	movlw	1
  7789  0EC8                     u1405:	
  7790  0EC8  35AB               	lslf	___ftdiv@f3,f
  7791  0EC9  0DAC               	rlf	___ftdiv@f3+1,f
  7792  0ECA  0DAD               	rlf	___ftdiv@f3+2,f
  7793  0ECB  0B89               	decfsz	9,f
  7794  0ECC  2EC8               	goto	u1405
  7795  0ECD  0822               	movf	___ftdiv@f2+2,w
  7796  0ECE  0225               	subwf	___ftdiv@f1+2,w
  7797  0ECF  1D03               	skipz
  7798  0ED0  2ED7               	goto	u1415
  7799  0ED1  0821               	movf	___ftdiv@f2+1,w
  7800  0ED2  0224               	subwf	___ftdiv@f1+1,w
  7801  0ED3  1D03               	skipz
  7802  0ED4  2ED7               	goto	u1415
  7803  0ED5  0820               	movf	___ftdiv@f2,w
  7804  0ED6  0223               	subwf	___ftdiv@f1,w
  7805  0ED7                     u1415:	
  7806  0ED7  1C03               	skipc
  7807  0ED8  2EE0               	goto	l1617
  7808  0ED9  0820               	movf	___ftdiv@f2,w
  7809  0EDA  02A3               	subwf	___ftdiv@f1,f
  7810  0EDB  0821               	movf	___ftdiv@f2+1,w
  7811  0EDC  3BA4               	subwfb	___ftdiv@f1+1,f
  7812  0EDD  0822               	movf	___ftdiv@f2+2,w
  7813  0EDE  3BA5               	subwfb	___ftdiv@f1+2,f
  7814  0EDF  142B               	bsf	___ftdiv@f3,0
  7815  0EE0                     l1617:	
  7816  0EE0  3001               	movlw	1
  7817  0EE1                     u1425:	
  7818  0EE1  35A3               	lslf	___ftdiv@f1,f
  7819  0EE2  0DA4               	rlf	___ftdiv@f1+1,f
  7820  0EE3  0DA5               	rlf	___ftdiv@f1+2,f
  7821  0EE4  0B89               	decfsz	9,f
  7822  0EE5  2EE1               	goto	u1425
  7823  0EE6  3001               	movlw	1
  7824  0EE7  02AA               	subwf	___ftdiv@cntr,f
  7825  0EE8  1D03               	btfss	3,2
  7826  0EE9  2EC7               	goto	l1609
  7827  0EEA  082B               	movf	___ftdiv@f3,w
  7828  0EEB  00F0               	movwf	___ftpack@arg
  7829  0EEC  082C               	movf	___ftdiv@f3+1,w
  7830  0EED  00F1               	movwf	___ftpack@arg+1
  7831  0EEE  082D               	movf	___ftdiv@f3+2,w
  7832  0EEF  00F2               	movwf	___ftpack@arg+2
  7833  0EF0  082E               	movf	___ftdiv@exp,w
  7834  0EF1  00A6               	movwf	??___ftdiv
  7835  0EF2  0826               	movf	??___ftdiv,w
  7836  0EF3  00F3               	movwf	___ftpack@exp
  7837  0EF4  082F               	movf	___ftdiv@sign,w
  7838  0EF5  00A7               	movwf	??___ftdiv+1
  7839  0EF6  0827               	movf	??___ftdiv+1,w
  7840  0EF7  00F4               	movwf	___ftpack@sign
  7841  0EF8  318C  247B         	fcall	___ftpack
  7842  0EFA  0870               	movf	?___ftpack,w
  7843  0EFB  0020               	movlb	0	; select bank0
  7844  0EFC  00A0               	movwf	?___ftdiv
  7845  0EFD  0871               	movf	?___ftpack+1,w
  7846  0EFE  00A1               	movwf	?___ftdiv+1
  7847  0EFF  0872               	movf	?___ftpack+2,w
  7848  0F00  00A2               	movwf	?___ftdiv+2
  7849  0F01  0008               	return
  7850  0F02                     __end_of___ftdiv:	
  7851                           
  7852                           	psect	text26
  7853  0B49                     __ptext26:	
  7854 ;; *************** function ___altoft *****************
  7855 ;; Defined at:
  7856 ;;		line 42 in file "/opt/microchip/xc8/v1.45/sources/common/altoft.c"
  7857 ;; Parameters:    Size  Location     Type
  7858 ;;  c               4    0[BANK0 ] long 
  7859 ;; Auto vars:     Size  Location     Type
  7860 ;;  sign            1    5[BANK0 ] unsigned char 
  7861 ;;  exp             1    4[BANK0 ] unsigned char 
  7862 ;; Return value:  Size  Location     Type
  7863 ;;                  3    0[BANK0 ] float 
  7864 ;; Registers used:
  7865 ;;		wreg, status,2, status,0, pclath, cstack
  7866 ;; Tracked objects:
  7867 ;;		On entry : 0/0
  7868 ;;		On exit  : 0/0
  7869 ;;		Unchanged: 0/0
  7870 ;; Data sizes:     COMMON   BANK0   BANK1   BANK2   BANK3   BANK4   BANK5   BANK6   BANK7   BANK8   BANK9  BANK10  BANK1
      +1  BANK12
  7871 ;;      Params:         0       4       0       0       0       0       0       0       0       0       0       0       
      +0       0
  7872 ;;      Locals:         0       2       0       0       0       0       0       0       0       0       0       0       
      +0       0
  7873 ;;      Temps:          2       0       0       0       0       0       0       0       0       0       0       0       
      +0       0
  7874 ;;      Totals:         2       6       0       0       0       0       0       0       0       0       0       0       
      +0       0
  7875 ;;Total ram usage:        8 bytes
  7876 ;; Hardware stack levels used:    1
  7877 ;; Hardware stack levels required when called:    1
  7878 ;; This function calls:
  7879 ;;		___ftpack
  7880 ;; This function is called by:
  7881 ;;		_BME280_readTemperature
  7882 ;;		_BME280_readHumidity
  7883 ;; This function uses a non-reentrant model
  7884 ;;
  7885                           
  7886                           
  7887                           ;psect for function ___altoft
  7888  0B49                     ___altoft:	
  7889                           
  7890                           ;incstack = 0
  7891                           ; Regs used in ___altoft: [wreg+status,2+status,0+pclath+cstack]
  7892  0B49  0020               	movlb	0	; select bank0
  7893  0B4A  01A5               	clrf	___altoft@sign
  7894  0B4B  308E               	movlw	142
  7895  0B4C  00FC               	movwf	??___altoft
  7896  0B4D  087C               	movf	??___altoft,w
  7897  0B4E  00A4               	movwf	___altoft@exp
  7898  0B4F  1FA3               	btfss	___altoft@c+3,7
  7899  0B50  2B5E               	goto	l1577
  7900  0B51  09A0               	comf	___altoft@c,f
  7901  0B52  09A1               	comf	___altoft@c+1,f
  7902  0B53  09A2               	comf	___altoft@c+2,f
  7903  0B54  09A3               	comf	___altoft@c+3,f
  7904  0B55  0AA0               	incf	___altoft@c,f
  7905  0B56  1903               	skipnz
  7906  0B57  0AA1               	incf	___altoft@c+1,f
  7907  0B58  1903               	skipnz
  7908  0B59  0AA2               	incf	___altoft@c+2,f
  7909  0B5A  1903               	skipnz
  7910  0B5B  0AA3               	incf	___altoft@c+3,f
  7911  0B5C  01A5               	clrf	___altoft@sign
  7912  0B5D  0AA5               	incf	___altoft@sign,f
  7913  0B5E                     l1577:	
  7914  0B5E  30FF               	movlw	255
  7915  0B5F  0523               	andwf	___altoft@c+3,w
  7916  0B60  1903               	btfsc	3,2
  7917  0B61  2B6E               	goto	l1579
  7918  0B62  3001               	movlw	1
  7919  0B63                     u1345:	
  7920  0B63  36A3               	lsrf	___altoft@c+3,f
  7921  0B64  0CA2               	rrf	___altoft@c+2,f
  7922  0B65  0CA1               	rrf	___altoft@c+1,f
  7923  0B66  0CA0               	rrf	___altoft@c,f
  7924  0B67  0B89               	decfsz	9,f
  7925  0B68  2B63               	goto	u1345
  7926  0B69  3001               	movlw	1
  7927  0B6A  00FC               	movwf	??___altoft
  7928  0B6B  087C               	movf	??___altoft,w
  7929  0B6C  07A4               	addwf	___altoft@exp,f
  7930  0B6D  2B5E               	goto	l1577
  7931  0B6E                     l1579:	
  7932  0B6E  0820               	movf	___altoft@c,w
  7933  0B6F  00F0               	movwf	___ftpack@arg
  7934  0B70  0821               	movf	___altoft@c+1,w
  7935  0B71  00F1               	movwf	___ftpack@arg+1
  7936  0B72  0822               	movf	___altoft@c+2,w
  7937  0B73  00F2               	movwf	___ftpack@arg+2
  7938  0B74  0824               	movf	___altoft@exp,w
  7939  0B75  00FC               	movwf	??___altoft
  7940  0B76  087C               	movf	??___altoft,w
  7941  0B77  00F3               	movwf	___ftpack@exp
  7942  0B78  0825               	movf	___altoft@sign,w
  7943  0B79  00FD               	movwf	??___altoft+1
  7944  0B7A  087D               	movf	??___altoft+1,w
  7945  0B7B  00F4               	movwf	___ftpack@sign
  7946  0B7C  318C  247B         	fcall	___ftpack
  7947  0B7E  0870               	movf	?___ftpack,w
  7948  0B7F  0020               	movlb	0	; select bank0
  7949  0B80  00A0               	movwf	?___altoft
  7950  0B81  0871               	movf	?___ftpack+1,w
  7951  0B82  00A1               	movwf	?___altoft+1
  7952  0B83  0872               	movf	?___ftpack+2,w
  7953  0B84  00A2               	movwf	?___altoft+2
  7954  0B85  0008               	return
  7955  0B86                     __end_of___altoft:	
  7956                           
  7957                           	psect	text27
  7958  0C7B                     __ptext27:	
  7959 ;; *************** function ___ftpack *****************
  7960 ;; Defined at:
  7961 ;;		line 62 in file "/opt/microchip/xc8/v1.45/sources/common/float.c"
  7962 ;; Parameters:    Size  Location     Type
  7963 ;;  arg             3    0[COMMON] unsigned um
  7964 ;;  exp             1    3[COMMON] unsigned char 
  7965 ;;  sign            1    4[COMMON] unsigned char 
  7966 ;; Auto vars:     Size  Location     Type
  7967 ;;		None
  7968 ;; Return value:  Size  Location     Type
  7969 ;;                  3    0[COMMON] float 
  7970 ;; Registers used:
  7971 ;;		wreg, status,2, status,0
  7972 ;; Tracked objects:
  7973 ;;		On entry : 0/0
  7974 ;;		On exit  : 0/0
  7975 ;;		Unchanged: 0/0
  7976 ;; Data sizes:     COMMON   BANK0   BANK1   BANK2   BANK3   BANK4   BANK5   BANK6   BANK7   BANK8   BANK9  BANK10  BANK1
      +1  BANK12
  7977 ;;      Params:         5       0       0       0       0       0       0       0       0       0       0       0       
      +0       0
  7978 ;;      Locals:         0       0       0       0       0       0       0       0       0       0       0       0       
      +0       0
  7979 ;;      Temps:          3       0       0       0       0       0       0       0       0       0       0       0       
      +0       0
  7980 ;;      Totals:         8       0       0       0       0       0       0       0       0       0       0       0       
      +0       0
  7981 ;;Total ram usage:        8 bytes
  7982 ;; Hardware stack levels used:    1
  7983 ;; This function calls:
  7984 ;;		Nothing
  7985 ;; This function is called by:
  7986 ;;		___altoft
  7987 ;;		___ftdiv
  7988 ;;		___lltoft
  7989 ;;		___lwtoft
  7990 ;; This function uses a non-reentrant model
  7991 ;;
  7992                           
  7993                           
  7994                           ;psect for function ___ftpack
  7995  0C7B                     ___ftpack:	
  7996                           
  7997                           ;incstack = 0
  7998                           ; Regs used in ___ftpack: [wreg+status,2+status,0]
  7999  0C7B  0873               	movf	___ftpack@exp,w
  8000  0C7C  1903               	btfsc	3,2
  8001  0C7D  2C83               	goto	l1427
  8002  0C7E  0872               	movf	___ftpack@arg+2,w
  8003  0C7F  0471               	iorwf	___ftpack@arg+1,w
  8004  0C80  0470               	iorwf	___ftpack@arg,w
  8005  0C81  1D03               	skipz
  8006  0C82  2C94               	goto	l1433
  8007  0C83                     l1427:	
  8008  0C83  3000               	movlw	0
  8009  0C84  00F0               	movwf	?___ftpack
  8010  0C85  3000               	movlw	0
  8011  0C86  00F1               	movwf	?___ftpack+1
  8012  0C87  3000               	movlw	0
  8013  0C88  00F2               	movwf	?___ftpack+2
  8014  0C89  0008               	return
  8015  0C8A                     l1431:	
  8016  0C8A  3001               	movlw	1
  8017  0C8B  00F5               	movwf	??___ftpack
  8018  0C8C  0875               	movf	??___ftpack,w
  8019  0C8D  07F3               	addwf	___ftpack@exp,f
  8020  0C8E  3001               	movlw	1
  8021  0C8F                     u1165:	
  8022  0C8F  36F2               	lsrf	___ftpack@arg+2,f
  8023  0C90  0CF1               	rrf	___ftpack@arg+1,f
  8024  0C91  0CF0               	rrf	___ftpack@arg,f
  8025  0C92  0B89               	decfsz	9,f
  8026  0C93  2C8F               	goto	u1165
  8027  0C94                     l1433:	
  8028  0C94  30FE               	movlw	254
  8029  0C95  0572               	andwf	___ftpack@arg+2,w
  8030  0C96  1903               	btfsc	3,2
  8031  0C97  2CAD               	goto	l582
  8032  0C98  2C8A               	goto	l1431
  8033  0C99                     l1435:	
  8034  0C99  3001               	movlw	1
  8035  0C9A  00F5               	movwf	??___ftpack
  8036  0C9B  0875               	movf	??___ftpack,w
  8037  0C9C  07F3               	addwf	___ftpack@exp,f
  8038  0C9D  3001               	movlw	1
  8039  0C9E  07F0               	addwf	___ftpack@arg,f
  8040  0C9F  3000               	movlw	0
  8041  0CA0  1803               	skipnc
  8042  0CA1  3001               	movlw	1
  8043  0CA2  07F1               	addwf	___ftpack@arg+1,f
  8044  0CA3  3000               	movlw	0
  8045  0CA4  1803               	skipnc
  8046  0CA5  3001               	movlw	1
  8047  0CA6  07F2               	addwf	___ftpack@arg+2,f
  8048  0CA7  3001               	movlw	1
  8049  0CA8                     u1185:	
  8050  0CA8  36F2               	lsrf	___ftpack@arg+2,f
  8051  0CA9  0CF1               	rrf	___ftpack@arg+1,f
  8052  0CAA  0CF0               	rrf	___ftpack@arg,f
  8053  0CAB  0B89               	decfsz	9,f
  8054  0CAC  2CA8               	goto	u1185
  8055  0CAD                     l582:	
  8056  0CAD  30FF               	movlw	255
  8057  0CAE  0572               	andwf	___ftpack@arg+2,w
  8058  0CAF  1903               	btfsc	3,2
  8059  0CB0  2CBA               	goto	l1443
  8060  0CB1  2C99               	goto	l1435
  8061  0CB2                     l1441:	
  8062  0CB2  3001               	movlw	1
  8063  0CB3  02F3               	subwf	___ftpack@exp,f
  8064  0CB4  3001               	movlw	1
  8065  0CB5                     u1205:	
  8066  0CB5  35F0               	lslf	___ftpack@arg,f
  8067  0CB6  0DF1               	rlf	___ftpack@arg+1,f
  8068  0CB7  0DF2               	rlf	___ftpack@arg+2,f
  8069  0CB8  0B89               	decfsz	9,f
  8070  0CB9  2CB5               	goto	u1205
  8071  0CBA                     l1443:	
  8072  0CBA  1BF1               	btfsc	___ftpack@arg+1,7
  8073  0CBB  2CC0               	goto	l589
  8074  0CBC  3002               	movlw	2
  8075  0CBD  0273               	subwf	___ftpack@exp,w
  8076  0CBE  1803               	skipnc
  8077  0CBF  2CB2               	goto	l1441
  8078  0CC0                     l589:	
  8079  0CC0  1873               	btfsc	___ftpack@exp,0
  8080  0CC1  2CC8               	goto	l590
  8081  0CC2  30FF               	movlw	255
  8082  0CC3  05F0               	andwf	___ftpack@arg,f
  8083  0CC4  307F               	movlw	127
  8084  0CC5  05F1               	andwf	___ftpack@arg+1,f
  8085  0CC6  30FF               	movlw	255
  8086  0CC7  05F2               	andwf	___ftpack@arg+2,f
  8087  0CC8                     l590:	
  8088  0CC8  1003               	clrc
  8089  0CC9  0CF3               	rrf	___ftpack@exp,f
  8090  0CCA  0873               	movf	___ftpack@exp,w
  8091  0CCB  00F5               	movwf	??___ftpack
  8092  0CCC  01F6               	clrf	??___ftpack+1
  8093  0CCD  01F7               	clrf	??___ftpack+2
  8094  0CCE  3010               	movlw	16
  8095  0CCF                     u1245:	
  8096  0CCF  35F5               	lslf	??___ftpack,f
  8097  0CD0  0DF6               	rlf	??___ftpack+1,f
  8098  0CD1  0DF7               	rlf	??___ftpack+2,f
  8099  0CD2  0B89               	decfsz	9,f
  8100  0CD3  2CCF               	goto	u1245
  8101  0CD4  0875               	movf	??___ftpack,w
  8102  0CD5  04F0               	iorwf	___ftpack@arg,f
  8103  0CD6  0876               	movf	??___ftpack+1,w
  8104  0CD7  04F1               	iorwf	___ftpack@arg+1,f
  8105  0CD8  0877               	movf	??___ftpack+2,w
  8106  0CD9  04F2               	iorwf	___ftpack@arg+2,f
  8107  0CDA  0874               	movf	___ftpack@sign,w
  8108  0CDB  1903               	btfsc	3,2
  8109  0CDC  0008               	return
  8110  0CDD  17F2               	bsf	___ftpack@arg+2,7
  8111  0CDE  0008               	return
  8112  0CDF                     __end_of___ftpack:	
  8113                           
  8114                           	psect	text28
  8115  0BCA                     __ptext28:	
  8116 ;; *************** function _BME280_read16 *****************
  8117 ;; Defined at:
  8118 ;;		line 27 in file "bme280.c"
  8119 ;; Parameters:    Size  Location     Type
  8120 ;;  reg             1    wreg     unsigned char 
  8121 ;; Auto vars:     Size  Location     Type
  8122 ;;  reg             1   10[COMMON] unsigned char 
  8123 ;;  temp            2   11[COMMON] unsigned int 
  8124 ;; Return value:  Size  Location     Type
  8125 ;;                  2    6[COMMON] unsigned int 
  8126 ;; Registers used:
  8127 ;;		wreg, status,2, status,0, pclath, cstack
  8128 ;; Tracked objects:
  8129 ;;		On entry : 0/0
  8130 ;;		On exit  : 0/0
  8131 ;;		Unchanged: 0/0
  8132 ;; Data sizes:     COMMON   BANK0   BANK1   BANK2   BANK3   BANK4   BANK5   BANK6   BANK7   BANK8   BANK9  BANK10  BANK1
      +1  BANK12
  8133 ;;      Params:         2       0       0       0       0       0       0       0       0       0       0       0       
      +0       0
  8134 ;;      Locals:         3       0       0       0       0       0       0       0       0       0       0       0       
      +0       0
  8135 ;;      Temps:          2       0       0       0       0       0       0       0       0       0       0       0       
      +0       0
  8136 ;;      Totals:         7       0       0       0       0       0       0       0       0       0       0       0       
      +0       0
  8137 ;;Total ram usage:        7 bytes
  8138 ;; Hardware stack levels used:    1
  8139 ;; Hardware stack levels required when called:    2
  8140 ;; This function calls:
  8141 ;;		_I2C_Master_Read
  8142 ;;		_I2C_Master_Start
  8143 ;;		_I2C_Master_Stop
  8144 ;;		_I2C_Master_Wait
  8145 ;;		_I2C_Master_Write
  8146 ;; This function is called by:
  8147 ;;		_BME280_read16_LE
  8148 ;;		_BME280_readHumidity
  8149 ;;		_BME280_readS16
  8150 ;; This function uses a non-reentrant model
  8151 ;;
  8152                           
  8153                           
  8154                           ;psect for function _BME280_read16
  8155  0BCA                     _BME280_read16:	
  8156                           
  8157                           ;incstack = 0
  8158                           ; Regs used in _BME280_read16: [wreg+status,2+status,0+pclath+cstack]
  8159                           ;BME280_read16@reg stored from wreg
  8160  0BCA  00FA               	movwf	BME280_read16@reg
  8161                           
  8162                           ;bme280.c: 29: uint16_t temp ;
  8163                           ;bme280.c: 30: I2C_Master_Start();
  8164  0BCB  3189  2134  318B   	fcall	_I2C_Master_Start
  8165                           
  8166                           ;bme280.c: 31: I2C_Master_Write(0xEC);
  8167  0BCE  30EC               	movlw	236
  8168  0BCF  00F0               	movwf	I2C_Master_Write@d
  8169  0BD0  3000               	movlw	0
  8170  0BD1  00F1               	movwf	I2C_Master_Write@d+1
  8171  0BD2  3189  2143  318B   	fcall	_I2C_Master_Write
  8172                           
  8173                           ;bme280.c: 32: I2C_Master_Wait();
  8174  0BD5  3189  214F  318B   	fcall	_I2C_Master_Wait
  8175                           
  8176                           ;bme280.c: 33: I2C_Master_Write(reg);
  8177  0BD8  087A               	movf	BME280_read16@reg,w
  8178  0BD9  00F8               	movwf	??_BME280_read16
  8179  0BDA  01F9               	clrf	??_BME280_read16+1
  8180  0BDB  0878               	movf	??_BME280_read16,w
  8181  0BDC  00F0               	movwf	I2C_Master_Write@d
  8182  0BDD  0879               	movf	??_BME280_read16+1,w
  8183  0BDE  00F1               	movwf	I2C_Master_Write@d+1
  8184  0BDF  3189  2143  318B   	fcall	_I2C_Master_Write
  8185                           
  8186                           ;bme280.c: 34: I2C_Master_Wait();
  8187  0BE2  3189  214F  318B   	fcall	_I2C_Master_Wait
  8188                           
  8189                           ;bme280.c: 35: I2C_Master_Stop();
  8190  0BE5  3189  2139  318B   	fcall	_I2C_Master_Stop
  8191                           
  8192                           ;bme280.c: 36: I2C_Master_Start();
  8193  0BE8  3189  2134  318B   	fcall	_I2C_Master_Start
  8194                           
  8195                           ;bme280.c: 37: I2C_Master_Write(0xED);
  8196  0BEB  30ED               	movlw	237
  8197  0BEC  00F0               	movwf	I2C_Master_Write@d
  8198  0BED  3000               	movlw	0
  8199  0BEE  00F1               	movwf	I2C_Master_Write@d+1
  8200  0BEF  3189  2143  318B   	fcall	_I2C_Master_Write
  8201                           
  8202                           ;bme280.c: 38: I2C_Master_Wait();
  8203  0BF2  3189  214F  318B   	fcall	_I2C_Master_Wait
  8204                           
  8205                           ;bme280.c: 39: temp = I2C_Master_Read(1);
  8206  0BF5  3001               	movlw	1
  8207  0BF6  00F0               	movwf	I2C_Master_Read@a
  8208  0BF7  3000               	movlw	0
  8209  0BF8  00F1               	movwf	I2C_Master_Read@a+1
  8210  0BF9  318A  220C  318B   	fcall	_I2C_Master_Read
  8211  0BFC  0871               	movf	?_I2C_Master_Read+1,w
  8212  0BFD  00FC               	movwf	BME280_read16@temp+1
  8213  0BFE  0870               	movf	?_I2C_Master_Read,w
  8214  0BFF  00FB               	movwf	BME280_read16@temp
  8215                           
  8216                           ;bme280.c: 40: temp<<=8;
  8217  0C00  3008               	movlw	8
  8218  0C01                     u1135:	
  8219  0C01  35FB               	lslf	BME280_read16@temp,f
  8220  0C02  0DFC               	rlf	BME280_read16@temp+1,f
  8221  0C03  0B89               	decfsz	9,f
  8222  0C04  2C01               	goto	u1135
  8223                           
  8224                           ;bme280.c: 41: temp |= I2C_Master_Read(0);
  8225  0C05  3000               	movlw	0
  8226  0C06  00F0               	movwf	I2C_Master_Read@a
  8227  0C07  00F1               	movwf	I2C_Master_Read@a+1
  8228  0C08  318A  220C  318B   	fcall	_I2C_Master_Read
  8229  0C0B  0870               	movf	?_I2C_Master_Read,w
  8230  0C0C  04FB               	iorwf	BME280_read16@temp,f
  8231  0C0D  0871               	movf	?_I2C_Master_Read+1,w
  8232  0C0E  04FC               	iorwf	BME280_read16@temp+1,f
  8233                           
  8234                           ;bme280.c: 42: I2C_Master_Wait();
  8235  0C0F  3189  214F  318B   	fcall	_I2C_Master_Wait
  8236                           
  8237                           ;bme280.c: 43: I2C_Master_Stop();
  8238  0C12  3189  2139         	fcall	_I2C_Master_Stop
  8239                           
  8240                           ;bme280.c: 45: return temp;
  8241  0C14  087C               	movf	BME280_read16@temp+1,w
  8242  0C15  00F7               	movwf	?_BME280_read16+1
  8243  0C16  087B               	movf	BME280_read16@temp,w
  8244  0C17  00F6               	movwf	?_BME280_read16
  8245  0C18  0008               	return
  8246  0C19                     __end_of_BME280_read16:	
  8247                           
  8248                           	psect	text29
  8249  0994                     __ptext29:	
  8250 ;; *************** function _BME280_goForceMode *****************
  8251 ;; Defined at:
  8252 ;;		line 172 in file "bme280.c"
  8253 ;; Parameters:    Size  Location     Type
  8254 ;;		None
  8255 ;; Auto vars:     Size  Location     Type
  8256 ;;  mode            1   11[COMMON] unsigned char 
  8257 ;; Return value:  Size  Location     Type
  8258 ;;                  1    wreg      void 
  8259 ;; Registers used:
  8260 ;;		wreg, status,2, status,0, pclath, cstack
  8261 ;; Tracked objects:
  8262 ;;		On entry : 0/0
  8263 ;;		On exit  : 0/0
  8264 ;;		Unchanged: 0/0
  8265 ;; Data sizes:     COMMON   BANK0   BANK1   BANK2   BANK3   BANK4   BANK5   BANK6   BANK7   BANK8   BANK9  BANK10  BANK1
      +1  BANK12
  8266 ;;      Params:         0       0       0       0       0       0       0       0       0       0       0       0       
      +0       0
  8267 ;;      Locals:         1       0       0       0       0       0       0       0       0       0       0       0       
      +0       0
  8268 ;;      Temps:          1       0       0       0       0       0       0       0       0       0       0       0       
      +0       0
  8269 ;;      Totals:         2       0       0       0       0       0       0       0       0       0       0       0       
      +0       0
  8270 ;;Total ram usage:        2 bytes
  8271 ;; Hardware stack levels used:    1
  8272 ;; Hardware stack levels required when called:    3
  8273 ;; This function calls:
  8274 ;;		_BME280_read8
  8275 ;;		_BME280_write8
  8276 ;; This function is called by:
  8277 ;;		_main
  8278 ;; This function uses a non-reentrant model
  8279 ;;
  8280                           
  8281                           
  8282                           ;psect for function _BME280_goForceMode
  8283  0994                     _BME280_goForceMode:	
  8284                           
  8285                           ;bme280.c: 174: uint8_t mode ;
  8286                           ;bme280.c: 175: mode = BME280_read8(0xF4);
  8287                           
  8288                           ;incstack = 0
  8289                           ; Regs used in _BME280_goForceMode: [wreg+status,2+status,0+pclath+cstack]
  8290  0994  30F4               	movlw	244
  8291  0995  318B  230D  3189   	fcall	_BME280_read8
  8292  0998  00FA               	movwf	??_BME280_goForceMode
  8293  0999  087A               	movf	??_BME280_goForceMode,w
  8294  099A  00FB               	movwf	BME280_goForceMode@mode
  8295                           
  8296                           ;bme280.c: 176: mode = (mode & 0xFC) + 0x01;
  8297  099B  087B               	movf	BME280_goForceMode@mode,w
  8298  099C  39FC               	andlw	252
  8299  099D  3E01               	addlw	1
  8300  099E  00FA               	movwf	??_BME280_goForceMode
  8301  099F  087A               	movf	??_BME280_goForceMode,w
  8302  09A0  00FB               	movwf	BME280_goForceMode@mode
  8303                           
  8304                           ;bme280.c: 177: BME280_write8(0xF4,mode);
  8305  09A1  087B               	movf	BME280_goForceMode@mode,w
  8306  09A2  00FA               	movwf	??_BME280_goForceMode
  8307  09A3  087A               	movf	??_BME280_goForceMode,w
  8308  09A4  00F2               	movwf	BME280_write8@value
  8309  09A5  30F4               	movlw	244
  8310  09A6  318A  2256         	fcall	_BME280_write8
  8311  09A8  0008               	return
  8312  09A9                     __end_of_BME280_goForceMode:	
  8313                           
  8314                           	psect	text30
  8315  0A56                     __ptext30:	
  8316 ;; *************** function _BME280_write8 *****************
  8317 ;; Defined at:
  8318 ;;		line 93 in file "bme280.c"
  8319 ;; Parameters:    Size  Location     Type
  8320 ;;  reg             1    wreg     unsigned char 
  8321 ;;  value           1    2[COMMON] unsigned char 
  8322 ;; Auto vars:     Size  Location     Type
  8323 ;;  reg             1    5[COMMON] unsigned char 
  8324 ;; Return value:  Size  Location     Type
  8325 ;;                  1    wreg      char 
  8326 ;; Registers used:
  8327 ;;		wreg, status,2, status,0, pclath, cstack
  8328 ;; Tracked objects:
  8329 ;;		On entry : 0/0
  8330 ;;		On exit  : 0/0
  8331 ;;		Unchanged: 0/0
  8332 ;; Data sizes:     COMMON   BANK0   BANK1   BANK2   BANK3   BANK4   BANK5   BANK6   BANK7   BANK8   BANK9  BANK10  BANK1
      +1  BANK12
  8333 ;;      Params:         1       0       0       0       0       0       0       0       0       0       0       0       
      +0       0
  8334 ;;      Locals:         1       0       0       0       0       0       0       0       0       0       0       0       
      +0       0
  8335 ;;      Temps:          2       0       0       0       0       0       0       0       0       0       0       0       
      +0       0
  8336 ;;      Totals:         4       0       0       0       0       0       0       0       0       0       0       0       
      +0       0
  8337 ;;Total ram usage:        4 bytes
  8338 ;; Hardware stack levels used:    1
  8339 ;; Hardware stack levels required when called:    2
  8340 ;; This function calls:
  8341 ;;		_I2C_Master_Start
  8342 ;;		_I2C_Master_Stop
  8343 ;;		_I2C_Master_Wait
  8344 ;;		_I2C_Master_Write
  8345 ;; This function is called by:
  8346 ;;		_main
  8347 ;;		_BME280_goForceMode
  8348 ;; This function uses a non-reentrant model
  8349 ;;
  8350                           
  8351                           
  8352                           ;psect for function _BME280_write8
  8353  0A56                     _BME280_write8:	
  8354                           
  8355                           ;incstack = 0
  8356                           ; Regs used in _BME280_write8: [wreg+status,2+status,0+pclath+cstack]
  8357                           ;BME280_write8@reg stored from wreg
  8358  0A56  00F5               	movwf	BME280_write8@reg
  8359                           
  8360                           ;bme280.c: 95: I2C_Master_Start();
  8361  0A57  3189  2134  318A   	fcall	_I2C_Master_Start
  8362                           
  8363                           ;bme280.c: 96: I2C_Master_Write(0xEC);
  8364  0A5A  30EC               	movlw	236
  8365  0A5B  00F0               	movwf	I2C_Master_Write@d
  8366  0A5C  3000               	movlw	0
  8367  0A5D  00F1               	movwf	I2C_Master_Write@d+1
  8368  0A5E  3189  2143  318A   	fcall	_I2C_Master_Write
  8369                           
  8370                           ;bme280.c: 97: I2C_Master_Wait();
  8371  0A61  3189  214F  318A   	fcall	_I2C_Master_Wait
  8372                           
  8373                           ;bme280.c: 98: I2C_Master_Write(reg);
  8374  0A64  0875               	movf	BME280_write8@reg,w
  8375  0A65  00F3               	movwf	??_BME280_write8
  8376  0A66  01F4               	clrf	??_BME280_write8+1
  8377  0A67  0873               	movf	??_BME280_write8,w
  8378  0A68  00F0               	movwf	I2C_Master_Write@d
  8379  0A69  0874               	movf	??_BME280_write8+1,w
  8380  0A6A  00F1               	movwf	I2C_Master_Write@d+1
  8381  0A6B  3189  2143  318A   	fcall	_I2C_Master_Write
  8382                           
  8383                           ;bme280.c: 99: I2C_Master_Wait();
  8384  0A6E  3189  214F  318A   	fcall	_I2C_Master_Wait
  8385                           
  8386                           ;bme280.c: 100: I2C_Master_Write(value);
  8387  0A71  0872               	movf	BME280_write8@value,w
  8388  0A72  00F3               	movwf	??_BME280_write8
  8389  0A73  01F4               	clrf	??_BME280_write8+1
  8390  0A74  0873               	movf	??_BME280_write8,w
  8391  0A75  00F0               	movwf	I2C_Master_Write@d
  8392  0A76  0874               	movf	??_BME280_write8+1,w
  8393  0A77  00F1               	movwf	I2C_Master_Write@d+1
  8394  0A78  3189  2143  318A   	fcall	_I2C_Master_Write
  8395                           
  8396                           ;bme280.c: 101: I2C_Master_Wait();
  8397  0A7B  3189  214F  318A   	fcall	_I2C_Master_Wait
  8398                           
  8399                           ;bme280.c: 102: I2C_Master_Stop();
  8400  0A7E  3189  2139         	fcall	_I2C_Master_Stop
  8401  0A80  0008               	return
  8402  0A81                     __end_of_BME280_write8:	
  8403                           
  8404                           	psect	text31
  8405  0B0D                     __ptext31:	
  8406 ;; *************** function _BME280_read8 *****************
  8407 ;; Defined at:
  8408 ;;		line 7 in file "bme280.c"
  8409 ;; Parameters:    Size  Location     Type
  8410 ;;  reg             1    wreg     unsigned char 
  8411 ;; Auto vars:     Size  Location     Type
  8412 ;;  reg             1    8[COMMON] unsigned char 
  8413 ;;  temp            1    9[COMMON] unsigned char 
  8414 ;; Return value:  Size  Location     Type
  8415 ;;                  1    wreg      unsigned char 
  8416 ;; Registers used:
  8417 ;;		wreg, status,2, status,0, pclath, cstack
  8418 ;; Tracked objects:
  8419 ;;		On entry : 0/0
  8420 ;;		On exit  : 0/0
  8421 ;;		Unchanged: 0/0
  8422 ;; Data sizes:     COMMON   BANK0   BANK1   BANK2   BANK3   BANK4   BANK5   BANK6   BANK7   BANK8   BANK9  BANK10  BANK1
      +1  BANK12
  8423 ;;      Params:         0       0       0       0       0       0       0       0       0       0       0       0       
      +0       0
  8424 ;;      Locals:         2       0       0       0       0       0       0       0       0       0       0       0       
      +0       0
  8425 ;;      Temps:          2       0       0       0       0       0       0       0       0       0       0       0       
      +0       0
  8426 ;;      Totals:         4       0       0       0       0       0       0       0       0       0       0       0       
      +0       0
  8427 ;;Total ram usage:        4 bytes
  8428 ;; Hardware stack levels used:    1
  8429 ;; Hardware stack levels required when called:    2
  8430 ;; This function calls:
  8431 ;;		_I2C_Master_Read
  8432 ;;		_I2C_Master_Start
  8433 ;;		_I2C_Master_Stop
  8434 ;;		_I2C_Master_Wait
  8435 ;;		_I2C_Master_Write
  8436 ;; This function is called by:
  8437 ;;		_readSensorCoefficients
  8438 ;;		_BME280_goForceMode
  8439 ;; This function uses a non-reentrant model
  8440 ;;
  8441                           
  8442                           
  8443                           ;psect for function _BME280_read8
  8444  0B0D                     _BME280_read8:	
  8445                           
  8446                           ;incstack = 0
  8447                           ; Regs used in _BME280_read8: [wreg+status,2+status,0+pclath+cstack]
  8448                           ;BME280_read8@reg stored from wreg
  8449  0B0D  00F8               	movwf	BME280_read8@reg
  8450                           
  8451                           ;bme280.c: 9: uint8_t temp ;
  8452                           ;bme280.c: 10: I2C_Master_Start();
  8453  0B0E  3189  2134  318B   	fcall	_I2C_Master_Start
  8454                           
  8455                           ;bme280.c: 11: I2C_Master_Write(0xEC);
  8456  0B11  30EC               	movlw	236
  8457  0B12  00F0               	movwf	I2C_Master_Write@d
  8458  0B13  3000               	movlw	0
  8459  0B14  00F1               	movwf	I2C_Master_Write@d+1
  8460  0B15  3189  2143  318B   	fcall	_I2C_Master_Write
  8461                           
  8462                           ;bme280.c: 12: I2C_Master_Wait();
  8463  0B18  3189  214F  318B   	fcall	_I2C_Master_Wait
  8464                           
  8465                           ;bme280.c: 13: I2C_Master_Write(reg);
  8466  0B1B  0878               	movf	BME280_read8@reg,w
  8467  0B1C  00F6               	movwf	??_BME280_read8
  8468  0B1D  01F7               	clrf	??_BME280_read8+1
  8469  0B1E  0876               	movf	??_BME280_read8,w
  8470  0B1F  00F0               	movwf	I2C_Master_Write@d
  8471  0B20  0877               	movf	??_BME280_read8+1,w
  8472  0B21  00F1               	movwf	I2C_Master_Write@d+1
  8473  0B22  3189  2143  318B   	fcall	_I2C_Master_Write
  8474                           
  8475                           ;bme280.c: 14: I2C_Master_Wait();
  8476  0B25  3189  214F  318B   	fcall	_I2C_Master_Wait
  8477                           
  8478                           ;bme280.c: 15: I2C_Master_Stop();
  8479  0B28  3189  2139  318B   	fcall	_I2C_Master_Stop
  8480                           
  8481                           ;bme280.c: 16: I2C_Master_Start();
  8482  0B2B  3189  2134  318B   	fcall	_I2C_Master_Start
  8483                           
  8484                           ;bme280.c: 17: I2C_Master_Write(0xED);
  8485  0B2E  30ED               	movlw	237
  8486  0B2F  00F0               	movwf	I2C_Master_Write@d
  8487  0B30  3000               	movlw	0
  8488  0B31  00F1               	movwf	I2C_Master_Write@d+1
  8489  0B32  3189  2143  318B   	fcall	_I2C_Master_Write
  8490                           
  8491                           ;bme280.c: 18: I2C_Master_Wait();
  8492  0B35  3189  214F  318B   	fcall	_I2C_Master_Wait
  8493                           
  8494                           ;bme280.c: 19: temp = I2C_Master_Read(0);
  8495  0B38  3000               	movlw	0
  8496  0B39  00F0               	movwf	I2C_Master_Read@a
  8497  0B3A  00F1               	movwf	I2C_Master_Read@a+1
  8498  0B3B  318A  220C  318B   	fcall	_I2C_Master_Read
  8499  0B3E  0870               	movf	?_I2C_Master_Read,w
  8500  0B3F  00F6               	movwf	??_BME280_read8
  8501  0B40  0876               	movf	??_BME280_read8,w
  8502  0B41  00F9               	movwf	BME280_read8@temp
  8503                           
  8504                           ;bme280.c: 20: I2C_Master_Wait();
  8505  0B42  3189  214F  318B   	fcall	_I2C_Master_Wait
  8506                           
  8507                           ;bme280.c: 21: I2C_Master_Stop();
  8508  0B45  3189  2139         	fcall	_I2C_Master_Stop
  8509                           
  8510                           ;bme280.c: 23: return temp;
  8511  0B47  0879               	movf	BME280_read8@temp,w
  8512  0B48  0008               	return
  8513  0B49                     __end_of_BME280_read8:	
  8514                           
  8515                           	psect	text32
  8516  0943                     __ptext32:	
  8517 ;; *************** function _I2C_Master_Write *****************
  8518 ;; Defined at:
  8519 ;;		line 36 in file "I2C1.c"
  8520 ;; Parameters:    Size  Location     Type
  8521 ;;  d               2    0[COMMON] unsigned int 
  8522 ;; Auto vars:     Size  Location     Type
  8523 ;;		None
  8524 ;; Return value:  Size  Location     Type
  8525 ;;                  1    wreg      void 
  8526 ;; Registers used:
  8527 ;;		wreg, status,2, status,0, pclath, cstack
  8528 ;; Tracked objects:
  8529 ;;		On entry : 0/0
  8530 ;;		On exit  : 0/0
  8531 ;;		Unchanged: 0/0
  8532 ;; Data sizes:     COMMON   BANK0   BANK1   BANK2   BANK3   BANK4   BANK5   BANK6   BANK7   BANK8   BANK9  BANK10  BANK1
      +1  BANK12
  8533 ;;      Params:         2       0       0       0       0       0       0       0       0       0       0       0       
      +0       0
  8534 ;;      Locals:         0       0       0       0       0       0       0       0       0       0       0       0       
      +0       0
  8535 ;;      Temps:          0       0       0       0       0       0       0       0       0       0       0       0       
      +0       0
  8536 ;;      Totals:         2       0       0       0       0       0       0       0       0       0       0       0       
      +0       0
  8537 ;;Total ram usage:        2 bytes
  8538 ;; Hardware stack levels used:    1
  8539 ;; Hardware stack levels required when called:    1
  8540 ;; This function calls:
  8541 ;;		_I2C_Master_Wait
  8542 ;; This function is called by:
  8543 ;;		_BH1750_Write
  8544 ;;		_BH1750_Read
  8545 ;;		_BME280_read8
  8546 ;;		_BME280_read16
  8547 ;;		_BME280_read24
  8548 ;;		_BME280_write8
  8549 ;; This function uses a non-reentrant model
  8550 ;;
  8551                           
  8552                           
  8553                           ;psect for function _I2C_Master_Write
  8554  0943                     _I2C_Master_Write:	
  8555                           
  8556                           ;I2C1.c: 38: I2C_Master_Wait();
  8557                           
  8558                           ;incstack = 0
  8559                           ; Regs used in _I2C_Master_Write: [wreg+status,2+status,0+pclath+cstack]
  8560  0943  3189  214F         	fcall	_I2C_Master_Wait
  8561                           
  8562                           ;I2C1.c: 39: SSPBUF = d;
  8563  0945  0870               	movf	I2C_Master_Write@d,w
  8564  0946  0024               	movlb	4	; select bank4
  8565  0947  0091               	movwf	17	;volatile
  8566  0948  0008               	return
  8567  0949                     __end_of_I2C_Master_Write:	
  8568                           
  8569                           	psect	text33
  8570  0939                     __ptext33:	
  8571 ;; *************** function _I2C_Master_Stop *****************
  8572 ;; Defined at:
  8573 ;;		line 30 in file "I2C1.c"
  8574 ;; Parameters:    Size  Location     Type
  8575 ;;		None
  8576 ;; Auto vars:     Size  Location     Type
  8577 ;;		None
  8578 ;; Return value:  Size  Location     Type
  8579 ;;                  1    wreg      void 
  8580 ;; Registers used:
  8581 ;;		wreg, status,2, status,0, pclath, cstack
  8582 ;; Tracked objects:
  8583 ;;		On entry : 0/0
  8584 ;;		On exit  : 0/0
  8585 ;;		Unchanged: 0/0
  8586 ;; Data sizes:     COMMON   BANK0   BANK1   BANK2   BANK3   BANK4   BANK5   BANK6   BANK7   BANK8   BANK9  BANK10  BANK1
      +1  BANK12
  8587 ;;      Params:         0       0       0       0       0       0       0       0       0       0       0       0       
      +0       0
  8588 ;;      Locals:         0       0       0       0       0       0       0       0       0       0       0       0       
      +0       0
  8589 ;;      Temps:          0       0       0       0       0       0       0       0       0       0       0       0       
      +0       0
  8590 ;;      Totals:         0       0       0       0       0       0       0       0       0       0       0       0       
      +0       0
  8591 ;;Total ram usage:        0 bytes
  8592 ;; Hardware stack levels used:    1
  8593 ;; Hardware stack levels required when called:    1
  8594 ;; This function calls:
  8595 ;;		_I2C_Master_Wait
  8596 ;; This function is called by:
  8597 ;;		_BH1750_Write
  8598 ;;		_BH1750_Read
  8599 ;;		_BME280_read8
  8600 ;;		_BME280_read16
  8601 ;;		_BME280_read24
  8602 ;;		_BME280_write8
  8603 ;; This function uses a non-reentrant model
  8604 ;;
  8605                           
  8606                           
  8607                           ;psect for function _I2C_Master_Stop
  8608  0939                     _I2C_Master_Stop:	
  8609                           
  8610                           ;I2C1.c: 32: I2C_Master_Wait();
  8611                           
  8612                           ;incstack = 0
  8613                           ; Regs used in _I2C_Master_Stop: [wreg+status,2+status,0+pclath+cstack]
  8614  0939  3189  214F         	fcall	_I2C_Master_Wait
  8615                           
  8616                           ;I2C1.c: 33: SSP1CON2bits.PEN = 1;
  8617  093B  0024               	movlb	4	; select bank4
  8618  093C  1516               	bsf	22,2	;volatile
  8619  093D  0008               	return
  8620  093E                     __end_of_I2C_Master_Stop:	
  8621                           
  8622                           	psect	text34
  8623  0934                     __ptext34:	
  8624 ;; *************** function _I2C_Master_Start *****************
  8625 ;; Defined at:
  8626 ;;		line 24 in file "I2C1.c"
  8627 ;; Parameters:    Size  Location     Type
  8628 ;;		None
  8629 ;; Auto vars:     Size  Location     Type
  8630 ;;		None
  8631 ;; Return value:  Size  Location     Type
  8632 ;;                  1    wreg      void 
  8633 ;; Registers used:
  8634 ;;		wreg, status,2, status,0, pclath, cstack
  8635 ;; Tracked objects:
  8636 ;;		On entry : 0/0
  8637 ;;		On exit  : 0/0
  8638 ;;		Unchanged: 0/0
  8639 ;; Data sizes:     COMMON   BANK0   BANK1   BANK2   BANK3   BANK4   BANK5   BANK6   BANK7   BANK8   BANK9  BANK10  BANK1
      +1  BANK12
  8640 ;;      Params:         0       0       0       0       0       0       0       0       0       0       0       0       
      +0       0
  8641 ;;      Locals:         0       0       0       0       0       0       0       0       0       0       0       0       
      +0       0
  8642 ;;      Temps:          0       0       0       0       0       0       0       0       0       0       0       0       
      +0       0
  8643 ;;      Totals:         0       0       0       0       0       0       0       0       0       0       0       0       
      +0       0
  8644 ;;Total ram usage:        0 bytes
  8645 ;; Hardware stack levels used:    1
  8646 ;; Hardware stack levels required when called:    1
  8647 ;; This function calls:
  8648 ;;		_I2C_Master_Wait
  8649 ;; This function is called by:
  8650 ;;		_BH1750_Write
  8651 ;;		_BH1750_Read
  8652 ;;		_BME280_read8
  8653 ;;		_BME280_read16
  8654 ;;		_BME280_read24
  8655 ;;		_BME280_write8
  8656 ;; This function uses a non-reentrant model
  8657 ;;
  8658                           
  8659                           
  8660                           ;psect for function _I2C_Master_Start
  8661  0934                     _I2C_Master_Start:	
  8662                           
  8663                           ;I2C1.c: 26: I2C_Master_Wait();
  8664                           
  8665                           ;incstack = 0
  8666                           ; Regs used in _I2C_Master_Start: [wreg+status,2+status,0+pclath+cstack]
  8667  0934  3189  214F         	fcall	_I2C_Master_Wait
  8668                           
  8669                           ;I2C1.c: 27: SSP1CON2bits.SEN = 1;
  8670  0936  0024               	movlb	4	; select bank4
  8671  0937  1416               	bsf	22,0	;volatile
  8672  0938  0008               	return
  8673  0939                     __end_of_I2C_Master_Start:	
  8674                           
  8675                           	psect	text35
  8676  0A0C                     __ptext35:	
  8677 ;; *************** function _I2C_Master_Read *****************
  8678 ;; Defined at:
  8679 ;;		line 51 in file "I2C1.c"
  8680 ;; Parameters:    Size  Location     Type
  8681 ;;  a               2    0[COMMON] unsigned short 
  8682 ;; Auto vars:     Size  Location     Type
  8683 ;;  temp            2    4[COMMON] unsigned short 
  8684 ;; Return value:  Size  Location     Type
  8685 ;;                  2    0[COMMON] unsigned short 
  8686 ;; Registers used:
  8687 ;;		wreg, status,2, status,0, pclath, cstack
  8688 ;; Tracked objects:
  8689 ;;		On entry : 0/0
  8690 ;;		On exit  : 0/0
  8691 ;;		Unchanged: 0/0
  8692 ;; Data sizes:     COMMON   BANK0   BANK1   BANK2   BANK3   BANK4   BANK5   BANK6   BANK7   BANK8   BANK9  BANK10  BANK1
      +1  BANK12
  8693 ;;      Params:         2       0       0       0       0       0       0       0       0       0       0       0       
      +0       0
  8694 ;;      Locals:         2       0       0       0       0       0       0       0       0       0       0       0       
      +0       0
  8695 ;;      Temps:          2       0       0       0       0       0       0       0       0       0       0       0       
      +0       0
  8696 ;;      Totals:         6       0       0       0       0       0       0       0       0       0       0       0       
      +0       0
  8697 ;;Total ram usage:        6 bytes
  8698 ;; Hardware stack levels used:    1
  8699 ;; Hardware stack levels required when called:    1
  8700 ;; This function calls:
  8701 ;;		_I2C_Master_Wait
  8702 ;; This function is called by:
  8703 ;;		_BH1750_Read
  8704 ;;		_BME280_read8
  8705 ;;		_BME280_read16
  8706 ;;		_BME280_read24
  8707 ;; This function uses a non-reentrant model
  8708 ;;
  8709                           
  8710                           
  8711                           ;psect for function _I2C_Master_Read
  8712  0A0C                     _I2C_Master_Read:	
  8713                           
  8714                           ;I2C1.c: 53: unsigned short temp;
  8715                           ;I2C1.c: 54: I2C_Master_Wait();
  8716                           
  8717                           ;incstack = 0
  8718                           ; Regs used in _I2C_Master_Read: [wreg+status,2+status,0+pclath+cstack]
  8719  0A0C  3189  214F  318A   	fcall	_I2C_Master_Wait
  8720                           
  8721                           ;I2C1.c: 55: SSP1CON2bits.RCEN = 1;
  8722  0A0F  0024               	movlb	4	; select bank4
  8723  0A10  1596               	bsf	22,3	;volatile
  8724                           
  8725                           ;I2C1.c: 56: I2C_Master_Wait();
  8726  0A11  3189  214F  318A   	fcall	_I2C_Master_Wait
  8727                           
  8728                           ;I2C1.c: 57: temp = SSPBUF;
  8729  0A14  0024               	movlb	4	; select bank4
  8730  0A15  0811               	movf	17,w	;volatile
  8731  0A16  00F2               	movwf	??_I2C_Master_Read
  8732  0A17  01F3               	clrf	??_I2C_Master_Read+1
  8733  0A18  0872               	movf	??_I2C_Master_Read,w
  8734  0A19  00F4               	movwf	I2C_Master_Read@temp
  8735  0A1A  0873               	movf	??_I2C_Master_Read+1,w
  8736  0A1B  00F5               	movwf	I2C_Master_Read@temp+1
  8737                           
  8738                           ;I2C1.c: 58: I2C_Master_Wait();
  8739  0A1C  3189  214F  318A   	fcall	_I2C_Master_Wait
  8740                           
  8741                           ;I2C1.c: 59: SSP1CON2bits.ACKDT = (a)?0:1;
  8742  0A1F  0870               	movf	I2C_Master_Read@a,w
  8743  0A20  0471               	iorwf	I2C_Master_Read@a+1,w
  8744  0A21  1D03               	btfss	3,2
  8745  0A22  2A26               	goto	u1110
  8746  0A23  0024               	movlb	4	; select bank4
  8747  0A24  1696               	bsf	22,5	;volatile
  8748  0A25  2A28               	goto	l1399
  8749  0A26                     u1110:	
  8750  0A26  0024               	movlb	4	; select bank4
  8751  0A27  1296               	bcf	22,5	;volatile
  8752  0A28                     l1399:	
  8753                           
  8754                           ;I2C1.c: 60: SSP1CON2bits.ACKEN = 1;
  8755  0A28  1616               	bsf	22,4	;volatile
  8756                           
  8757                           ;I2C1.c: 61: return temp;
  8758  0A29  0875               	movf	I2C_Master_Read@temp+1,w
  8759  0A2A  00F1               	movwf	?_I2C_Master_Read+1
  8760  0A2B  0874               	movf	I2C_Master_Read@temp,w
  8761  0A2C  00F0               	movwf	?_I2C_Master_Read
  8762  0A2D  0008               	return
  8763  0A2E                     __end_of_I2C_Master_Read:	
  8764                           
  8765                           	psect	text36
  8766  094F                     __ptext36:	
  8767 ;; *************** function _I2C_Master_Wait *****************
  8768 ;; Defined at:
  8769 ;;		line 19 in file "I2C1.c"
  8770 ;; Parameters:    Size  Location     Type
  8771 ;;		None
  8772 ;; Auto vars:     Size  Location     Type
  8773 ;;		None
  8774 ;; Return value:  Size  Location     Type
  8775 ;;                  1    wreg      void 
  8776 ;; Registers used:
  8777 ;;		wreg, status,2
  8778 ;; Tracked objects:
  8779 ;;		On entry : 0/0
  8780 ;;		On exit  : 0/0
  8781 ;;		Unchanged: 0/0
  8782 ;; Data sizes:     COMMON   BANK0   BANK1   BANK2   BANK3   BANK4   BANK5   BANK6   BANK7   BANK8   BANK9  BANK10  BANK1
      +1  BANK12
  8783 ;;      Params:         0       0       0       0       0       0       0       0       0       0       0       0       
      +0       0
  8784 ;;      Locals:         0       0       0       0       0       0       0       0       0       0       0       0       
      +0       0
  8785 ;;      Temps:          0       0       0       0       0       0       0       0       0       0       0       0       
      +0       0
  8786 ;;      Totals:         0       0       0       0       0       0       0       0       0       0       0       0       
      +0       0
  8787 ;;Total ram usage:        0 bytes
  8788 ;; Hardware stack levels used:    1
  8789 ;; This function calls:
  8790 ;;		Nothing
  8791 ;; This function is called by:
  8792 ;;		_I2C_Master_Start
  8793 ;;		_I2C_Master_Stop
  8794 ;;		_I2C_Master_Write
  8795 ;;		_I2C_Master_Read
  8796 ;;		_BH1750_Read
  8797 ;;		_BME280_read8
  8798 ;;		_BME280_read16
  8799 ;;		_BME280_read24
  8800 ;;		_BME280_write8
  8801 ;;		_I2C_Master_Write_V2
  8802 ;; This function uses a non-reentrant model
  8803 ;;
  8804                           
  8805                           
  8806                           ;psect for function _I2C_Master_Wait
  8807  094F                     _I2C_Master_Wait:	
  8808  094F                     l209:	
  8809                           ;I2C1.c: 21: while ((SSP1STAT & 0x04) || (SSP1CON2 & 0x1F));
  8810                           
  8811                           ;incstack = 0
  8812                           ; Regs used in _I2C_Master_Wait: [wreg+status,2]
  8813                           
  8814  094F  0024               	movlb	4	; select bank4
  8815  0950  1914               	btfsc	20,2	;volatile
  8816  0951  294F               	goto	l209
  8817  0952  0816               	movf	22,w	;volatile
  8818  0953  391F               	andlw	31
  8819  0954  1903               	btfsc	3,2
  8820  0955  0008               	return
  8821  0956  294F               	goto	l209
  8822  0957                     __end_of_I2C_Master_Wait:	
  8823  007E                     btemp	set	126	;btemp
  8824  007E                     wtemp0	set	126


Data Sizes:
    Strings     0
    Constant    0
    Data        0
    BSS         58
    Persistent  1
    Stack       0

Auto Spaces:
    Space          Size  Autos    Used
    COMMON           14     14      14
    BANK0            80     80      80
    BANK1            80      0      59
    BANK2            80      0       0
    BANK3            80      0       0
    BANK4            80      0       0
    BANK5            80      0       0
    BANK6            80      0       0
    BANK7            80      0       0
    BANK8            80      0       0
    BANK9            80      0       0
    BANK10           80      0       0
    BANK11           80      0       0
    BANK12           48      0       0

Pointer List with Targets:

    None.

Critical Paths under _main in COMMON

    _readSensorCoefficients->_BME280_readS16_LE
    _BME280_read16_LE->_BME280_read16
    _SYSTEM_Initialize->_EUSART_Initialize
    ___lwtoft->___ftpack
    _BH1750_Write->_I2C_Master_Write
    _BH1750_Read->_I2C_Master_Read
    _I2C_Master_Init->___lldiv
    _BME280_readTemperature->_BME280_read24
    _BME280_readTemperature->___altoft
    _BME280_readPressure->_BME280_read24
    _BME280_readPressure->___lldiv
    _BME280_readPressure->___lltoft
    ___lltoft->___ftpack
    _BME280_read24->_I2C_Master_Read
    _BME280_readHumidity->___altoft
    ___ftdiv->___lltoft
    ___altoft->___lmul
    _BME280_read16->_I2C_Master_Read
    _BME280_goForceMode->_BME280_read8
    _BME280_write8->_I2C_Master_Write
    _BME280_read8->_I2C_Master_Read

Critical Paths under _main in BANK0

    _main->_BME280_readHumidity
    _readSensorCoefficients->_BME280_readS16_LE
    _BME280_readS16_LE->_BME280_read16_LE
    _LireLux->___fttol
    ___fttol->___ftdiv
    _BME280_readTemperature->___ftdiv
    _BME280_readPressure->___ftdiv
    _BME280_readHumidity->___ftdiv

Critical Paths under _main in BANK1

    None.

Critical Paths under _main in BANK2

    None.

Critical Paths under _main in BANK3

    None.

Critical Paths under _main in BANK4

    None.

Critical Paths under _main in BANK5

    None.

Critical Paths under _main in BANK6

    None.

Critical Paths under _main in BANK7

    None.

Critical Paths under _main in BANK8

    None.

Critical Paths under _main in BANK9

    None.

Critical Paths under _main in BANK10

    None.

Critical Paths under _main in BANK11

    None.

Critical Paths under _main in BANK12

    None.

Call Graph Tables:

 ---------------------------------------------------------------------------------
 (Depth) Function   	        Calls       Base Space   Used Autos Params    Refs
 ---------------------------------------------------------------------------------
 (0) _main                                                13    13      0   48941
                                             67 BANK0     13    13      0
                 _BME280_goForceMode
                _BME280_readHumidity
                _BME280_readPressure
             _BME280_readTemperature
                      _BME280_write8
                    _I2C_Master_Init
                            _LireLux
                  _SYSTEM_Initialize
             _readSensorCoefficients
                            _spiInit
                           _spiWrite
 ---------------------------------------------------------------------------------
 (1) _spiWrite                                             1     1      0      22
                                              0 COMMON     1     1      0
 ---------------------------------------------------------------------------------
 (1) _spiInit                                              4     1      3     324
                                              0 COMMON     4     1      3
 ---------------------------------------------------------------------------------
 (1) _readSensorCoefficients                               5     5      0    4912
                                             12 BANK0      5     5      0
                   _BME280_read16_LE
                       _BME280_read8
                  _BME280_readS16_LE
 ---------------------------------------------------------------------------------
 (2) _BME280_readS16_LE                                    4     1      3    1675
                                             13 COMMON     1     1      0
                                              9 BANK0      3     0      3
                   _BME280_read16_LE
 ---------------------------------------------------------------------------------
 (3) _BME280_read16_LE                                     9     7      2    1653
                                              0 BANK0      9     7      2
                      _BME280_read16
 ---------------------------------------------------------------------------------
 (1) _SYSTEM_Initialize                                    0     0      0       0
                  _EUSART_Initialize
              _OSCILLATOR_Initialize
             _PIN_MANAGER_Initialize
                     _PMD_Initialize
                     _WDT_Initialize
 ---------------------------------------------------------------------------------
 (2) _WDT_Initialize                                       0     0      0       0
 ---------------------------------------------------------------------------------
 (2) _PMD_Initialize                                       0     0      0       0
 ---------------------------------------------------------------------------------
 (2) _PIN_MANAGER_Initialize                               0     0      0       0
 ---------------------------------------------------------------------------------
 (2) _OSCILLATOR_Initialize                                0     0      0       0
 ---------------------------------------------------------------------------------
 (2) _EUSART_Initialize                                    1     1      0       0
                                              0 COMMON     1     1      0
 ---------------------------------------------------------------------------------
 (1) _LireLux                                              6     4      2    7970
                                             30 BANK0      6     4      2
                        _BH1750_Read
                       _BH1750_Write
                            ___ftdiv
                            ___fttol
                           ___lwtoft
 ---------------------------------------------------------------------------------
 (2) ___lwtoft                                             4     1      3    2156
                                              8 COMMON     4     1      3
                           ___ftpack
 ---------------------------------------------------------------------------------
 (2) ___fttol                                             14    10      4     316
                                             16 BANK0     14    10      4
                            ___ftdiv (ARG)
                           ___lwtoft (ARG)
 ---------------------------------------------------------------------------------
 (2) _BH1750_Write                                         3     3      0    1004
                                              2 COMMON     3     3      0
                   _I2C_Master_Start
                    _I2C_Master_Stop
                   _I2C_Master_Write
 ---------------------------------------------------------------------------------
 (2) _BH1750_Read                                          4     2      2    1564
                                              6 COMMON     4     2      2
                    _I2C_Master_Read
                   _I2C_Master_Start
                    _I2C_Master_Stop
                    _I2C_Master_Wait
                   _I2C_Master_Write
 ---------------------------------------------------------------------------------
 (1) _I2C_Master_Init                                      8     4      4     632
                                              0 BANK0      8     4      4
                            ___lldiv
 ---------------------------------------------------------------------------------
 (1) _BME280_readTemperature                              45    42      3   10005
                                             16 BANK0     45    42      3
                      _BME280_read24
                           ___altoft
                            ___ftdiv
                             ___lmul
 ---------------------------------------------------------------------------------
 (1) _BME280_readPressure                                 40    37      3   10845
                                             16 BANK0     40    37      3
                      _BME280_read24
                            ___ftdiv
                            ___lldiv
                           ___lltoft
                             ___lmul
 ---------------------------------------------------------------------------------
 (2) ___lltoft                                             6     2      4    2203
                                              8 COMMON     6     2      4
                           ___ftpack
 ---------------------------------------------------------------------------------
 (2) ___lldiv                                             14     6      8     546
                                              0 COMMON    14     6      8
 ---------------------------------------------------------------------------------
 (2) _BME280_read24                                       13     9      4    1588
                                              6 COMMON     8     4      4
                                              0 BANK0      5     5      0
                    _I2C_Master_Read
                   _I2C_Master_Start
                    _I2C_Master_Stop
                    _I2C_Master_Wait
                   _I2C_Master_Write
 ---------------------------------------------------------------------------------
 (1) _BME280_readHumidity                                 51    48      3   10161
                                             16 BANK0     51    48      3
                      _BME280_read16
                           ___altoft
                            ___ftdiv
                             ___lmul
 ---------------------------------------------------------------------------------
 (2) ___lmul                                              12     4      8    3036
                                              0 COMMON    12     4      8
 ---------------------------------------------------------------------------------
 (2) ___ftdiv                                             16    10      6    2862
                                              0 BANK0     16    10      6
                           ___ftpack
                           ___lltoft (ARG)
                           ___lwtoft (ARG)
 ---------------------------------------------------------------------------------
 (2) ___altoft                                             8     4      4    2336
                                             12 COMMON     2     2      0
                                              0 BANK0      6     2      4
                           ___ftpack
                             ___lmul (ARG)
 ---------------------------------------------------------------------------------
 (3) ___ftpack                                             8     3      5    2070
                                              0 COMMON     8     3      5
 ---------------------------------------------------------------------------------
 (4) _BME280_read16                                        7     5      2    1586
                                              6 COMMON     7     5      2
                    _I2C_Master_Read
                   _I2C_Master_Start
                    _I2C_Master_Stop
                    _I2C_Master_Wait
                   _I2C_Master_Write
 ---------------------------------------------------------------------------------
 (1) _BME280_goForceMode                                   2     2      0    2848
                                             10 COMMON     2     2      0
                       _BME280_read8
                      _BME280_write8
 ---------------------------------------------------------------------------------
 (1) _BME280_write8                                        4     3      1    1218
                                              2 COMMON     4     3      1
                   _I2C_Master_Start
                    _I2C_Master_Stop
                    _I2C_Master_Wait
                   _I2C_Master_Write
 ---------------------------------------------------------------------------------
 (2) _BME280_read8                                         4     4      0    1584
                                              6 COMMON     4     4      0
                    _I2C_Master_Read
                   _I2C_Master_Start
                    _I2C_Master_Stop
                    _I2C_Master_Wait
                   _I2C_Master_Write
 ---------------------------------------------------------------------------------
 (5) _I2C_Master_Write                                     2     0      2     982
                                              0 COMMON     2     0      2
                    _I2C_Master_Wait
 ---------------------------------------------------------------------------------
 (5) _I2C_Master_Stop                                      0     0      0       0
                    _I2C_Master_Wait
 ---------------------------------------------------------------------------------
 (5) _I2C_Master_Start                                     0     0      0       0
                    _I2C_Master_Wait
 ---------------------------------------------------------------------------------
 (5) _I2C_Master_Read                                      6     4      2     557
                                              0 COMMON     6     4      2
                    _I2C_Master_Wait
 ---------------------------------------------------------------------------------
 (6) _I2C_Master_Wait                                      0     0      0       0
 ---------------------------------------------------------------------------------
 Estimated maximum stack depth 6
 ---------------------------------------------------------------------------------

 Call Graph Graphs:

 _main (ROOT)
   _BME280_goForceMode
     _BME280_read8
       _I2C_Master_Read
         _I2C_Master_Wait
       _I2C_Master_Start
         _I2C_Master_Wait
       _I2C_Master_Stop
         _I2C_Master_Wait
       _I2C_Master_Wait
       _I2C_Master_Write
         _I2C_Master_Wait
     _BME280_write8
       _I2C_Master_Start
         _I2C_Master_Wait
       _I2C_Master_Stop
         _I2C_Master_Wait
       _I2C_Master_Wait
       _I2C_Master_Write
         _I2C_Master_Wait
   _BME280_readHumidity
     _BME280_read16
       _I2C_Master_Read
         _I2C_Master_Wait
       _I2C_Master_Start
         _I2C_Master_Wait
       _I2C_Master_Stop
         _I2C_Master_Wait
       _I2C_Master_Wait
       _I2C_Master_Write
         _I2C_Master_Wait
     ___altoft
       ___ftpack
       ___lmul (ARG)
     ___ftdiv
       ___ftpack
       ___lltoft (ARG)
         ___ftpack
       ___lwtoft (ARG)
         ___ftpack
     ___lmul
   _BME280_readPressure
     _BME280_read24
       _I2C_Master_Read
         _I2C_Master_Wait
       _I2C_Master_Start
         _I2C_Master_Wait
       _I2C_Master_Stop
         _I2C_Master_Wait
       _I2C_Master_Wait
       _I2C_Master_Write
         _I2C_Master_Wait
     ___ftdiv
       ___ftpack
       ___lltoft (ARG)
         ___ftpack
       ___lwtoft (ARG)
         ___ftpack
     ___lldiv
     ___lltoft
       ___ftpack
     ___lmul
   _BME280_readTemperature
     _BME280_read24
       _I2C_Master_Read
         _I2C_Master_Wait
       _I2C_Master_Start
         _I2C_Master_Wait
       _I2C_Master_Stop
         _I2C_Master_Wait
       _I2C_Master_Wait
       _I2C_Master_Write
         _I2C_Master_Wait
     ___altoft
       ___ftpack
       ___lmul (ARG)
     ___ftdiv
       ___ftpack
       ___lltoft (ARG)
         ___ftpack
       ___lwtoft (ARG)
         ___ftpack
     ___lmul
   _BME280_write8
     _I2C_Master_Start
       _I2C_Master_Wait
     _I2C_Master_Stop
       _I2C_Master_Wait
     _I2C_Master_Wait
     _I2C_Master_Write
       _I2C_Master_Wait
   _I2C_Master_Init
     ___lldiv
   _LireLux
     _BH1750_Read
       _I2C_Master_Read
         _I2C_Master_Wait
       _I2C_Master_Start
         _I2C_Master_Wait
       _I2C_Master_Stop
         _I2C_Master_Wait
       _I2C_Master_Wait
       _I2C_Master_Write
         _I2C_Master_Wait
     _BH1750_Write
       _I2C_Master_Start
         _I2C_Master_Wait
       _I2C_Master_Stop
         _I2C_Master_Wait
       _I2C_Master_Write
         _I2C_Master_Wait
     ___ftdiv
       ___ftpack
       ___lltoft (ARG)
         ___ftpack
       ___lwtoft (ARG)
         ___ftpack
     ___fttol
       ___ftdiv (ARG)
         ___ftpack
         ___lltoft (ARG)
           ___ftpack
         ___lwtoft (ARG)
           ___ftpack
       ___lwtoft (ARG)
         ___ftpack
     ___lwtoft
       ___ftpack
   _SYSTEM_Initialize
     _EUSART_Initialize
     _OSCILLATOR_Initialize
     _PIN_MANAGER_Initialize
     _PMD_Initialize
     _WDT_Initialize
   _readSensorCoefficients
     _BME280_read16_LE
       _BME280_read16
         _I2C_Master_Read
           _I2C_Master_Wait
         _I2C_Master_Start
           _I2C_Master_Wait
         _I2C_Master_Stop
           _I2C_Master_Wait
         _I2C_Master_Wait
         _I2C_Master_Write
           _I2C_Master_Wait
     _BME280_read8
       _I2C_Master_Read
         _I2C_Master_Wait
       _I2C_Master_Start
         _I2C_Master_Wait
       _I2C_Master_Stop
         _I2C_Master_Wait
       _I2C_Master_Wait
       _I2C_Master_Write
         _I2C_Master_Wait
     _BME280_readS16_LE
       _BME280_read16_LE
         _BME280_read16
           _I2C_Master_Read
             _I2C_Master_Wait
           _I2C_Master_Start
             _I2C_Master_Wait
           _I2C_Master_Stop
             _I2C_Master_Wait
           _I2C_Master_Wait
           _I2C_Master_Write
             _I2C_Master_Wait
   _spiInit
   _spiWrite

 Address spaces:
Name               Size   Autos  Total    Cost      Usage
BIGRAM             3F0      0       0       0        0.0%
EEDATA             100      0       0       0        0.0%
NULL                 0      0       0       0        0.0%
CODE                 0      0       0       0        0.0%
BITCOMMON            E      0       0       1        0.0%
BITSFR0              0      0       0       1        0.0%
SFR0                 0      0       0       1        0.0%
COMMON               E      E       E       2      100.0%
BITSFR1              0      0       0       2        0.0%
SFR1                 0      0       0       2        0.0%
BITSFR2              0      0       0       3        0.0%
SFR2                 0      0       0       3        0.0%
STACK                0      0       0       3        0.0%
BITBANK0            50      0       0       4        0.0%
BITSFR3              0      0       0       4        0.0%
SFR3                 0      0       0       4        0.0%
BANK0               50     50      50       5      100.0%
BITSFR4              0      0       0       5        0.0%
SFR4                 0      0       0       5        0.0%
BITBANK1            50      0       0       6        0.0%
BITSFR5              0      0       0       6        0.0%
SFR5                 0      0       0       6        0.0%
BANK1               50      0      3B       7       73.8%
BITSFR6              0      0       0       7        0.0%
SFR6                 0      0       0       7        0.0%
BITBANK2            50      0       0       8        0.0%
BITSFR7              0      0       0       8        0.0%
SFR7                 0      0       0       8        0.0%
BANK2               50      0       0       9        0.0%
BITSFR8              0      0       0       9        0.0%
SFR8                 0      0       0       9        0.0%
BITBANK3            50      0       0      10        0.0%
BITSFR9              0      0       0      10        0.0%
SFR9                 0      0       0      10        0.0%
BANK3               50      0       0      11        0.0%
BITSFR10             0      0       0      11        0.0%
SFR10                0      0       0      11        0.0%
BITBANK4            50      0       0      12        0.0%
BITSFR11             0      0       0      12        0.0%
SFR11                0      0       0      12        0.0%
BANK4               50      0       0      13        0.0%
BITSFR12             0      0       0      13        0.0%
SFR12                0      0       0      13        0.0%
BITBANK5            50      0       0      14        0.0%
BITSFR13             0      0       0      14        0.0%
SFR13                0      0       0      14        0.0%
BANK5               50      0       0      15        0.0%
BITSFR14             0      0       0      15        0.0%
SFR14                0      0       0      15        0.0%
BITBANK6            50      0       0      16        0.0%
BITSFR15             0      0       0      16        0.0%
SFR15                0      0       0      16        0.0%
BANK6               50      0       0      17        0.0%
BITSFR16             0      0       0      17        0.0%
SFR16                0      0       0      17        0.0%
BITBANK7            50      0       0      18        0.0%
BITSFR17             0      0       0      18        0.0%
SFR17                0      0       0      18        0.0%
BANK7               50      0       0      19        0.0%
BITSFR18             0      0       0      19        0.0%
SFR18                0      0       0      19        0.0%
BITSFR19             0      0       0      20        0.0%
SFR19                0      0       0      20        0.0%
ABS                  0      0      99      20        0.0%
BITBANK8            50      0       0      21        0.0%
BITSFR20             0      0       0      21        0.0%
SFR20                0      0       0      21        0.0%
BANK8               50      0       0      22        0.0%
BITSFR21             0      0       0      22        0.0%
SFR21                0      0       0      22        0.0%
BITBANK9            50      0       0      23        0.0%
BITSFR22             0      0       0      23        0.0%
SFR22                0      0       0      23        0.0%
BANK9               50      0       0      24        0.0%
BITSFR23             0      0       0      24        0.0%
SFR23                0      0       0      24        0.0%
BITBANK10           50      0       0      25        0.0%
BITSFR24             0      0       0      25        0.0%
SFR24                0      0       0      25        0.0%
BANK10              50      0       0      26        0.0%
BITSFR25             0      0       0      26        0.0%
SFR25                0      0       0      26        0.0%
BITBANK11           50      0       0      27        0.0%
BITSFR26             0      0       0      27        0.0%
SFR26                0      0       0      27        0.0%
BANK11              50      0       0      28        0.0%
BITSFR27             0      0       0      28        0.0%
SFR27                0      0       0      28        0.0%
BITBANK12           30      0       0      29        0.0%
BITSFR28             0      0       0      29        0.0%
SFR28                0      0       0      29        0.0%
BANK12              30      0       0      30        0.0%
BITSFR29             0      0       0      30        0.0%
SFR29                0      0       0      30        0.0%
BITSFR30             0      0       0      31        0.0%
SFR30                0      0       0      31        0.0%
DATA                 0      0      99      31        0.0%
BITSFR31             0      0       0      32        0.0%
SFR31                0      0       0      32        0.0%


Microchip Technology PIC Macro Assembler V1.45 build -152302408 
Symbol Table                                                                                   Wed May  2 19:50:28 2018

                     ___altoft@exp 0024                        __CFG_CP$OFF 0000  
                    ___altoft@sign 0025                        __CFG_LVP$ON 0000  
                              l209 094F                                l321 09BB  
                              l307 06D2                                l590 0CC8  
                              l582 0CAD                                l673 0E3F  
                              l589 0CC0                       __CFG_CPD$OFF 0000  
          __size_of_PMD_Initialize 0008                                wreg 0009  
         BME280_readHumidity@adc_H 0044                       ___ftdiv@cntr 002A  
                     _BME280_read8 0B0D                       ___ftdiv@sign 002F  
                             l1431 0C8A                               l1441 0CB2  
                             l1433 0C94                               l1443 0CBA  
                             l1435 0C99                               l1427 0C83  
                             l1631 0DEB                               l1617 0EE0  
                             l1609 0EC7                               l1801 0C40  
                             l1555 0AB7                               l1651 0E29  
                             l1399 0A28                               l1559 0AC1  
                             l1663 0E50                               l1577 0B5E  
                             l1673 0016                               l1657 0E36  
                             l1649 0E1B                               l1579 0B6E  
                             l1595 0E86                               l1683 0044  
                             l1675 0024                               l1659 0E42  
                             l1589 0E70                               l1687 004F  
                             l1695 0A32                               l1791 0C25  
                             l1775 09B5                               l1697 0A42  
                             l1873 064A                               l1793 0C2A  
                             l1795 0C2F                               l1789 0C20  
                             l1879 06B6                               l1799 0C34  
                             l1897 0D07                               u1110 0A26  
                             u1205 0CB5                               u2005 057E  
                             u1135 0C01                               u2015 059A  
                             u1305 0AC2                               u2105 06F2  
                             u2025 05C9                               u1315 0AC9  
                             u2115 070D                               u2035 05F0  
                             u1245 0CCF                               u1165 0C8F  
                             u1405 0EC8                               u2125 073C  
                             u2045 0600                               _LATA 010C  
                             u1415 0ED7                               u2135 0753  
                             u2055 062F                               _LATC 010E  
                             u1185 0CA8                               u1345 0B63  
                             u1425 0EE1                               u2145 0779  
                             u1265 0A97                               u1275 0D88  
                             u2155 07BE                               u2075 065C  
                             u1515 0E37                               u1285 0DA8  
                             u1615 0A37                               u2095 06DB  
                             u1455 0DF2                               u2167 0D0D  
                             u1385 0E98                               u1705 0FD8  
                             u2177 0D1B                               u1395 0EA8  
                             u1555 0019                               u1715 0067  
                             u2187 0C44                               u1805 0238  
                             u1725 0078                               u1485 0E1C  
                             u1815 026B                               u1575 0025  
                             u1735 0093                               u1905 03F9  
                             u1825 029B                               u1585 0039  
                             u1745 00C1                               u1915 0424  
                             u1835 02E5                               u1595 0045  
                             u1755 00EE                               u1845 02FF  
                             u1925 0471                               u1765 0123  
                             u1685 0AEC                               u1855 031F  
                             u1935 048D                               u1775 0147  
                             u1865 0356                               u1945 04A5  
                             u1785 0175                               u1875 038A  
                             u1955 04C1                               u1795 01C6  
                             _PMD0 0911                               u1885 03A2  
                             u1965 0515                               _PMD1 0912  
                             _PMD2 0913                               u1895 03BE  
                             u1975 0536                               _PMD3 0914  
                             _PMD4 0915                               u1985 0546  
                             _PMD5 0916                               u1995 0566  
                             _WPUA 020C                               _WPUC 020E  
                     __CFG_WRT$OFF 0000                      __CFG_FCMEN$ON 0000  
                             _main 0CDF                       ___ftpack@arg 0070  
                     ___ftpack@exp 0073                               fsr0h 0005  
                             indf0 0000                               fsr0l 0004  
                             btemp 007E                      __CFG_BOREN$ON 0000  
                    __CFG_BORV$LOW 0000                               start 0002  
                    __CFG_CSWEN$ON 0000                      __CFG_MCLRE$ON 0000  
                       LireLux@lux 0042  BME280_readTemperature@temperature 0056  
                  __end_of_LireLux 0C7B                       ___fttol@exp1 003D  
                     ___fttol@lval 0039                   ?_I2C_Master_Init 0020  
                 ?_I2C_Master_Read 0070                   ?_I2C_Master_Wait 0070  
          ?_BME280_readTemperature 0030                      _BME280_read24 0D4C  
                    _BME280_read16 0BCA                   ?_I2C_Master_Stop 0070  
   __size_of_OSCILLATOR_Initialize 0009      __end_of_OSCILLATOR_Initialize 0968  
                            ?_main 0070                      __CFG_WDTE$OFF 0000  
                  __end_of___ftdiv 0F02                    __end_of___lldiv 0058  
                  __end_of___fttol 0E59                     __CFG_DEBUG$OFF 0000  
       BME280_readTemperature@var1 004A         BME280_readTemperature@var2 004E  
                    _BME280_write8 0A56                              _OSCEN 091D  
                            _TRISA 008C                              _TRISC 008E  
              ___lmul@multiplicand 0074                       ___lltoft@exp 007D  
                     main@humidity 0068                     _WDT_Initialize 0930  
         ??_readSensorCoefficients 002C                      ___ftpack@sign 0074  
     __size_of_BME280_readHumidity 0258                    __end_of_spiInit 09C0  
                     main@pressure 006B                              status 0003  
                            wtemp0 007E       __size_of_BME280_readPressure 03A4  
                  __initialization 07F6                       __end_of_main 0D4C  
   __end_of_BME280_readTemperature 01FA                     ?_BME280_read24 0076  
                   ?_BME280_read16 0076                             ??_main 0063  
                    ___fttol@sign1 0038                     ?_BME280_write8 0072  
                ?_BME280_read16_LE 0020                 ??_BME280_read16_LE 0022  
                ?_I2C_Master_Start 0070                  ?_I2C_Master_Write 0070  
           __end_of_WDT_Initialize 0934                 ??_I2C_Master_Start 0070  
               ??_I2C_Master_Write 0072                   __end_of___altoft 0B86  
      BME280_readTemperature@adc_T 0059                             _ANSELA 018C  
                           _ANSELC 018E                   __end_of___ftpack 0CDF  
               __CFG_RSTOSC$HFINT1 0000                             _RC1STA 019D  
                 __end_of___lltoft 0A56                             _ODCONA 028C  
                           _ODCONC 028E                   __end_of___lwtoft 0994  
                           _OSCFRQ 091F                             _TX1REG 019A  
                           _WDTCON 0097                             _TX1STA 019E  
                           _SSPBUF 0211                          ??_LireLux 0040  
                   __CFG_PWRTE$OFF 0000                      ??_BH1750_Read 0078  
                           ___lmul 0AAF                     __CFG_STVREN$ON 0000  
                        ??___ftdiv 0026                          ??___lldiv 0078  
                        ??___fttol 0034                             _t_fine 00B0  
       __end_of_BME280_goForceMode 09A9                     _PMD_Initialize 0957  
                  ?_WDT_Initialize 0070                   __end_of_spiWrite 0943  
                        ??_spiInit 0073    __size_of_readSensorCoefficients 00FE  
                _SYSTEM_Initialize 0972            __end_of__initialization 07FD  
                       ___altoft@c 0020                 ?_SYSTEM_Initialize 0070  
                       ___ftdiv@f1 0023                         ___ftdiv@f2 0020  
                       ___ftdiv@f3 002B                         ___fttol@f1 0030  
                   __pcstackCOMMON 0070                    ??_BME280_read24 007A  
                  ??_BME280_read16 0078                ??_SYSTEM_Initialize 0071  
                       ___lltoft@c 0078                __end_of_BH1750_Read 0AAF  
                  ??_BME280_write8 0073             __end_of_PMD_Initialize 095F  
                       ___lwtoft@c 0078          __end_of_SYSTEM_Initialize 0981  
                       __pbssBANK1 00A0                  _BME280_readS16_LE 0968  
               ?_BME280_readS16_LE 0029                      ?_BH1750_Write 0070  
                   _SSP1DATPPSbits 0E21                         __pmaintext 0CDF  
      _BME280_readTemperature$1238 0052                ??_BME280_readS16_LE 007D  
                          ?___lmul 0070             _readSensorCoefficients 0F02  
                  __CFG_PPS1WAY$ON 0000                _BME280_readHumidity 01FA  
                        ?___altoft 0020                     ___lmul@product 0078  
                   _SSP2DATPPSbits 0E1E                          ?___ftpack 0070  
                   _SSP1CLKPPSbits 0E20                    ?_PMD_Initialize 0070  
                        ?___lltoft 0078                          ?___lwtoft 0078  
     BME280_readHumidity@v_x1_u32r 005F                _BME280_readPressure 0452  
                    _eusartRxCount 00B4                            _SP1BRGH 019C  
                          _SP1BRGL 019B                            _OSCCON1 0919  
                          _OSCCON3 091B                     _SSP2CLKPPSbits 0E1D  
                          _OSCTUNE 091E                            _SSP1ADD 0212  
                          _SSP2BUF 0219          __end_of_BME280_readS16_LE 0972  
             ?_BME280_readHumidity 0030               ?_BME280_readPressure 0030  
             BME280_read16_LE@temp 0027                            _LireLux 0C19  
                   ??_BH1750_Write 0072                        _BH1750_Read 0A81  
         _BME280_readPressure$1244 0048                          ?_spiWrite 0070  
                  __size_of___lmul 002F                            ___ftdiv 0E59  
                          ___lldiv 0006                            ___fttol 0DD2  
                BH1750_Write@data1 0074                         ??___altoft 007C  
                       ??___ftpack 0075                         ??___lltoft 007C  
                          __ptext1 093E                            __ptext2 09A9  
                          __ptext3 0F02                            __ptext4 0968  
                          __ptext5 09F1                            __ptext6 0972  
                          __ptext7 0930                            __ptext8 0957  
                          __ptext9 0B86                         ??___lwtoft 007B  
            _OSCILLATOR_Initialize 095F           ??_PIN_MANAGER_Initialize 0070  
         __size_of_I2C_Master_Init 002F           __size_of_I2C_Master_Read 0022  
                          _spiInit 09A9           __size_of_I2C_Master_Wait 0008  
         __size_of_I2C_Master_Stop 0005              ??_BME280_readHumidity 0033  
       __size_of_SYSTEM_Initialize 000F                            clrloop0 094A  
                          main@lux 006E               end_of_initialization 07FD  
        __size_of_BME280_read16_LE 001B              ??_BME280_readPressure 0033  
                _EUSART_Initialize 09D8          __size_of_I2C_Master_Start 0005  
        __size_of_I2C_Master_Write 0006                    ___lldiv@divisor 0070  
                 BME280_read24@reg 0020                   BME280_read16@reg 007A  
                  ___lldiv@counter 007D                 ?_EUSART_Initialize 0070  
                 I2C_Master_Init@c 0020                         ??_spiWrite 0070  
                 I2C_Master_Read@a 0070                   BME280_read8@temp 0079  
              ??_EUSART_Initialize 0070                   ??_WDT_Initialize 0070  
               BME280_write8@value 0072                          _TRISAbits 008C  
                        _TRISCbits 008E         __size_of_BME280_readS16_LE 000A  
               _BME280_goForceMode 0994                        spiWrite@dat 0070  
                 __CFG_FEXTOSC$OFF 0000                          _RXPPSbits 0E24  
        __end_of_EUSART_Initialize 09F1                        ___ftdiv@exp 002E  
              ?_BME280_goForceMode 0070             BME280_goForceMode@mode 007B  
                   __end_of___lmul 0ADE             ?_OSCILLATOR_Initialize 0070  
             ??_BME280_goForceMode 007A                start_initialization 07F6  
             __end_of_BH1750_Write 09D8    __size_of_PIN_MANAGER_Initialize 0044  
                    ?_BME280_read8 0070                  ??_I2C_Master_Init 0024  
                ??_I2C_Master_Read 0072                  ??_I2C_Master_Wait 0070  
                ??_I2C_Master_Stop 0070               BME280_readS16_LE@reg 007D  
         ??_BME280_readTemperature 0033            ?_readSensorCoefficients 0070  
                 __CFG_LPBOREN$OFF 0000                   ??_PMD_Initialize 0070  
                         ??___lmul 0078              __end_of_BME280_read16 0C19  
            __end_of_BME280_read24 0DD2              __end_of_BME280_write8 0A81  
                 BME280_write8@reg 0075                  __size_of___altoft 003D  
                __size_of___ftpack 0064                  __size_of___lltoft 0028  
                        ___latbits 0002                  __size_of___lwtoft 0013  
                    __pcstackBANK0 0020                     ??_BME280_read8 0076  
       __size_of_EUSART_Initialize 0019                   _BME280_read16_LE 09F1  
   __end_of_readSensorCoefficients 1000                          __pnvBANK1 00DA  
                 _I2C_Master_Start 0934                           ?_LireLux 003E  
                 _I2C_Master_Write 0943                       ?_BH1750_Read 0076  
           _PIN_MANAGER_Initialize 0B86                           ?___ftdiv 0020  
                         ?___lldiv 0070                           ?___fttol 0030  
                     _eusartRxHead 00B6                       _eusartTxHead 00B8  
                     _eusartRxTail 00B5                       _eusartTxTail 00B7  
                __size_of_spiWrite 0005            _eusartTxBufferRemaining 00DA  
                         _BAUD1CON 019F                BME280_read16_LE@reg 0026  
                         ?_spiInit 0070                     _eusartRxBuffer 00A0  
             spiInit@sTransmitEdge 0072                     _eusartTxBuffer 00A8  
                        clear_ram0 0949                           _PIE1bits 0091  
  __size_of_BME280_readTemperature 01A2                 spiInit@sDataSample 0070  
                  BME280_read8@reg 0078                           _SSP1CON1 0215  
                         _SSP1CON2 0216                           _SSP2CON1 021D  
                         _SSP1STAT 0214                           _SSP2STAT 021C  
            __size_of_BH1750_Write 0018        __end_of_BME280_readHumidity 0452  
                LireLux@resolution 0041        __end_of_BME280_readPressure 07F6  
              I2C_Master_Read@temp 0074                  ___lmul@multiplier 0070  
                 __size_of_LireLux 0062                       _BH1750_Write 09C0  
             __end_of_BME280_read8 0B49            ??_OSCILLATOR_Initialize 0070  
                 __size_of___ftdiv 00A9                   __size_of___lldiv 0052  
                         ___altoft 0B49                   __size_of___fttol 0087  
                         ___ftpack 0C7B                           ___lltoft 0A2E  
                         ___lwtoft 0981                           _cal_data 00B9  
           _BME280_readTemperature 0058                    _I2C_Master_Init 0ADE  
                  _I2C_Master_Read 0A0C                    _I2C_Master_Wait 094F  
                  _I2C_Master_Stop 0939                           __ptext10 095F  
                         __ptext11 09D8                           __ptext20 0A2E  
                         __ptext12 0C19                           __ptext21 0006  
                         __ptext13 0981                           __ptext30 0A56  
                         __ptext22 0D4C                           __ptext14 0DD2  
                         __ptext31 0B0D                           __ptext23 01FA  
                         __ptext15 09C0                           __ptext32 0943  
                         __ptext24 0AAF                           __ptext16 0A81  
                         __ptext33 0939                           __ptext25 0E59  
                         __ptext17 0ADE                           __ptext34 0934  
                         __ptext26 0B49                           __ptext18 0058  
                         __ptext35 0A0C                           __ptext27 0C7B  
                         __ptext19 0452                           __ptext36 094F  
                         __ptext28 0BCA                           __ptext29 0994  
                 __size_of_spiInit 0017                       _SSP1CON2bits 0216  
                    __size_of_main 006D                         _RA4PPSbits 0E94  
                       _RC0PPSbits 0EA0                         _RA5PPSbits 0E95  
                       _RC2PPSbits 0EA2                           _spiWrite 093E  
                       _RC4PPSbits 0EA4               __size_of_BH1750_Read 002E  
                       _RC5PPSbits 0EA5                       spiInit@sType 0073  
                spiInit@sClockIdle 0071                       _SSP2STATbits 021C  
         __end_of_BME280_read16_LE 0A0C                    main@temperature 0065  
      __size_of_BME280_goForceMode 0015                     BH1750_Read@res 0078  
         __end_of_I2C_Master_Start 0939           __end_of_I2C_Master_Write 0949  
          __size_of_WDT_Initialize 0004                   ___lldiv@dividend 0074  
          ?_PIN_MANAGER_Initialize 0070                  __CFG_CLKOUTEN$OFF 0000  
                BME280_read24@temp 0021                  BME280_read16@temp 007B  
         _BME280_readHumidity$1240 0048           _BME280_readHumidity$1241 004C  
         _BME280_readHumidity$1242 0050           _BME280_readHumidity$1243 0054  
         _BME280_readHumidity$1239 005B               BME280_readHumidity@h 0058  
          __end_of_I2C_Master_Init 0B0D            __end_of_I2C_Master_Read 0A2E  
          __end_of_I2C_Master_Wait 0957            __end_of_I2C_Master_Stop 093E  
                 ___lldiv@quotient 0079                  I2C_Master_Write@d 0070  
         BME280_readPressure@adc_P 0044                         _TX1STAbits 019E  
   __end_of_PIN_MANAGER_Initialize 0BCA             __size_of_BME280_read16 004F  
           __size_of_BME280_read24 0086            BME280_readPressure@var1 0054  
          BME280_readPressure@var2 004C              __size_of_BME280_read8 003C  
           __size_of_BME280_write8 002B               BME280_readPressure@p 0050  
