

Microchip Technology PIC LITE Macro Assembler V1.45 build -152302408 
                                                                                               Sun May  6 15:21:31 2018

Microchip Technology Omniscient Code Generator v1.45 (Free mode) build 201711160504
     1                           	processor	16F18325
     2                           	opt	pw 120
     3                           	opt	lm
     4                           	psect	stringtext1,global,class=STRCODE,delta=2
     5                           	psect	stringtext2,global,class=STRCODE,delta=2
     6                           	psect	stringtext3,global,class=STRCODE,delta=2
     7                           	psect	cinit,global,class=CODE,merge=1,delta=2
     8                           	psect	bssBANK0,global,class=BANK0,space=1,delta=1
     9                           	psect	bssBANK1,global,class=BANK1,space=1,delta=1
    10                           	psect	clrtext,global,class=CODE,delta=2
    11                           	psect	cstackBANK1,global,class=BANK1,space=1,delta=1
    12                           	psect	cstackCOMMON,global,class=COMMON,space=1,delta=1
    13                           	psect	cstackBANK0,global,class=BANK0,space=1,delta=1
    14                           	psect	maintext,global,class=CODE,merge=1,split=1,delta=2
    15                           	psect	text1,local,class=CODE,merge=1,delta=2
    16                           	psect	text2,local,class=CODE,merge=1,delta=2
    17                           	psect	text3,local,class=CODE,merge=1,delta=2
    18                           	psect	text4,local,class=CODE,merge=1,delta=2
    19                           	psect	text5,local,class=CODE,merge=1,delta=2
    20                           	psect	text6,local,class=CODE,merge=1,delta=2
    21                           	psect	text7,local,class=CODE,merge=1,delta=2
    22                           	psect	text8,local,class=CODE,merge=1,delta=2
    23                           	psect	text9,local,class=CODE,merge=1,delta=2
    24                           	psect	text10,local,class=CODE,merge=1,delta=2
    25                           	psect	text11,local,class=CODE,merge=1,delta=2
    26                           	psect	text12,local,class=CODE,merge=1,delta=2
    27                           	psect	text13,local,class=CODE,merge=1,delta=2
    28                           	psect	text14,local,class=CODE,merge=1,delta=2,group=2
    29                           	psect	text15,local,class=CODE,merge=1,delta=2,group=2
    30                           	psect	text16,local,class=CODE,merge=1,delta=2
    31                           	psect	text17,local,class=CODE,merge=1,delta=2
    32                           	psect	text18,local,class=CODE,merge=1,inline,delta=2
    33                           	psect	text19,local,class=CODE,merge=1,inline,delta=2
    34                           	psect	text20,local,class=CODE,merge=1,inline,delta=2
    35                           	psect	text21,local,class=CODE,merge=1,delta=2
    36                           	psect	text22,local,class=CODE,merge=1,delta=2
    37                           	psect	text23,local,class=CODE,merge=1,delta=2,group=2
    38                           	psect	text24,local,class=CODE,merge=1,delta=2,group=2
    39                           	psect	text25,local,class=CODE,merge=1,inline,delta=2
    40                           	psect	text26,local,class=CODE,merge=1,delta=2
    41                           	psect	text27,local,class=CODE,merge=1,delta=2,group=2
    42                           	psect	text28,local,class=CODE,merge=1,delta=2,group=2
    43                           	psect	text29,local,class=CODE,merge=1,delta=2,group=2
    44                           	psect	text30,local,class=CODE,merge=1,delta=2,group=2
    45                           	psect	text31,local,class=CODE,merge=1,inline,delta=2
    46                           	psect	text32,local,class=CODE,merge=1,delta=2
    47                           	psect	text33,local,class=CODE,merge=1,inline,delta=2
    48                           	psect	text34,local,class=CODE,merge=1,inline,delta=2
    49                           	psect	text35,local,class=CODE,merge=1,delta=2
    50                           	psect	text36,local,class=CODE,merge=1,delta=2
    51                           	psect	text37,local,class=CODE,merge=1,delta=2
    52                           	psect	text38,local,class=CODE,merge=1,delta=2
    53                           	psect	text39,local,class=CODE,merge=1,delta=2
    54                           	psect	intentry,global,class=CODE,delta=2
    55                           	psect	text41,local,class=CODE,merge=1,delta=2
    56                           	psect	text42,local,class=CODE,merge=1,delta=2
    57                           	psect	text43,local,class=CODE,merge=1,delta=2
    58                           	psect	text44,local,class=CODE,merge=1,delta=2
    59                           	psect	text45,local,class=CODE,merge=1,delta=2
    60                           	dabs	1,0x7E,2
    61  0000                     
    62                           ; Version 1.45
    63                           ; Generated 16/11/2017 GMT
    64                           ; 
    65                           ; Copyright © 2017, Microchip Technology Inc. and its subsidiaries ("Microchip")
    66                           ; All rights reserved.
    67                           ; 
    68                           ; This software is developed by Microchip Technology Inc. and its subsidiaries ("Microch
      +                          ip").
    69                           ; 
    70                           ; Redistribution and use in source and binary forms, with or without modification, are
    71                           ; permitted provided that the following conditions are met:
    72                           ; 
    73                           ;     1. Redistributions of source code must retain the above copyright notice, this lis
      +                          t of
    74                           ;        conditions and the following disclaimer.
    75                           ; 
    76                           ;     2. Redistributions in binary form must reproduce the above copyright notice, this 
      +                          list
    77                           ;        of conditions and the following disclaimer in the documentation and/or other
    78                           ;        materials provided with the distribution.
    79                           ; 
    80                           ;     3. Microchip's name may not be used to endorse or promote products derived from th
      +                          is
    81                           ;        software without specific prior written permission.
    82                           ; 
    83                           ; THIS SOFTWARE IS PROVIDED BY MICROCHIP "AS IS" AND ANY EXPRESS OR IMPLIED WARRANTIES,
    84                           ; INCLUDING, BUT NOT LIMITED TO, THE IMPLIED WARRANTIES OF MERCHANTABILITY AND FITNESS F
      +                          OR
    85                           ; PURPOSE ARE DISCLAIMED.  IN NO EVENT SHALL MICROCHIP BE LIABLE FOR ANY DIRECT, INDIREC
      +                          T,
    86                           ; INCIDENTAL, SPECIAL, EXEMPLARY, OR CONSEQUENTIAL DAMAGES (INCLUDING BUT NOT LIMITED TO
    87                           ; PROCUREMENT OF SUBSTITUTE GOODS OR SERVICES; LOSS OF USE, DATA OR PROFITS; OR BUSINESS
    88                           ; INTERRUPTION) HOWSOEVER CAUSED AND ON ANY THEORY OF LIABILITY, WHETHER IN CONTRACT, ST
      +                          RICT
    89                           ; LIABILITY, OR TORT (INCLUDING NEGLIGENCE OR OTHERWISE) ARISING IN ANY WAY OUT OF THE U
      +                          SE OF
    90                           ; THIS SOFTWARE, EVEN IF ADVISED OF THE POSSIBILITY OF SUCH DAMAGE.
    91                           ; 
    92                           ; 
    93                           ; Code-generator required, PIC16F18325 Definitions
    94                           ; 
    95                           ; SFR Addresses
    96  0000                     	;# 
    97  0001                     	;# 
    98  0002                     	;# 
    99  0003                     	;# 
   100  0004                     	;# 
   101  0005                     	;# 
   102  0006                     	;# 
   103  0007                     	;# 
   104  0008                     	;# 
   105  0009                     	;# 
   106  000A                     	;# 
   107  000B                     	;# 
   108  000C                     	;# 
   109  000E                     	;# 
   110  0010                     	;# 
   111  0011                     	;# 
   112  0012                     	;# 
   113  0013                     	;# 
   114  0014                     	;# 
   115  0015                     	;# 
   116  0015                     	;# 
   117  0016                     	;# 
   118  0016                     	;# 
   119  0017                     	;# 
   120  0018                     	;# 
   121  0019                     	;# 
   122  0019                     	;# 
   123  001A                     	;# 
   124  001B                     	;# 
   125  001C                     	;# 
   126  001D                     	;# 
   127  001E                     	;# 
   128  001F                     	;# 
   129  008C                     	;# 
   130  008E                     	;# 
   131  0090                     	;# 
   132  0091                     	;# 
   133  0092                     	;# 
   134  0093                     	;# 
   135  0094                     	;# 
   136  0097                     	;# 
   137  009B                     	;# 
   138  009B                     	;# 
   139  009C                     	;# 
   140  009D                     	;# 
   141  009E                     	;# 
   142  009F                     	;# 
   143  010C                     	;# 
   144  010E                     	;# 
   145  0111                     	;# 
   146  0112                     	;# 
   147  0113                     	;# 
   148  0114                     	;# 
   149  0115                     	;# 
   150  0116                     	;# 
   151  0117                     	;# 
   152  0118                     	;# 
   153  0119                     	;# 
   154  018C                     	;# 
   155  018E                     	;# 
   156  0197                     	;# 
   157  0199                     	;# 
   158  0199                     	;# 
   159  0199                     	;# 
   160  019A                     	;# 
   161  019A                     	;# 
   162  019A                     	;# 
   163  019B                     	;# 
   164  019B                     	;# 
   165  019B                     	;# 
   166  019B                     	;# 
   167  019B                     	;# 
   168  019C                     	;# 
   169  019C                     	;# 
   170  019C                     	;# 
   171  019D                     	;# 
   172  019D                     	;# 
   173  019D                     	;# 
   174  019E                     	;# 
   175  019E                     	;# 
   176  019E                     	;# 
   177  019F                     	;# 
   178  019F                     	;# 
   179  019F                     	;# 
   180  019F                     	;# 
   181  019F                     	;# 
   182  020C                     	;# 
   183  020E                     	;# 
   184  0211                     	;# 
   185  0211                     	;# 
   186  0212                     	;# 
   187  0212                     	;# 
   188  0213                     	;# 
   189  0213                     	;# 
   190  0214                     	;# 
   191  0214                     	;# 
   192  0215                     	;# 
   193  0215                     	;# 
   194  0215                     	;# 
   195  0215                     	;# 
   196  0216                     	;# 
   197  0216                     	;# 
   198  0217                     	;# 
   199  0217                     	;# 
   200  0219                     	;# 
   201  021A                     	;# 
   202  021B                     	;# 
   203  021C                     	;# 
   204  021D                     	;# 
   205  021D                     	;# 
   206  021E                     	;# 
   207  021F                     	;# 
   208  028C                     	;# 
   209  028E                     	;# 
   210  0291                     	;# 
   211  0291                     	;# 
   212  0292                     	;# 
   213  0293                     	;# 
   214  0294                     	;# 
   215  0295                     	;# 
   216  0295                     	;# 
   217  0296                     	;# 
   218  0297                     	;# 
   219  0298                     	;# 
   220  029F                     	;# 
   221  030C                     	;# 
   222  030E                     	;# 
   223  0311                     	;# 
   224  0311                     	;# 
   225  0312                     	;# 
   226  0313                     	;# 
   227  0314                     	;# 
   228  0315                     	;# 
   229  0315                     	;# 
   230  0316                     	;# 
   231  0317                     	;# 
   232  0318                     	;# 
   233  038C                     	;# 
   234  038E                     	;# 
   235  0391                     	;# 
   236  0392                     	;# 
   237  0393                     	;# 
   238  0397                     	;# 
   239  0398                     	;# 
   240  0399                     	;# 
   241  039A                     	;# 
   242  039C                     	;# 
   243  039D                     	;# 
   244  039E                     	;# 
   245  039F                     	;# 
   246  0411                     	;# 
   247  0411                     	;# 
   248  0412                     	;# 
   249  0413                     	;# 
   250  0414                     	;# 
   251  0415                     	;# 
   252  0416                     	;# 
   253  0417                     	;# 
   254  0418                     	;# 
   255  0418                     	;# 
   256  0419                     	;# 
   257  041A                     	;# 
   258  041B                     	;# 
   259  041C                     	;# 
   260  041D                     	;# 
   261  041E                     	;# 
   262  041F                     	;# 
   263  0498                     	;# 
   264  0498                     	;# 
   265  0499                     	;# 
   266  049A                     	;# 
   267  049B                     	;# 
   268  049B                     	;# 
   269  049C                     	;# 
   270  049D                     	;# 
   271  049E                     	;# 
   272  049F                     	;# 
   273  0617                     	;# 
   274  0618                     	;# 
   275  0619                     	;# 
   276  0619                     	;# 
   277  061A                     	;# 
   278  061B                     	;# 
   279  061C                     	;# 
   280  061C                     	;# 
   281  061F                     	;# 
   282  0691                     	;# 
   283  0692                     	;# 
   284  0693                     	;# 
   285  0694                     	;# 
   286  0695                     	;# 
   287  0696                     	;# 
   288  0697                     	;# 
   289  0698                     	;# 
   290  0699                     	;# 
   291  0711                     	;# 
   292  0712                     	;# 
   293  0713                     	;# 
   294  0714                     	;# 
   295  0715                     	;# 
   296  0716                     	;# 
   297  0717                     	;# 
   298  0718                     	;# 
   299  0719                     	;# 
   300  0891                     	;# 
   301  0891                     	;# 
   302  0891                     	;# 
   303  0891                     	;# 
   304  0891                     	;# 
   305  0891                     	;# 
   306  0892                     	;# 
   307  0892                     	;# 
   308  0892                     	;# 
   309  0893                     	;# 
   310  0893                     	;# 
   311  0893                     	;# 
   312  0893                     	;# 
   313  0893                     	;# 
   314  0893                     	;# 
   315  0894                     	;# 
   316  0894                     	;# 
   317  0894                     	;# 
   318  0895                     	;# 
   319  0895                     	;# 
   320  0895                     	;# 
   321  0896                     	;# 
   322  0896                     	;# 
   323  0896                     	;# 
   324  089B                     	;# 
   325  0911                     	;# 
   326  0912                     	;# 
   327  0913                     	;# 
   328  0914                     	;# 
   329  0915                     	;# 
   330  0916                     	;# 
   331  0918                     	;# 
   332  0919                     	;# 
   333  091A                     	;# 
   334  091B                     	;# 
   335  091C                     	;# 
   336  091D                     	;# 
   337  091E                     	;# 
   338  091F                     	;# 
   339  0E0F                     	;# 
   340  0E10                     	;# 
   341  0E11                     	;# 
   342  0E12                     	;# 
   343  0E13                     	;# 
   344  0E14                     	;# 
   345  0E15                     	;# 
   346  0E16                     	;# 
   347  0E17                     	;# 
   348  0E18                     	;# 
   349  0E19                     	;# 
   350  0E1A                     	;# 
   351  0E1B                     	;# 
   352  0E1C                     	;# 
   353  0E1D                     	;# 
   354  0E1E                     	;# 
   355  0E1F                     	;# 
   356  0E20                     	;# 
   357  0E21                     	;# 
   358  0E22                     	;# 
   359  0E24                     	;# 
   360  0E25                     	;# 
   361  0E28                     	;# 
   362  0E29                     	;# 
   363  0E2A                     	;# 
   364  0E2B                     	;# 
   365  0E2C                     	;# 
   366  0E2D                     	;# 
   367  0E2E                     	;# 
   368  0E2F                     	;# 
   369  0E90                     	;# 
   370  0E91                     	;# 
   371  0E92                     	;# 
   372  0E94                     	;# 
   373  0E95                     	;# 
   374  0EA0                     	;# 
   375  0EA1                     	;# 
   376  0EA2                     	;# 
   377  0EA3                     	;# 
   378  0EA4                     	;# 
   379  0EA5                     	;# 
   380  0F0F                     	;# 
   381  0F10                     	;# 
   382  0F11                     	;# 
   383  0F12                     	;# 
   384  0F13                     	;# 
   385  0F14                     	;# 
   386  0F15                     	;# 
   387  0F16                     	;# 
   388  0F17                     	;# 
   389  0F18                     	;# 
   390  0F19                     	;# 
   391  0F1A                     	;# 
   392  0F1B                     	;# 
   393  0F1C                     	;# 
   394  0F1D                     	;# 
   395  0F1E                     	;# 
   396  0F1F                     	;# 
   397  0F20                     	;# 
   398  0F21                     	;# 
   399  0F22                     	;# 
   400  0F23                     	;# 
   401  0F24                     	;# 
   402  0F25                     	;# 
   403  0F26                     	;# 
   404  0F27                     	;# 
   405  0F28                     	;# 
   406  0F29                     	;# 
   407  0F2A                     	;# 
   408  0F2B                     	;# 
   409  0F2C                     	;# 
   410  0F2D                     	;# 
   411  0F2E                     	;# 
   412  0F2F                     	;# 
   413  0F30                     	;# 
   414  0F31                     	;# 
   415  0F32                     	;# 
   416  0F33                     	;# 
   417  0F34                     	;# 
   418  0F35                     	;# 
   419  0F36                     	;# 
   420  0F37                     	;# 
   421  0FE4                     	;# 
   422  0FE5                     	;# 
   423  0FE6                     	;# 
   424  0FE7                     	;# 
   425  0FE8                     	;# 
   426  0FE9                     	;# 
   427  0FEA                     	;# 
   428  0FEB                     	;# 
   429  0FED                     	;# 
   430  0FEE                     	;# 
   431  0FEF                     	;# 
   432  0000                     	;# 
   433  0001                     	;# 
   434  0002                     	;# 
   435  0003                     	;# 
   436  0004                     	;# 
   437  0005                     	;# 
   438  0006                     	;# 
   439  0007                     	;# 
   440  0008                     	;# 
   441  0009                     	;# 
   442  000A                     	;# 
   443  000B                     	;# 
   444  000C                     	;# 
   445  000E                     	;# 
   446  0010                     	;# 
   447  0011                     	;# 
   448  0012                     	;# 
   449  0013                     	;# 
   450  0014                     	;# 
   451  0015                     	;# 
   452  0015                     	;# 
   453  0016                     	;# 
   454  0016                     	;# 
   455  0017                     	;# 
   456  0018                     	;# 
   457  0019                     	;# 
   458  0019                     	;# 
   459  001A                     	;# 
   460  001B                     	;# 
   461  001C                     	;# 
   462  001D                     	;# 
   463  001E                     	;# 
   464  001F                     	;# 
   465  008C                     	;# 
   466  008E                     	;# 
   467  0090                     	;# 
   468  0091                     	;# 
   469  0092                     	;# 
   470  0093                     	;# 
   471  0094                     	;# 
   472  0097                     	;# 
   473  009B                     	;# 
   474  009B                     	;# 
   475  009C                     	;# 
   476  009D                     	;# 
   477  009E                     	;# 
   478  009F                     	;# 
   479  010C                     	;# 
   480  010E                     	;# 
   481  0111                     	;# 
   482  0112                     	;# 
   483  0113                     	;# 
   484  0114                     	;# 
   485  0115                     	;# 
   486  0116                     	;# 
   487  0117                     	;# 
   488  0118                     	;# 
   489  0119                     	;# 
   490  018C                     	;# 
   491  018E                     	;# 
   492  0197                     	;# 
   493  0199                     	;# 
   494  0199                     	;# 
   495  0199                     	;# 
   496  019A                     	;# 
   497  019A                     	;# 
   498  019A                     	;# 
   499  019B                     	;# 
   500  019B                     	;# 
   501  019B                     	;# 
   502  019B                     	;# 
   503  019B                     	;# 
   504  019C                     	;# 
   505  019C                     	;# 
   506  019C                     	;# 
   507  019D                     	;# 
   508  019D                     	;# 
   509  019D                     	;# 
   510  019E                     	;# 
   511  019E                     	;# 
   512  019E                     	;# 
   513  019F                     	;# 
   514  019F                     	;# 
   515  019F                     	;# 
   516  019F                     	;# 
   517  019F                     	;# 
   518  020C                     	;# 
   519  020E                     	;# 
   520  0211                     	;# 
   521  0211                     	;# 
   522  0212                     	;# 
   523  0212                     	;# 
   524  0213                     	;# 
   525  0213                     	;# 
   526  0214                     	;# 
   527  0214                     	;# 
   528  0215                     	;# 
   529  0215                     	;# 
   530  0215                     	;# 
   531  0215                     	;# 
   532  0216                     	;# 
   533  0216                     	;# 
   534  0217                     	;# 
   535  0217                     	;# 
   536  0219                     	;# 
   537  021A                     	;# 
   538  021B                     	;# 
   539  021C                     	;# 
   540  021D                     	;# 
   541  021D                     	;# 
   542  021E                     	;# 
   543  021F                     	;# 
   544  028C                     	;# 
   545  028E                     	;# 
   546  0291                     	;# 
   547  0291                     	;# 
   548  0292                     	;# 
   549  0293                     	;# 
   550  0294                     	;# 
   551  0295                     	;# 
   552  0295                     	;# 
   553  0296                     	;# 
   554  0297                     	;# 
   555  0298                     	;# 
   556  029F                     	;# 
   557  030C                     	;# 
   558  030E                     	;# 
   559  0311                     	;# 
   560  0311                     	;# 
   561  0312                     	;# 
   562  0313                     	;# 
   563  0314                     	;# 
   564  0315                     	;# 
   565  0315                     	;# 
   566  0316                     	;# 
   567  0317                     	;# 
   568  0318                     	;# 
   569  038C                     	;# 
   570  038E                     	;# 
   571  0391                     	;# 
   572  0392                     	;# 
   573  0393                     	;# 
   574  0397                     	;# 
   575  0398                     	;# 
   576  0399                     	;# 
   577  039A                     	;# 
   578  039C                     	;# 
   579  039D                     	;# 
   580  039E                     	;# 
   581  039F                     	;# 
   582  0411                     	;# 
   583  0411                     	;# 
   584  0412                     	;# 
   585  0413                     	;# 
   586  0414                     	;# 
   587  0415                     	;# 
   588  0416                     	;# 
   589  0417                     	;# 
   590  0418                     	;# 
   591  0418                     	;# 
   592  0419                     	;# 
   593  041A                     	;# 
   594  041B                     	;# 
   595  041C                     	;# 
   596  041D                     	;# 
   597  041E                     	;# 
   598  041F                     	;# 
   599  0498                     	;# 
   600  0498                     	;# 
   601  0499                     	;# 
   602  049A                     	;# 
   603  049B                     	;# 
   604  049B                     	;# 
   605  049C                     	;# 
   606  049D                     	;# 
   607  049E                     	;# 
   608  049F                     	;# 
   609  0617                     	;# 
   610  0618                     	;# 
   611  0619                     	;# 
   612  0619                     	;# 
   613  061A                     	;# 
   614  061B                     	;# 
   615  061C                     	;# 
   616  061C                     	;# 
   617  061F                     	;# 
   618  0691                     	;# 
   619  0692                     	;# 
   620  0693                     	;# 
   621  0694                     	;# 
   622  0695                     	;# 
   623  0696                     	;# 
   624  0697                     	;# 
   625  0698                     	;# 
   626  0699                     	;# 
   627  0711                     	;# 
   628  0712                     	;# 
   629  0713                     	;# 
   630  0714                     	;# 
   631  0715                     	;# 
   632  0716                     	;# 
   633  0717                     	;# 
   634  0718                     	;# 
   635  0719                     	;# 
   636  0891                     	;# 
   637  0891                     	;# 
   638  0891                     	;# 
   639  0891                     	;# 
   640  0891                     	;# 
   641  0891                     	;# 
   642  0892                     	;# 
   643  0892                     	;# 
   644  0892                     	;# 
   645  0893                     	;# 
   646  0893                     	;# 
   647  0893                     	;# 
   648  0893                     	;# 
   649  0893                     	;# 
   650  0893                     	;# 
   651  0894                     	;# 
   652  0894                     	;# 
   653  0894                     	;# 
   654  0895                     	;# 
   655  0895                     	;# 
   656  0895                     	;# 
   657  0896                     	;# 
   658  0896                     	;# 
   659  0896                     	;# 
   660  089B                     	;# 
   661  0911                     	;# 
   662  0912                     	;# 
   663  0913                     	;# 
   664  0914                     	;# 
   665  0915                     	;# 
   666  0916                     	;# 
   667  0918                     	;# 
   668  0919                     	;# 
   669  091A                     	;# 
   670  091B                     	;# 
   671  091C                     	;# 
   672  091D                     	;# 
   673  091E                     	;# 
   674  091F                     	;# 
   675  0E0F                     	;# 
   676  0E10                     	;# 
   677  0E11                     	;# 
   678  0E12                     	;# 
   679  0E13                     	;# 
   680  0E14                     	;# 
   681  0E15                     	;# 
   682  0E16                     	;# 
   683  0E17                     	;# 
   684  0E18                     	;# 
   685  0E19                     	;# 
   686  0E1A                     	;# 
   687  0E1B                     	;# 
   688  0E1C                     	;# 
   689  0E1D                     	;# 
   690  0E1E                     	;# 
   691  0E1F                     	;# 
   692  0E20                     	;# 
   693  0E21                     	;# 
   694  0E22                     	;# 
   695  0E24                     	;# 
   696  0E25                     	;# 
   697  0E28                     	;# 
   698  0E29                     	;# 
   699  0E2A                     	;# 
   700  0E2B                     	;# 
   701  0E2C                     	;# 
   702  0E2D                     	;# 
   703  0E2E                     	;# 
   704  0E2F                     	;# 
   705  0E90                     	;# 
   706  0E91                     	;# 
   707  0E92                     	;# 
   708  0E94                     	;# 
   709  0E95                     	;# 
   710  0EA0                     	;# 
   711  0EA1                     	;# 
   712  0EA2                     	;# 
   713  0EA3                     	;# 
   714  0EA4                     	;# 
   715  0EA5                     	;# 
   716  0F0F                     	;# 
   717  0F10                     	;# 
   718  0F11                     	;# 
   719  0F12                     	;# 
   720  0F13                     	;# 
   721  0F14                     	;# 
   722  0F15                     	;# 
   723  0F16                     	;# 
   724  0F17                     	;# 
   725  0F18                     	;# 
   726  0F19                     	;# 
   727  0F1A                     	;# 
   728  0F1B                     	;# 
   729  0F1C                     	;# 
   730  0F1D                     	;# 
   731  0F1E                     	;# 
   732  0F1F                     	;# 
   733  0F20                     	;# 
   734  0F21                     	;# 
   735  0F22                     	;# 
   736  0F23                     	;# 
   737  0F24                     	;# 
   738  0F25                     	;# 
   739  0F26                     	;# 
   740  0F27                     	;# 
   741  0F28                     	;# 
   742  0F29                     	;# 
   743  0F2A                     	;# 
   744  0F2B                     	;# 
   745  0F2C                     	;# 
   746  0F2D                     	;# 
   747  0F2E                     	;# 
   748  0F2F                     	;# 
   749  0F30                     	;# 
   750  0F31                     	;# 
   751  0F32                     	;# 
   752  0F33                     	;# 
   753  0F34                     	;# 
   754  0F35                     	;# 
   755  0F36                     	;# 
   756  0F37                     	;# 
   757  0FE4                     	;# 
   758  0FE5                     	;# 
   759  0FE6                     	;# 
   760  0FE7                     	;# 
   761  0FE8                     	;# 
   762  0FE9                     	;# 
   763  0FEA                     	;# 
   764  0FEB                     	;# 
   765  0FED                     	;# 
   766  0FEE                     	;# 
   767  0FEF                     	;# 
   768  0000                     	;# 
   769  0001                     	;# 
   770  0002                     	;# 
   771  0003                     	;# 
   772  0004                     	;# 
   773  0005                     	;# 
   774  0006                     	;# 
   775  0007                     	;# 
   776  0008                     	;# 
   777  0009                     	;# 
   778  000A                     	;# 
   779  000B                     	;# 
   780  000C                     	;# 
   781  000E                     	;# 
   782  0010                     	;# 
   783  0011                     	;# 
   784  0012                     	;# 
   785  0013                     	;# 
   786  0014                     	;# 
   787  0015                     	;# 
   788  0015                     	;# 
   789  0016                     	;# 
   790  0016                     	;# 
   791  0017                     	;# 
   792  0018                     	;# 
   793  0019                     	;# 
   794  0019                     	;# 
   795  001A                     	;# 
   796  001B                     	;# 
   797  001C                     	;# 
   798  001D                     	;# 
   799  001E                     	;# 
   800  001F                     	;# 
   801  008C                     	;# 
   802  008E                     	;# 
   803  0090                     	;# 
   804  0091                     	;# 
   805  0092                     	;# 
   806  0093                     	;# 
   807  0094                     	;# 
   808  0097                     	;# 
   809  009B                     	;# 
   810  009B                     	;# 
   811  009C                     	;# 
   812  009D                     	;# 
   813  009E                     	;# 
   814  009F                     	;# 
   815  010C                     	;# 
   816  010E                     	;# 
   817  0111                     	;# 
   818  0112                     	;# 
   819  0113                     	;# 
   820  0114                     	;# 
   821  0115                     	;# 
   822  0116                     	;# 
   823  0117                     	;# 
   824  0118                     	;# 
   825  0119                     	;# 
   826  018C                     	;# 
   827  018E                     	;# 
   828  0197                     	;# 
   829  0199                     	;# 
   830  0199                     	;# 
   831  0199                     	;# 
   832  019A                     	;# 
   833  019A                     	;# 
   834  019A                     	;# 
   835  019B                     	;# 
   836  019B                     	;# 
   837  019B                     	;# 
   838  019B                     	;# 
   839  019B                     	;# 
   840  019C                     	;# 
   841  019C                     	;# 
   842  019C                     	;# 
   843  019D                     	;# 
   844  019D                     	;# 
   845  019D                     	;# 
   846  019E                     	;# 
   847  019E                     	;# 
   848  019E                     	;# 
   849  019F                     	;# 
   850  019F                     	;# 
   851  019F                     	;# 
   852  019F                     	;# 
   853  019F                     	;# 
   854  020C                     	;# 
   855  020E                     	;# 
   856  0211                     	;# 
   857  0211                     	;# 
   858  0212                     	;# 
   859  0212                     	;# 
   860  0213                     	;# 
   861  0213                     	;# 
   862  0214                     	;# 
   863  0214                     	;# 
   864  0215                     	;# 
   865  0215                     	;# 
   866  0215                     	;# 
   867  0215                     	;# 
   868  0216                     	;# 
   869  0216                     	;# 
   870  0217                     	;# 
   871  0217                     	;# 
   872  0219                     	;# 
   873  021A                     	;# 
   874  021B                     	;# 
   875  021C                     	;# 
   876  021D                     	;# 
   877  021D                     	;# 
   878  021E                     	;# 
   879  021F                     	;# 
   880  028C                     	;# 
   881  028E                     	;# 
   882  0291                     	;# 
   883  0291                     	;# 
   884  0292                     	;# 
   885  0293                     	;# 
   886  0294                     	;# 
   887  0295                     	;# 
   888  0295                     	;# 
   889  0296                     	;# 
   890  0297                     	;# 
   891  0298                     	;# 
   892  029F                     	;# 
   893  030C                     	;# 
   894  030E                     	;# 
   895  0311                     	;# 
   896  0311                     	;# 
   897  0312                     	;# 
   898  0313                     	;# 
   899  0314                     	;# 
   900  0315                     	;# 
   901  0315                     	;# 
   902  0316                     	;# 
   903  0317                     	;# 
   904  0318                     	;# 
   905  038C                     	;# 
   906  038E                     	;# 
   907  0391                     	;# 
   908  0392                     	;# 
   909  0393                     	;# 
   910  0397                     	;# 
   911  0398                     	;# 
   912  0399                     	;# 
   913  039A                     	;# 
   914  039C                     	;# 
   915  039D                     	;# 
   916  039E                     	;# 
   917  039F                     	;# 
   918  0411                     	;# 
   919  0411                     	;# 
   920  0412                     	;# 
   921  0413                     	;# 
   922  0414                     	;# 
   923  0415                     	;# 
   924  0416                     	;# 
   925  0417                     	;# 
   926  0418                     	;# 
   927  0418                     	;# 
   928  0419                     	;# 
   929  041A                     	;# 
   930  041B                     	;# 
   931  041C                     	;# 
   932  041D                     	;# 
   933  041E                     	;# 
   934  041F                     	;# 
   935  0498                     	;# 
   936  0498                     	;# 
   937  0499                     	;# 
   938  049A                     	;# 
   939  049B                     	;# 
   940  049B                     	;# 
   941  049C                     	;# 
   942  049D                     	;# 
   943  049E                     	;# 
   944  049F                     	;# 
   945  0617                     	;# 
   946  0618                     	;# 
   947  0619                     	;# 
   948  0619                     	;# 
   949  061A                     	;# 
   950  061B                     	;# 
   951  061C                     	;# 
   952  061C                     	;# 
   953  061F                     	;# 
   954  0691                     	;# 
   955  0692                     	;# 
   956  0693                     	;# 
   957  0694                     	;# 
   958  0695                     	;# 
   959  0696                     	;# 
   960  0697                     	;# 
   961  0698                     	;# 
   962  0699                     	;# 
   963  0711                     	;# 
   964  0712                     	;# 
   965  0713                     	;# 
   966  0714                     	;# 
   967  0715                     	;# 
   968  0716                     	;# 
   969  0717                     	;# 
   970  0718                     	;# 
   971  0719                     	;# 
   972  0891                     	;# 
   973  0891                     	;# 
   974  0891                     	;# 
   975  0891                     	;# 
   976  0891                     	;# 
   977  0891                     	;# 
   978  0892                     	;# 
   979  0892                     	;# 
   980  0892                     	;# 
   981  0893                     	;# 
   982  0893                     	;# 
   983  0893                     	;# 
   984  0893                     	;# 
   985  0893                     	;# 
   986  0893                     	;# 
   987  0894                     	;# 
   988  0894                     	;# 
   989  0894                     	;# 
   990  0895                     	;# 
   991  0895                     	;# 
   992  0895                     	;# 
   993  0896                     	;# 
   994  0896                     	;# 
   995  0896                     	;# 
   996  089B                     	;# 
   997  0911                     	;# 
   998  0912                     	;# 
   999  0913                     	;# 
  1000  0914                     	;# 
  1001  0915                     	;# 
  1002  0916                     	;# 
  1003  0918                     	;# 
  1004  0919                     	;# 
  1005  091A                     	;# 
  1006  091B                     	;# 
  1007  091C                     	;# 
  1008  091D                     	;# 
  1009  091E                     	;# 
  1010  091F                     	;# 
  1011  0E0F                     	;# 
  1012  0E10                     	;# 
  1013  0E11                     	;# 
  1014  0E12                     	;# 
  1015  0E13                     	;# 
  1016  0E14                     	;# 
  1017  0E15                     	;# 
  1018  0E16                     	;# 
  1019  0E17                     	;# 
  1020  0E18                     	;# 
  1021  0E19                     	;# 
  1022  0E1A                     	;# 
  1023  0E1B                     	;# 
  1024  0E1C                     	;# 
  1025  0E1D                     	;# 
  1026  0E1E                     	;# 
  1027  0E1F                     	;# 
  1028  0E20                     	;# 
  1029  0E21                     	;# 
  1030  0E22                     	;# 
  1031  0E24                     	;# 
  1032  0E25                     	;# 
  1033  0E28                     	;# 
  1034  0E29                     	;# 
  1035  0E2A                     	;# 
  1036  0E2B                     	;# 
  1037  0E2C                     	;# 
  1038  0E2D                     	;# 
  1039  0E2E                     	;# 
  1040  0E2F                     	;# 
  1041  0E90                     	;# 
  1042  0E91                     	;# 
  1043  0E92                     	;# 
  1044  0E94                     	;# 
  1045  0E95                     	;# 
  1046  0EA0                     	;# 
  1047  0EA1                     	;# 
  1048  0EA2                     	;# 
  1049  0EA3                     	;# 
  1050  0EA4                     	;# 
  1051  0EA5                     	;# 
  1052  0F0F                     	;# 
  1053  0F10                     	;# 
  1054  0F11                     	;# 
  1055  0F12                     	;# 
  1056  0F13                     	;# 
  1057  0F14                     	;# 
  1058  0F15                     	;# 
  1059  0F16                     	;# 
  1060  0F17                     	;# 
  1061  0F18                     	;# 
  1062  0F19                     	;# 
  1063  0F1A                     	;# 
  1064  0F1B                     	;# 
  1065  0F1C                     	;# 
  1066  0F1D                     	;# 
  1067  0F1E                     	;# 
  1068  0F1F                     	;# 
  1069  0F20                     	;# 
  1070  0F21                     	;# 
  1071  0F22                     	;# 
  1072  0F23                     	;# 
  1073  0F24                     	;# 
  1074  0F25                     	;# 
  1075  0F26                     	;# 
  1076  0F27                     	;# 
  1077  0F28                     	;# 
  1078  0F29                     	;# 
  1079  0F2A                     	;# 
  1080  0F2B                     	;# 
  1081  0F2C                     	;# 
  1082  0F2D                     	;# 
  1083  0F2E                     	;# 
  1084  0F2F                     	;# 
  1085  0F30                     	;# 
  1086  0F31                     	;# 
  1087  0F32                     	;# 
  1088  0F33                     	;# 
  1089  0F34                     	;# 
  1090  0F35                     	;# 
  1091  0F36                     	;# 
  1092  0F37                     	;# 
  1093  0FE4                     	;# 
  1094  0FE5                     	;# 
  1095  0FE6                     	;# 
  1096  0FE7                     	;# 
  1097  0FE8                     	;# 
  1098  0FE9                     	;# 
  1099  0FEA                     	;# 
  1100  0FEB                     	;# 
  1101  0FED                     	;# 
  1102  0FEE                     	;# 
  1103  0FEF                     	;# 
  1104  0000                     	;# 
  1105  0001                     	;# 
  1106  0002                     	;# 
  1107  0003                     	;# 
  1108  0004                     	;# 
  1109  0005                     	;# 
  1110  0006                     	;# 
  1111  0007                     	;# 
  1112  0008                     	;# 
  1113  0009                     	;# 
  1114  000A                     	;# 
  1115  000B                     	;# 
  1116  000C                     	;# 
  1117  000E                     	;# 
  1118  0010                     	;# 
  1119  0011                     	;# 
  1120  0012                     	;# 
  1121  0013                     	;# 
  1122  0014                     	;# 
  1123  0015                     	;# 
  1124  0015                     	;# 
  1125  0016                     	;# 
  1126  0016                     	;# 
  1127  0017                     	;# 
  1128  0018                     	;# 
  1129  0019                     	;# 
  1130  0019                     	;# 
  1131  001A                     	;# 
  1132  001B                     	;# 
  1133  001C                     	;# 
  1134  001D                     	;# 
  1135  001E                     	;# 
  1136  001F                     	;# 
  1137  008C                     	;# 
  1138  008E                     	;# 
  1139  0090                     	;# 
  1140  0091                     	;# 
  1141  0092                     	;# 
  1142  0093                     	;# 
  1143  0094                     	;# 
  1144  0097                     	;# 
  1145  009B                     	;# 
  1146  009B                     	;# 
  1147  009C                     	;# 
  1148  009D                     	;# 
  1149  009E                     	;# 
  1150  009F                     	;# 
  1151  010C                     	;# 
  1152  010E                     	;# 
  1153  0111                     	;# 
  1154  0112                     	;# 
  1155  0113                     	;# 
  1156  0114                     	;# 
  1157  0115                     	;# 
  1158  0116                     	;# 
  1159  0117                     	;# 
  1160  0118                     	;# 
  1161  0119                     	;# 
  1162  018C                     	;# 
  1163  018E                     	;# 
  1164  0197                     	;# 
  1165  0199                     	;# 
  1166  0199                     	;# 
  1167  0199                     	;# 
  1168  019A                     	;# 
  1169  019A                     	;# 
  1170  019A                     	;# 
  1171  019B                     	;# 
  1172  019B                     	;# 
  1173  019B                     	;# 
  1174  019B                     	;# 
  1175  019B                     	;# 
  1176  019C                     	;# 
  1177  019C                     	;# 
  1178  019C                     	;# 
  1179  019D                     	;# 
  1180  019D                     	;# 
  1181  019D                     	;# 
  1182  019E                     	;# 
  1183  019E                     	;# 
  1184  019E                     	;# 
  1185  019F                     	;# 
  1186  019F                     	;# 
  1187  019F                     	;# 
  1188  019F                     	;# 
  1189  019F                     	;# 
  1190  020C                     	;# 
  1191  020E                     	;# 
  1192  0211                     	;# 
  1193  0211                     	;# 
  1194  0212                     	;# 
  1195  0212                     	;# 
  1196  0213                     	;# 
  1197  0213                     	;# 
  1198  0214                     	;# 
  1199  0214                     	;# 
  1200  0215                     	;# 
  1201  0215                     	;# 
  1202  0215                     	;# 
  1203  0215                     	;# 
  1204  0216                     	;# 
  1205  0216                     	;# 
  1206  0217                     	;# 
  1207  0217                     	;# 
  1208  0219                     	;# 
  1209  021A                     	;# 
  1210  021B                     	;# 
  1211  021C                     	;# 
  1212  021D                     	;# 
  1213  021D                     	;# 
  1214  021E                     	;# 
  1215  021F                     	;# 
  1216  028C                     	;# 
  1217  028E                     	;# 
  1218  0291                     	;# 
  1219  0291                     	;# 
  1220  0292                     	;# 
  1221  0293                     	;# 
  1222  0294                     	;# 
  1223  0295                     	;# 
  1224  0295                     	;# 
  1225  0296                     	;# 
  1226  0297                     	;# 
  1227  0298                     	;# 
  1228  029F                     	;# 
  1229  030C                     	;# 
  1230  030E                     	;# 
  1231  0311                     	;# 
  1232  0311                     	;# 
  1233  0312                     	;# 
  1234  0313                     	;# 
  1235  0314                     	;# 
  1236  0315                     	;# 
  1237  0315                     	;# 
  1238  0316                     	;# 
  1239  0317                     	;# 
  1240  0318                     	;# 
  1241  038C                     	;# 
  1242  038E                     	;# 
  1243  0391                     	;# 
  1244  0392                     	;# 
  1245  0393                     	;# 
  1246  0397                     	;# 
  1247  0398                     	;# 
  1248  0399                     	;# 
  1249  039A                     	;# 
  1250  039C                     	;# 
  1251  039D                     	;# 
  1252  039E                     	;# 
  1253  039F                     	;# 
  1254  0411                     	;# 
  1255  0411                     	;# 
  1256  0412                     	;# 
  1257  0413                     	;# 
  1258  0414                     	;# 
  1259  0415                     	;# 
  1260  0416                     	;# 
  1261  0417                     	;# 
  1262  0418                     	;# 
  1263  0418                     	;# 
  1264  0419                     	;# 
  1265  041A                     	;# 
  1266  041B                     	;# 
  1267  041C                     	;# 
  1268  041D                     	;# 
  1269  041E                     	;# 
  1270  041F                     	;# 
  1271  0498                     	;# 
  1272  0498                     	;# 
  1273  0499                     	;# 
  1274  049A                     	;# 
  1275  049B                     	;# 
  1276  049B                     	;# 
  1277  049C                     	;# 
  1278  049D                     	;# 
  1279  049E                     	;# 
  1280  049F                     	;# 
  1281  0617                     	;# 
  1282  0618                     	;# 
  1283  0619                     	;# 
  1284  0619                     	;# 
  1285  061A                     	;# 
  1286  061B                     	;# 
  1287  061C                     	;# 
  1288  061C                     	;# 
  1289  061F                     	;# 
  1290  0691                     	;# 
  1291  0692                     	;# 
  1292  0693                     	;# 
  1293  0694                     	;# 
  1294  0695                     	;# 
  1295  0696                     	;# 
  1296  0697                     	;# 
  1297  0698                     	;# 
  1298  0699                     	;# 
  1299  0711                     	;# 
  1300  0712                     	;# 
  1301  0713                     	;# 
  1302  0714                     	;# 
  1303  0715                     	;# 
  1304  0716                     	;# 
  1305  0717                     	;# 
  1306  0718                     	;# 
  1307  0719                     	;# 
  1308  0891                     	;# 
  1309  0891                     	;# 
  1310  0891                     	;# 
  1311  0891                     	;# 
  1312  0891                     	;# 
  1313  0891                     	;# 
  1314  0892                     	;# 
  1315  0892                     	;# 
  1316  0892                     	;# 
  1317  0893                     	;# 
  1318  0893                     	;# 
  1319  0893                     	;# 
  1320  0893                     	;# 
  1321  0893                     	;# 
  1322  0893                     	;# 
  1323  0894                     	;# 
  1324  0894                     	;# 
  1325  0894                     	;# 
  1326  0895                     	;# 
  1327  0895                     	;# 
  1328  0895                     	;# 
  1329  0896                     	;# 
  1330  0896                     	;# 
  1331  0896                     	;# 
  1332  089B                     	;# 
  1333  0911                     	;# 
  1334  0912                     	;# 
  1335  0913                     	;# 
  1336  0914                     	;# 
  1337  0915                     	;# 
  1338  0916                     	;# 
  1339  0918                     	;# 
  1340  0919                     	;# 
  1341  091A                     	;# 
  1342  091B                     	;# 
  1343  091C                     	;# 
  1344  091D                     	;# 
  1345  091E                     	;# 
  1346  091F                     	;# 
  1347  0E0F                     	;# 
  1348  0E10                     	;# 
  1349  0E11                     	;# 
  1350  0E12                     	;# 
  1351  0E13                     	;# 
  1352  0E14                     	;# 
  1353  0E15                     	;# 
  1354  0E16                     	;# 
  1355  0E17                     	;# 
  1356  0E18                     	;# 
  1357  0E19                     	;# 
  1358  0E1A                     	;# 
  1359  0E1B                     	;# 
  1360  0E1C                     	;# 
  1361  0E1D                     	;# 
  1362  0E1E                     	;# 
  1363  0E1F                     	;# 
  1364  0E20                     	;# 
  1365  0E21                     	;# 
  1366  0E22                     	;# 
  1367  0E24                     	;# 
  1368  0E25                     	;# 
  1369  0E28                     	;# 
  1370  0E29                     	;# 
  1371  0E2A                     	;# 
  1372  0E2B                     	;# 
  1373  0E2C                     	;# 
  1374  0E2D                     	;# 
  1375  0E2E                     	;# 
  1376  0E2F                     	;# 
  1377  0E90                     	;# 
  1378  0E91                     	;# 
  1379  0E92                     	;# 
  1380  0E94                     	;# 
  1381  0E95                     	;# 
  1382  0EA0                     	;# 
  1383  0EA1                     	;# 
  1384  0EA2                     	;# 
  1385  0EA3                     	;# 
  1386  0EA4                     	;# 
  1387  0EA5                     	;# 
  1388  0F0F                     	;# 
  1389  0F10                     	;# 
  1390  0F11                     	;# 
  1391  0F12                     	;# 
  1392  0F13                     	;# 
  1393  0F14                     	;# 
  1394  0F15                     	;# 
  1395  0F16                     	;# 
  1396  0F17                     	;# 
  1397  0F18                     	;# 
  1398  0F19                     	;# 
  1399  0F1A                     	;# 
  1400  0F1B                     	;# 
  1401  0F1C                     	;# 
  1402  0F1D                     	;# 
  1403  0F1E                     	;# 
  1404  0F1F                     	;# 
  1405  0F20                     	;# 
  1406  0F21                     	;# 
  1407  0F22                     	;# 
  1408  0F23                     	;# 
  1409  0F24                     	;# 
  1410  0F25                     	;# 
  1411  0F26                     	;# 
  1412  0F27                     	;# 
  1413  0F28                     	;# 
  1414  0F29                     	;# 
  1415  0F2A                     	;# 
  1416  0F2B                     	;# 
  1417  0F2C                     	;# 
  1418  0F2D                     	;# 
  1419  0F2E                     	;# 
  1420  0F2F                     	;# 
  1421  0F30                     	;# 
  1422  0F31                     	;# 
  1423  0F32                     	;# 
  1424  0F33                     	;# 
  1425  0F34                     	;# 
  1426  0F35                     	;# 
  1427  0F36                     	;# 
  1428  0F37                     	;# 
  1429  0FE4                     	;# 
  1430  0FE5                     	;# 
  1431  0FE6                     	;# 
  1432  0FE7                     	;# 
  1433  0FE8                     	;# 
  1434  0FE9                     	;# 
  1435  0FEA                     	;# 
  1436  0FEB                     	;# 
  1437  0FED                     	;# 
  1438  0FEE                     	;# 
  1439  0FEF                     	;# 
  1440  0000                     	;# 
  1441  0001                     	;# 
  1442  0002                     	;# 
  1443  0003                     	;# 
  1444  0004                     	;# 
  1445  0005                     	;# 
  1446  0006                     	;# 
  1447  0007                     	;# 
  1448  0008                     	;# 
  1449  0009                     	;# 
  1450  000A                     	;# 
  1451  000B                     	;# 
  1452  000C                     	;# 
  1453  000E                     	;# 
  1454  0010                     	;# 
  1455  0011                     	;# 
  1456  0012                     	;# 
  1457  0013                     	;# 
  1458  0014                     	;# 
  1459  0015                     	;# 
  1460  0015                     	;# 
  1461  0016                     	;# 
  1462  0016                     	;# 
  1463  0017                     	;# 
  1464  0018                     	;# 
  1465  0019                     	;# 
  1466  0019                     	;# 
  1467  001A                     	;# 
  1468  001B                     	;# 
  1469  001C                     	;# 
  1470  001D                     	;# 
  1471  001E                     	;# 
  1472  001F                     	;# 
  1473  008C                     	;# 
  1474  008E                     	;# 
  1475  0090                     	;# 
  1476  0091                     	;# 
  1477  0092                     	;# 
  1478  0093                     	;# 
  1479  0094                     	;# 
  1480  0097                     	;# 
  1481  009B                     	;# 
  1482  009B                     	;# 
  1483  009C                     	;# 
  1484  009D                     	;# 
  1485  009E                     	;# 
  1486  009F                     	;# 
  1487  010C                     	;# 
  1488  010E                     	;# 
  1489  0111                     	;# 
  1490  0112                     	;# 
  1491  0113                     	;# 
  1492  0114                     	;# 
  1493  0115                     	;# 
  1494  0116                     	;# 
  1495  0117                     	;# 
  1496  0118                     	;# 
  1497  0119                     	;# 
  1498  018C                     	;# 
  1499  018E                     	;# 
  1500  0197                     	;# 
  1501  0199                     	;# 
  1502  0199                     	;# 
  1503  0199                     	;# 
  1504  019A                     	;# 
  1505  019A                     	;# 
  1506  019A                     	;# 
  1507  019B                     	;# 
  1508  019B                     	;# 
  1509  019B                     	;# 
  1510  019B                     	;# 
  1511  019B                     	;# 
  1512  019C                     	;# 
  1513  019C                     	;# 
  1514  019C                     	;# 
  1515  019D                     	;# 
  1516  019D                     	;# 
  1517  019D                     	;# 
  1518  019E                     	;# 
  1519  019E                     	;# 
  1520  019E                     	;# 
  1521  019F                     	;# 
  1522  019F                     	;# 
  1523  019F                     	;# 
  1524  019F                     	;# 
  1525  019F                     	;# 
  1526  020C                     	;# 
  1527  020E                     	;# 
  1528  0211                     	;# 
  1529  0211                     	;# 
  1530  0212                     	;# 
  1531  0212                     	;# 
  1532  0213                     	;# 
  1533  0213                     	;# 
  1534  0214                     	;# 
  1535  0214                     	;# 
  1536  0215                     	;# 
  1537  0215                     	;# 
  1538  0215                     	;# 
  1539  0215                     	;# 
  1540  0216                     	;# 
  1541  0216                     	;# 
  1542  0217                     	;# 
  1543  0217                     	;# 
  1544  0219                     	;# 
  1545  021A                     	;# 
  1546  021B                     	;# 
  1547  021C                     	;# 
  1548  021D                     	;# 
  1549  021D                     	;# 
  1550  021E                     	;# 
  1551  021F                     	;# 
  1552  028C                     	;# 
  1553  028E                     	;# 
  1554  0291                     	;# 
  1555  0291                     	;# 
  1556  0292                     	;# 
  1557  0293                     	;# 
  1558  0294                     	;# 
  1559  0295                     	;# 
  1560  0295                     	;# 
  1561  0296                     	;# 
  1562  0297                     	;# 
  1563  0298                     	;# 
  1564  029F                     	;# 
  1565  030C                     	;# 
  1566  030E                     	;# 
  1567  0311                     	;# 
  1568  0311                     	;# 
  1569  0312                     	;# 
  1570  0313                     	;# 
  1571  0314                     	;# 
  1572  0315                     	;# 
  1573  0315                     	;# 
  1574  0316                     	;# 
  1575  0317                     	;# 
  1576  0318                     	;# 
  1577  038C                     	;# 
  1578  038E                     	;# 
  1579  0391                     	;# 
  1580  0392                     	;# 
  1581  0393                     	;# 
  1582  0397                     	;# 
  1583  0398                     	;# 
  1584  0399                     	;# 
  1585  039A                     	;# 
  1586  039C                     	;# 
  1587  039D                     	;# 
  1588  039E                     	;# 
  1589  039F                     	;# 
  1590  0411                     	;# 
  1591  0411                     	;# 
  1592  0412                     	;# 
  1593  0413                     	;# 
  1594  0414                     	;# 
  1595  0415                     	;# 
  1596  0416                     	;# 
  1597  0417                     	;# 
  1598  0418                     	;# 
  1599  0418                     	;# 
  1600  0419                     	;# 
  1601  041A                     	;# 
  1602  041B                     	;# 
  1603  041C                     	;# 
  1604  041D                     	;# 
  1605  041E                     	;# 
  1606  041F                     	;# 
  1607  0498                     	;# 
  1608  0498                     	;# 
  1609  0499                     	;# 
  1610  049A                     	;# 
  1611  049B                     	;# 
  1612  049B                     	;# 
  1613  049C                     	;# 
  1614  049D                     	;# 
  1615  049E                     	;# 
  1616  049F                     	;# 
  1617  0617                     	;# 
  1618  0618                     	;# 
  1619  0619                     	;# 
  1620  0619                     	;# 
  1621  061A                     	;# 
  1622  061B                     	;# 
  1623  061C                     	;# 
  1624  061C                     	;# 
  1625  061F                     	;# 
  1626  0691                     	;# 
  1627  0692                     	;# 
  1628  0693                     	;# 
  1629  0694                     	;# 
  1630  0695                     	;# 
  1631  0696                     	;# 
  1632  0697                     	;# 
  1633  0698                     	;# 
  1634  0699                     	;# 
  1635  0711                     	;# 
  1636  0712                     	;# 
  1637  0713                     	;# 
  1638  0714                     	;# 
  1639  0715                     	;# 
  1640  0716                     	;# 
  1641  0717                     	;# 
  1642  0718                     	;# 
  1643  0719                     	;# 
  1644  0891                     	;# 
  1645  0891                     	;# 
  1646  0891                     	;# 
  1647  0891                     	;# 
  1648  0891                     	;# 
  1649  0891                     	;# 
  1650  0892                     	;# 
  1651  0892                     	;# 
  1652  0892                     	;# 
  1653  0893                     	;# 
  1654  0893                     	;# 
  1655  0893                     	;# 
  1656  0893                     	;# 
  1657  0893                     	;# 
  1658  0893                     	;# 
  1659  0894                     	;# 
  1660  0894                     	;# 
  1661  0894                     	;# 
  1662  0895                     	;# 
  1663  0895                     	;# 
  1664  0895                     	;# 
  1665  0896                     	;# 
  1666  0896                     	;# 
  1667  0896                     	;# 
  1668  089B                     	;# 
  1669  0911                     	;# 
  1670  0912                     	;# 
  1671  0913                     	;# 
  1672  0914                     	;# 
  1673  0915                     	;# 
  1674  0916                     	;# 
  1675  0918                     	;# 
  1676  0919                     	;# 
  1677  091A                     	;# 
  1678  091B                     	;# 
  1679  091C                     	;# 
  1680  091D                     	;# 
  1681  091E                     	;# 
  1682  091F                     	;# 
  1683  0E0F                     	;# 
  1684  0E10                     	;# 
  1685  0E11                     	;# 
  1686  0E12                     	;# 
  1687  0E13                     	;# 
  1688  0E14                     	;# 
  1689  0E15                     	;# 
  1690  0E16                     	;# 
  1691  0E17                     	;# 
  1692  0E18                     	;# 
  1693  0E19                     	;# 
  1694  0E1A                     	;# 
  1695  0E1B                     	;# 
  1696  0E1C                     	;# 
  1697  0E1D                     	;# 
  1698  0E1E                     	;# 
  1699  0E1F                     	;# 
  1700  0E20                     	;# 
  1701  0E21                     	;# 
  1702  0E22                     	;# 
  1703  0E24                     	;# 
  1704  0E25                     	;# 
  1705  0E28                     	;# 
  1706  0E29                     	;# 
  1707  0E2A                     	;# 
  1708  0E2B                     	;# 
  1709  0E2C                     	;# 
  1710  0E2D                     	;# 
  1711  0E2E                     	;# 
  1712  0E2F                     	;# 
  1713  0E90                     	;# 
  1714  0E91                     	;# 
  1715  0E92                     	;# 
  1716  0E94                     	;# 
  1717  0E95                     	;# 
  1718  0EA0                     	;# 
  1719  0EA1                     	;# 
  1720  0EA2                     	;# 
  1721  0EA3                     	;# 
  1722  0EA4                     	;# 
  1723  0EA5                     	;# 
  1724  0F0F                     	;# 
  1725  0F10                     	;# 
  1726  0F11                     	;# 
  1727  0F12                     	;# 
  1728  0F13                     	;# 
  1729  0F14                     	;# 
  1730  0F15                     	;# 
  1731  0F16                     	;# 
  1732  0F17                     	;# 
  1733  0F18                     	;# 
  1734  0F19                     	;# 
  1735  0F1A                     	;# 
  1736  0F1B                     	;# 
  1737  0F1C                     	;# 
  1738  0F1D                     	;# 
  1739  0F1E                     	;# 
  1740  0F1F                     	;# 
  1741  0F20                     	;# 
  1742  0F21                     	;# 
  1743  0F22                     	;# 
  1744  0F23                     	;# 
  1745  0F24                     	;# 
  1746  0F25                     	;# 
  1747  0F26                     	;# 
  1748  0F27                     	;# 
  1749  0F28                     	;# 
  1750  0F29                     	;# 
  1751  0F2A                     	;# 
  1752  0F2B                     	;# 
  1753  0F2C                     	;# 
  1754  0F2D                     	;# 
  1755  0F2E                     	;# 
  1756  0F2F                     	;# 
  1757  0F30                     	;# 
  1758  0F31                     	;# 
  1759  0F32                     	;# 
  1760  0F33                     	;# 
  1761  0F34                     	;# 
  1762  0F35                     	;# 
  1763  0F36                     	;# 
  1764  0F37                     	;# 
  1765  0FE4                     	;# 
  1766  0FE5                     	;# 
  1767  0FE6                     	;# 
  1768  0FE7                     	;# 
  1769  0FE8                     	;# 
  1770  0FE9                     	;# 
  1771  0FEA                     	;# 
  1772  0FEB                     	;# 
  1773  0FED                     	;# 
  1774  0FEE                     	;# 
  1775  0FEF                     	;# 
  1776  0000                     	;# 
  1777  0001                     	;# 
  1778  0002                     	;# 
  1779  0003                     	;# 
  1780  0004                     	;# 
  1781  0005                     	;# 
  1782  0006                     	;# 
  1783  0007                     	;# 
  1784  0008                     	;# 
  1785  0009                     	;# 
  1786  000A                     	;# 
  1787  000B                     	;# 
  1788  000C                     	;# 
  1789  000E                     	;# 
  1790  0010                     	;# 
  1791  0011                     	;# 
  1792  0012                     	;# 
  1793  0013                     	;# 
  1794  0014                     	;# 
  1795  0015                     	;# 
  1796  0015                     	;# 
  1797  0016                     	;# 
  1798  0016                     	;# 
  1799  0017                     	;# 
  1800  0018                     	;# 
  1801  0019                     	;# 
  1802  0019                     	;# 
  1803  001A                     	;# 
  1804  001B                     	;# 
  1805  001C                     	;# 
  1806  001D                     	;# 
  1807  001E                     	;# 
  1808  001F                     	;# 
  1809  008C                     	;# 
  1810  008E                     	;# 
  1811  0090                     	;# 
  1812  0091                     	;# 
  1813  0092                     	;# 
  1814  0093                     	;# 
  1815  0094                     	;# 
  1816  0097                     	;# 
  1817  009B                     	;# 
  1818  009B                     	;# 
  1819  009C                     	;# 
  1820  009D                     	;# 
  1821  009E                     	;# 
  1822  009F                     	;# 
  1823  010C                     	;# 
  1824  010E                     	;# 
  1825  0111                     	;# 
  1826  0112                     	;# 
  1827  0113                     	;# 
  1828  0114                     	;# 
  1829  0115                     	;# 
  1830  0116                     	;# 
  1831  0117                     	;# 
  1832  0118                     	;# 
  1833  0119                     	;# 
  1834  018C                     	;# 
  1835  018E                     	;# 
  1836  0197                     	;# 
  1837  0199                     	;# 
  1838  0199                     	;# 
  1839  0199                     	;# 
  1840  019A                     	;# 
  1841  019A                     	;# 
  1842  019A                     	;# 
  1843  019B                     	;# 
  1844  019B                     	;# 
  1845  019B                     	;# 
  1846  019B                     	;# 
  1847  019B                     	;# 
  1848  019C                     	;# 
  1849  019C                     	;# 
  1850  019C                     	;# 
  1851  019D                     	;# 
  1852  019D                     	;# 
  1853  019D                     	;# 
  1854  019E                     	;# 
  1855  019E                     	;# 
  1856  019E                     	;# 
  1857  019F                     	;# 
  1858  019F                     	;# 
  1859  019F                     	;# 
  1860  019F                     	;# 
  1861  019F                     	;# 
  1862  020C                     	;# 
  1863  020E                     	;# 
  1864  0211                     	;# 
  1865  0211                     	;# 
  1866  0212                     	;# 
  1867  0212                     	;# 
  1868  0213                     	;# 
  1869  0213                     	;# 
  1870  0214                     	;# 
  1871  0214                     	;# 
  1872  0215                     	;# 
  1873  0215                     	;# 
  1874  0215                     	;# 
  1875  0215                     	;# 
  1876  0216                     	;# 
  1877  0216                     	;# 
  1878  0217                     	;# 
  1879  0217                     	;# 
  1880  0219                     	;# 
  1881  021A                     	;# 
  1882  021B                     	;# 
  1883  021C                     	;# 
  1884  021D                     	;# 
  1885  021D                     	;# 
  1886  021E                     	;# 
  1887  021F                     	;# 
  1888  028C                     	;# 
  1889  028E                     	;# 
  1890  0291                     	;# 
  1891  0291                     	;# 
  1892  0292                     	;# 
  1893  0293                     	;# 
  1894  0294                     	;# 
  1895  0295                     	;# 
  1896  0295                     	;# 
  1897  0296                     	;# 
  1898  0297                     	;# 
  1899  0298                     	;# 
  1900  029F                     	;# 
  1901  030C                     	;# 
  1902  030E                     	;# 
  1903  0311                     	;# 
  1904  0311                     	;# 
  1905  0312                     	;# 
  1906  0313                     	;# 
  1907  0314                     	;# 
  1908  0315                     	;# 
  1909  0315                     	;# 
  1910  0316                     	;# 
  1911  0317                     	;# 
  1912  0318                     	;# 
  1913  038C                     	;# 
  1914  038E                     	;# 
  1915  0391                     	;# 
  1916  0392                     	;# 
  1917  0393                     	;# 
  1918  0397                     	;# 
  1919  0398                     	;# 
  1920  0399                     	;# 
  1921  039A                     	;# 
  1922  039C                     	;# 
  1923  039D                     	;# 
  1924  039E                     	;# 
  1925  039F                     	;# 
  1926  0411                     	;# 
  1927  0411                     	;# 
  1928  0412                     	;# 
  1929  0413                     	;# 
  1930  0414                     	;# 
  1931  0415                     	;# 
  1932  0416                     	;# 
  1933  0417                     	;# 
  1934  0418                     	;# 
  1935  0418                     	;# 
  1936  0419                     	;# 
  1937  041A                     	;# 
  1938  041B                     	;# 
  1939  041C                     	;# 
  1940  041D                     	;# 
  1941  041E                     	;# 
  1942  041F                     	;# 
  1943  0498                     	;# 
  1944  0498                     	;# 
  1945  0499                     	;# 
  1946  049A                     	;# 
  1947  049B                     	;# 
  1948  049B                     	;# 
  1949  049C                     	;# 
  1950  049D                     	;# 
  1951  049E                     	;# 
  1952  049F                     	;# 
  1953  0617                     	;# 
  1954  0618                     	;# 
  1955  0619                     	;# 
  1956  0619                     	;# 
  1957  061A                     	;# 
  1958  061B                     	;# 
  1959  061C                     	;# 
  1960  061C                     	;# 
  1961  061F                     	;# 
  1962  0691                     	;# 
  1963  0692                     	;# 
  1964  0693                     	;# 
  1965  0694                     	;# 
  1966  0695                     	;# 
  1967  0696                     	;# 
  1968  0697                     	;# 
  1969  0698                     	;# 
  1970  0699                     	;# 
  1971  0711                     	;# 
  1972  0712                     	;# 
  1973  0713                     	;# 
  1974  0714                     	;# 
  1975  0715                     	;# 
  1976  0716                     	;# 
  1977  0717                     	;# 
  1978  0718                     	;# 
  1979  0719                     	;# 
  1980  0891                     	;# 
  1981  0891                     	;# 
  1982  0891                     	;# 
  1983  0891                     	;# 
  1984  0891                     	;# 
  1985  0891                     	;# 
  1986  0892                     	;# 
  1987  0892                     	;# 
  1988  0892                     	;# 
  1989  0893                     	;# 
  1990  0893                     	;# 
  1991  0893                     	;# 
  1992  0893                     	;# 
  1993  0893                     	;# 
  1994  0893                     	;# 
  1995  0894                     	;# 
  1996  0894                     	;# 
  1997  0894                     	;# 
  1998  0895                     	;# 
  1999  0895                     	;# 
  2000  0895                     	;# 
  2001  0896                     	;# 
  2002  0896                     	;# 
  2003  0896                     	;# 
  2004  089B                     	;# 
  2005  0911                     	;# 
  2006  0912                     	;# 
  2007  0913                     	;# 
  2008  0914                     	;# 
  2009  0915                     	;# 
  2010  0916                     	;# 
  2011  0918                     	;# 
  2012  0919                     	;# 
  2013  091A                     	;# 
  2014  091B                     	;# 
  2015  091C                     	;# 
  2016  091D                     	;# 
  2017  091E                     	;# 
  2018  091F                     	;# 
  2019  0E0F                     	;# 
  2020  0E10                     	;# 
  2021  0E11                     	;# 
  2022  0E12                     	;# 
  2023  0E13                     	;# 
  2024  0E14                     	;# 
  2025  0E15                     	;# 
  2026  0E16                     	;# 
  2027  0E17                     	;# 
  2028  0E18                     	;# 
  2029  0E19                     	;# 
  2030  0E1A                     	;# 
  2031  0E1B                     	;# 
  2032  0E1C                     	;# 
  2033  0E1D                     	;# 
  2034  0E1E                     	;# 
  2035  0E1F                     	;# 
  2036  0E20                     	;# 
  2037  0E21                     	;# 
  2038  0E22                     	;# 
  2039  0E24                     	;# 
  2040  0E25                     	;# 
  2041  0E28                     	;# 
  2042  0E29                     	;# 
  2043  0E2A                     	;# 
  2044  0E2B                     	;# 
  2045  0E2C                     	;# 
  2046  0E2D                     	;# 
  2047  0E2E                     	;# 
  2048  0E2F                     	;# 
  2049  0E90                     	;# 
  2050  0E91                     	;# 
  2051  0E92                     	;# 
  2052  0E94                     	;# 
  2053  0E95                     	;# 
  2054  0EA0                     	;# 
  2055  0EA1                     	;# 
  2056  0EA2                     	;# 
  2057  0EA3                     	;# 
  2058  0EA4                     	;# 
  2059  0EA5                     	;# 
  2060  0F0F                     	;# 
  2061  0F10                     	;# 
  2062  0F11                     	;# 
  2063  0F12                     	;# 
  2064  0F13                     	;# 
  2065  0F14                     	;# 
  2066  0F15                     	;# 
  2067  0F16                     	;# 
  2068  0F17                     	;# 
  2069  0F18                     	;# 
  2070  0F19                     	;# 
  2071  0F1A                     	;# 
  2072  0F1B                     	;# 
  2073  0F1C                     	;# 
  2074  0F1D                     	;# 
  2075  0F1E                     	;# 
  2076  0F1F                     	;# 
  2077  0F20                     	;# 
  2078  0F21                     	;# 
  2079  0F22                     	;# 
  2080  0F23                     	;# 
  2081  0F24                     	;# 
  2082  0F25                     	;# 
  2083  0F26                     	;# 
  2084  0F27                     	;# 
  2085  0F28                     	;# 
  2086  0F29                     	;# 
  2087  0F2A                     	;# 
  2088  0F2B                     	;# 
  2089  0F2C                     	;# 
  2090  0F2D                     	;# 
  2091  0F2E                     	;# 
  2092  0F2F                     	;# 
  2093  0F30                     	;# 
  2094  0F31                     	;# 
  2095  0F32                     	;# 
  2096  0F33                     	;# 
  2097  0F34                     	;# 
  2098  0F35                     	;# 
  2099  0F36                     	;# 
  2100  0F37                     	;# 
  2101  0FE4                     	;# 
  2102  0FE5                     	;# 
  2103  0FE6                     	;# 
  2104  0FE7                     	;# 
  2105  0FE8                     	;# 
  2106  0FE9                     	;# 
  2107  0FEA                     	;# 
  2108  0FEB                     	;# 
  2109  0FED                     	;# 
  2110  0FEE                     	;# 
  2111  0FEF                     	;# 
  2112  0000                     	;# 
  2113  0001                     	;# 
  2114  0002                     	;# 
  2115  0003                     	;# 
  2116  0004                     	;# 
  2117  0005                     	;# 
  2118  0006                     	;# 
  2119  0007                     	;# 
  2120  0008                     	;# 
  2121  0009                     	;# 
  2122  000A                     	;# 
  2123  000B                     	;# 
  2124  000C                     	;# 
  2125  000E                     	;# 
  2126  0010                     	;# 
  2127  0011                     	;# 
  2128  0012                     	;# 
  2129  0013                     	;# 
  2130  0014                     	;# 
  2131  0015                     	;# 
  2132  0015                     	;# 
  2133  0016                     	;# 
  2134  0016                     	;# 
  2135  0017                     	;# 
  2136  0018                     	;# 
  2137  0019                     	;# 
  2138  0019                     	;# 
  2139  001A                     	;# 
  2140  001B                     	;# 
  2141  001C                     	;# 
  2142  001D                     	;# 
  2143  001E                     	;# 
  2144  001F                     	;# 
  2145  008C                     	;# 
  2146  008E                     	;# 
  2147  0090                     	;# 
  2148  0091                     	;# 
  2149  0092                     	;# 
  2150  0093                     	;# 
  2151  0094                     	;# 
  2152  0097                     	;# 
  2153  009B                     	;# 
  2154  009B                     	;# 
  2155  009C                     	;# 
  2156  009D                     	;# 
  2157  009E                     	;# 
  2158  009F                     	;# 
  2159  010C                     	;# 
  2160  010E                     	;# 
  2161  0111                     	;# 
  2162  0112                     	;# 
  2163  0113                     	;# 
  2164  0114                     	;# 
  2165  0115                     	;# 
  2166  0116                     	;# 
  2167  0117                     	;# 
  2168  0118                     	;# 
  2169  0119                     	;# 
  2170  018C                     	;# 
  2171  018E                     	;# 
  2172  0197                     	;# 
  2173  0199                     	;# 
  2174  0199                     	;# 
  2175  0199                     	;# 
  2176  019A                     	;# 
  2177  019A                     	;# 
  2178  019A                     	;# 
  2179  019B                     	;# 
  2180  019B                     	;# 
  2181  019B                     	;# 
  2182  019B                     	;# 
  2183  019B                     	;# 
  2184  019C                     	;# 
  2185  019C                     	;# 
  2186  019C                     	;# 
  2187  019D                     	;# 
  2188  019D                     	;# 
  2189  019D                     	;# 
  2190  019E                     	;# 
  2191  019E                     	;# 
  2192  019E                     	;# 
  2193  019F                     	;# 
  2194  019F                     	;# 
  2195  019F                     	;# 
  2196  019F                     	;# 
  2197  019F                     	;# 
  2198  020C                     	;# 
  2199  020E                     	;# 
  2200  0211                     	;# 
  2201  0211                     	;# 
  2202  0212                     	;# 
  2203  0212                     	;# 
  2204  0213                     	;# 
  2205  0213                     	;# 
  2206  0214                     	;# 
  2207  0214                     	;# 
  2208  0215                     	;# 
  2209  0215                     	;# 
  2210  0215                     	;# 
  2211  0215                     	;# 
  2212  0216                     	;# 
  2213  0216                     	;# 
  2214  0217                     	;# 
  2215  0217                     	;# 
  2216  0219                     	;# 
  2217  021A                     	;# 
  2218  021B                     	;# 
  2219  021C                     	;# 
  2220  021D                     	;# 
  2221  021D                     	;# 
  2222  021E                     	;# 
  2223  021F                     	;# 
  2224  028C                     	;# 
  2225  028E                     	;# 
  2226  0291                     	;# 
  2227  0291                     	;# 
  2228  0292                     	;# 
  2229  0293                     	;# 
  2230  0294                     	;# 
  2231  0295                     	;# 
  2232  0295                     	;# 
  2233  0296                     	;# 
  2234  0297                     	;# 
  2235  0298                     	;# 
  2236  029F                     	;# 
  2237  030C                     	;# 
  2238  030E                     	;# 
  2239  0311                     	;# 
  2240  0311                     	;# 
  2241  0312                     	;# 
  2242  0313                     	;# 
  2243  0314                     	;# 
  2244  0315                     	;# 
  2245  0315                     	;# 
  2246  0316                     	;# 
  2247  0317                     	;# 
  2248  0318                     	;# 
  2249  038C                     	;# 
  2250  038E                     	;# 
  2251  0391                     	;# 
  2252  0392                     	;# 
  2253  0393                     	;# 
  2254  0397                     	;# 
  2255  0398                     	;# 
  2256  0399                     	;# 
  2257  039A                     	;# 
  2258  039C                     	;# 
  2259  039D                     	;# 
  2260  039E                     	;# 
  2261  039F                     	;# 
  2262  0411                     	;# 
  2263  0411                     	;# 
  2264  0412                     	;# 
  2265  0413                     	;# 
  2266  0414                     	;# 
  2267  0415                     	;# 
  2268  0416                     	;# 
  2269  0417                     	;# 
  2270  0418                     	;# 
  2271  0418                     	;# 
  2272  0419                     	;# 
  2273  041A                     	;# 
  2274  041B                     	;# 
  2275  041C                     	;# 
  2276  041D                     	;# 
  2277  041E                     	;# 
  2278  041F                     	;# 
  2279  0498                     	;# 
  2280  0498                     	;# 
  2281  0499                     	;# 
  2282  049A                     	;# 
  2283  049B                     	;# 
  2284  049B                     	;# 
  2285  049C                     	;# 
  2286  049D                     	;# 
  2287  049E                     	;# 
  2288  049F                     	;# 
  2289  0617                     	;# 
  2290  0618                     	;# 
  2291  0619                     	;# 
  2292  0619                     	;# 
  2293  061A                     	;# 
  2294  061B                     	;# 
  2295  061C                     	;# 
  2296  061C                     	;# 
  2297  061F                     	;# 
  2298  0691                     	;# 
  2299  0692                     	;# 
  2300  0693                     	;# 
  2301  0694                     	;# 
  2302  0695                     	;# 
  2303  0696                     	;# 
  2304  0697                     	;# 
  2305  0698                     	;# 
  2306  0699                     	;# 
  2307  0711                     	;# 
  2308  0712                     	;# 
  2309  0713                     	;# 
  2310  0714                     	;# 
  2311  0715                     	;# 
  2312  0716                     	;# 
  2313  0717                     	;# 
  2314  0718                     	;# 
  2315  0719                     	;# 
  2316  0891                     	;# 
  2317  0891                     	;# 
  2318  0891                     	;# 
  2319  0891                     	;# 
  2320  0891                     	;# 
  2321  0891                     	;# 
  2322  0892                     	;# 
  2323  0892                     	;# 
  2324  0892                     	;# 
  2325  0893                     	;# 
  2326  0893                     	;# 
  2327  0893                     	;# 
  2328  0893                     	;# 
  2329  0893                     	;# 
  2330  0893                     	;# 
  2331  0894                     	;# 
  2332  0894                     	;# 
  2333  0894                     	;# 
  2334  0895                     	;# 
  2335  0895                     	;# 
  2336  0895                     	;# 
  2337  0896                     	;# 
  2338  0896                     	;# 
  2339  0896                     	;# 
  2340  089B                     	;# 
  2341  0911                     	;# 
  2342  0912                     	;# 
  2343  0913                     	;# 
  2344  0914                     	;# 
  2345  0915                     	;# 
  2346  0916                     	;# 
  2347  0918                     	;# 
  2348  0919                     	;# 
  2349  091A                     	;# 
  2350  091B                     	;# 
  2351  091C                     	;# 
  2352  091D                     	;# 
  2353  091E                     	;# 
  2354  091F                     	;# 
  2355  0E0F                     	;# 
  2356  0E10                     	;# 
  2357  0E11                     	;# 
  2358  0E12                     	;# 
  2359  0E13                     	;# 
  2360  0E14                     	;# 
  2361  0E15                     	;# 
  2362  0E16                     	;# 
  2363  0E17                     	;# 
  2364  0E18                     	;# 
  2365  0E19                     	;# 
  2366  0E1A                     	;# 
  2367  0E1B                     	;# 
  2368  0E1C                     	;# 
  2369  0E1D                     	;# 
  2370  0E1E                     	;# 
  2371  0E1F                     	;# 
  2372  0E20                     	;# 
  2373  0E21                     	;# 
  2374  0E22                     	;# 
  2375  0E24                     	;# 
  2376  0E25                     	;# 
  2377  0E28                     	;# 
  2378  0E29                     	;# 
  2379  0E2A                     	;# 
  2380  0E2B                     	;# 
  2381  0E2C                     	;# 
  2382  0E2D                     	;# 
  2383  0E2E                     	;# 
  2384  0E2F                     	;# 
  2385  0E90                     	;# 
  2386  0E91                     	;# 
  2387  0E92                     	;# 
  2388  0E94                     	;# 
  2389  0E95                     	;# 
  2390  0EA0                     	;# 
  2391  0EA1                     	;# 
  2392  0EA2                     	;# 
  2393  0EA3                     	;# 
  2394  0EA4                     	;# 
  2395  0EA5                     	;# 
  2396  0F0F                     	;# 
  2397  0F10                     	;# 
  2398  0F11                     	;# 
  2399  0F12                     	;# 
  2400  0F13                     	;# 
  2401  0F14                     	;# 
  2402  0F15                     	;# 
  2403  0F16                     	;# 
  2404  0F17                     	;# 
  2405  0F18                     	;# 
  2406  0F19                     	;# 
  2407  0F1A                     	;# 
  2408  0F1B                     	;# 
  2409  0F1C                     	;# 
  2410  0F1D                     	;# 
  2411  0F1E                     	;# 
  2412  0F1F                     	;# 
  2413  0F20                     	;# 
  2414  0F21                     	;# 
  2415  0F22                     	;# 
  2416  0F23                     	;# 
  2417  0F24                     	;# 
  2418  0F25                     	;# 
  2419  0F26                     	;# 
  2420  0F27                     	;# 
  2421  0F28                     	;# 
  2422  0F29                     	;# 
  2423  0F2A                     	;# 
  2424  0F2B                     	;# 
  2425  0F2C                     	;# 
  2426  0F2D                     	;# 
  2427  0F2E                     	;# 
  2428  0F2F                     	;# 
  2429  0F30                     	;# 
  2430  0F31                     	;# 
  2431  0F32                     	;# 
  2432  0F33                     	;# 
  2433  0F34                     	;# 
  2434  0F35                     	;# 
  2435  0F36                     	;# 
  2436  0F37                     	;# 
  2437  0FE4                     	;# 
  2438  0FE5                     	;# 
  2439  0FE6                     	;# 
  2440  0FE7                     	;# 
  2441  0FE8                     	;# 
  2442  0FE9                     	;# 
  2443  0FEA                     	;# 
  2444  0FEB                     	;# 
  2445  0FED                     	;# 
  2446  0FEE                     	;# 
  2447  0FEF                     	;# 
  2448  0000                     	;# 
  2449  0001                     	;# 
  2450  0002                     	;# 
  2451  0003                     	;# 
  2452  0004                     	;# 
  2453  0005                     	;# 
  2454  0006                     	;# 
  2455  0007                     	;# 
  2456  0008                     	;# 
  2457  0009                     	;# 
  2458  000A                     	;# 
  2459  000B                     	;# 
  2460  000C                     	;# 
  2461  000E                     	;# 
  2462  0010                     	;# 
  2463  0011                     	;# 
  2464  0012                     	;# 
  2465  0013                     	;# 
  2466  0014                     	;# 
  2467  0015                     	;# 
  2468  0015                     	;# 
  2469  0016                     	;# 
  2470  0016                     	;# 
  2471  0017                     	;# 
  2472  0018                     	;# 
  2473  0019                     	;# 
  2474  0019                     	;# 
  2475  001A                     	;# 
  2476  001B                     	;# 
  2477  001C                     	;# 
  2478  001D                     	;# 
  2479  001E                     	;# 
  2480  001F                     	;# 
  2481  008C                     	;# 
  2482  008E                     	;# 
  2483  0090                     	;# 
  2484  0091                     	;# 
  2485  0092                     	;# 
  2486  0093                     	;# 
  2487  0094                     	;# 
  2488  0097                     	;# 
  2489  009B                     	;# 
  2490  009B                     	;# 
  2491  009C                     	;# 
  2492  009D                     	;# 
  2493  009E                     	;# 
  2494  009F                     	;# 
  2495  010C                     	;# 
  2496  010E                     	;# 
  2497  0111                     	;# 
  2498  0112                     	;# 
  2499  0113                     	;# 
  2500  0114                     	;# 
  2501  0115                     	;# 
  2502  0116                     	;# 
  2503  0117                     	;# 
  2504  0118                     	;# 
  2505  0119                     	;# 
  2506  018C                     	;# 
  2507  018E                     	;# 
  2508  0197                     	;# 
  2509  0199                     	;# 
  2510  0199                     	;# 
  2511  0199                     	;# 
  2512  019A                     	;# 
  2513  019A                     	;# 
  2514  019A                     	;# 
  2515  019B                     	;# 
  2516  019B                     	;# 
  2517  019B                     	;# 
  2518  019B                     	;# 
  2519  019B                     	;# 
  2520  019C                     	;# 
  2521  019C                     	;# 
  2522  019C                     	;# 
  2523  019D                     	;# 
  2524  019D                     	;# 
  2525  019D                     	;# 
  2526  019E                     	;# 
  2527  019E                     	;# 
  2528  019E                     	;# 
  2529  019F                     	;# 
  2530  019F                     	;# 
  2531  019F                     	;# 
  2532  019F                     	;# 
  2533  019F                     	;# 
  2534  020C                     	;# 
  2535  020E                     	;# 
  2536  0211                     	;# 
  2537  0211                     	;# 
  2538  0212                     	;# 
  2539  0212                     	;# 
  2540  0213                     	;# 
  2541  0213                     	;# 
  2542  0214                     	;# 
  2543  0214                     	;# 
  2544  0215                     	;# 
  2545  0215                     	;# 
  2546  0215                     	;# 
  2547  0215                     	;# 
  2548  0216                     	;# 
  2549  0216                     	;# 
  2550  0217                     	;# 
  2551  0217                     	;# 
  2552  0219                     	;# 
  2553  021A                     	;# 
  2554  021B                     	;# 
  2555  021C                     	;# 
  2556  021D                     	;# 
  2557  021D                     	;# 
  2558  021E                     	;# 
  2559  021F                     	;# 
  2560  028C                     	;# 
  2561  028E                     	;# 
  2562  0291                     	;# 
  2563  0291                     	;# 
  2564  0292                     	;# 
  2565  0293                     	;# 
  2566  0294                     	;# 
  2567  0295                     	;# 
  2568  0295                     	;# 
  2569  0296                     	;# 
  2570  0297                     	;# 
  2571  0298                     	;# 
  2572  029F                     	;# 
  2573  030C                     	;# 
  2574  030E                     	;# 
  2575  0311                     	;# 
  2576  0311                     	;# 
  2577  0312                     	;# 
  2578  0313                     	;# 
  2579  0314                     	;# 
  2580  0315                     	;# 
  2581  0315                     	;# 
  2582  0316                     	;# 
  2583  0317                     	;# 
  2584  0318                     	;# 
  2585  038C                     	;# 
  2586  038E                     	;# 
  2587  0391                     	;# 
  2588  0392                     	;# 
  2589  0393                     	;# 
  2590  0397                     	;# 
  2591  0398                     	;# 
  2592  0399                     	;# 
  2593  039A                     	;# 
  2594  039C                     	;# 
  2595  039D                     	;# 
  2596  039E                     	;# 
  2597  039F                     	;# 
  2598  0411                     	;# 
  2599  0411                     	;# 
  2600  0412                     	;# 
  2601  0413                     	;# 
  2602  0414                     	;# 
  2603  0415                     	;# 
  2604  0416                     	;# 
  2605  0417                     	;# 
  2606  0418                     	;# 
  2607  0418                     	;# 
  2608  0419                     	;# 
  2609  041A                     	;# 
  2610  041B                     	;# 
  2611  041C                     	;# 
  2612  041D                     	;# 
  2613  041E                     	;# 
  2614  041F                     	;# 
  2615  0498                     	;# 
  2616  0498                     	;# 
  2617  0499                     	;# 
  2618  049A                     	;# 
  2619  049B                     	;# 
  2620  049B                     	;# 
  2621  049C                     	;# 
  2622  049D                     	;# 
  2623  049E                     	;# 
  2624  049F                     	;# 
  2625  0617                     	;# 
  2626  0618                     	;# 
  2627  0619                     	;# 
  2628  0619                     	;# 
  2629  061A                     	;# 
  2630  061B                     	;# 
  2631  061C                     	;# 
  2632  061C                     	;# 
  2633  061F                     	;# 
  2634  0691                     	;# 
  2635  0692                     	;# 
  2636  0693                     	;# 
  2637  0694                     	;# 
  2638  0695                     	;# 
  2639  0696                     	;# 
  2640  0697                     	;# 
  2641  0698                     	;# 
  2642  0699                     	;# 
  2643  0711                     	;# 
  2644  0712                     	;# 
  2645  0713                     	;# 
  2646  0714                     	;# 
  2647  0715                     	;# 
  2648  0716                     	;# 
  2649  0717                     	;# 
  2650  0718                     	;# 
  2651  0719                     	;# 
  2652  0891                     	;# 
  2653  0891                     	;# 
  2654  0891                     	;# 
  2655  0891                     	;# 
  2656  0891                     	;# 
  2657  0891                     	;# 
  2658  0892                     	;# 
  2659  0892                     	;# 
  2660  0892                     	;# 
  2661  0893                     	;# 
  2662  0893                     	;# 
  2663  0893                     	;# 
  2664  0893                     	;# 
  2665  0893                     	;# 
  2666  0893                     	;# 
  2667  0894                     	;# 
  2668  0894                     	;# 
  2669  0894                     	;# 
  2670  0895                     	;# 
  2671  0895                     	;# 
  2672  0895                     	;# 
  2673  0896                     	;# 
  2674  0896                     	;# 
  2675  0896                     	;# 
  2676  089B                     	;# 
  2677  0911                     	;# 
  2678  0912                     	;# 
  2679  0913                     	;# 
  2680  0914                     	;# 
  2681  0915                     	;# 
  2682  0916                     	;# 
  2683  0918                     	;# 
  2684  0919                     	;# 
  2685  091A                     	;# 
  2686  091B                     	;# 
  2687  091C                     	;# 
  2688  091D                     	;# 
  2689  091E                     	;# 
  2690  091F                     	;# 
  2691  0E0F                     	;# 
  2692  0E10                     	;# 
  2693  0E11                     	;# 
  2694  0E12                     	;# 
  2695  0E13                     	;# 
  2696  0E14                     	;# 
  2697  0E15                     	;# 
  2698  0E16                     	;# 
  2699  0E17                     	;# 
  2700  0E18                     	;# 
  2701  0E19                     	;# 
  2702  0E1A                     	;# 
  2703  0E1B                     	;# 
  2704  0E1C                     	;# 
  2705  0E1D                     	;# 
  2706  0E1E                     	;# 
  2707  0E1F                     	;# 
  2708  0E20                     	;# 
  2709  0E21                     	;# 
  2710  0E22                     	;# 
  2711  0E24                     	;# 
  2712  0E25                     	;# 
  2713  0E28                     	;# 
  2714  0E29                     	;# 
  2715  0E2A                     	;# 
  2716  0E2B                     	;# 
  2717  0E2C                     	;# 
  2718  0E2D                     	;# 
  2719  0E2E                     	;# 
  2720  0E2F                     	;# 
  2721  0E90                     	;# 
  2722  0E91                     	;# 
  2723  0E92                     	;# 
  2724  0E94                     	;# 
  2725  0E95                     	;# 
  2726  0EA0                     	;# 
  2727  0EA1                     	;# 
  2728  0EA2                     	;# 
  2729  0EA3                     	;# 
  2730  0EA4                     	;# 
  2731  0EA5                     	;# 
  2732  0F0F                     	;# 
  2733  0F10                     	;# 
  2734  0F11                     	;# 
  2735  0F12                     	;# 
  2736  0F13                     	;# 
  2737  0F14                     	;# 
  2738  0F15                     	;# 
  2739  0F16                     	;# 
  2740  0F17                     	;# 
  2741  0F18                     	;# 
  2742  0F19                     	;# 
  2743  0F1A                     	;# 
  2744  0F1B                     	;# 
  2745  0F1C                     	;# 
  2746  0F1D                     	;# 
  2747  0F1E                     	;# 
  2748  0F1F                     	;# 
  2749  0F20                     	;# 
  2750  0F21                     	;# 
  2751  0F22                     	;# 
  2752  0F23                     	;# 
  2753  0F24                     	;# 
  2754  0F25                     	;# 
  2755  0F26                     	;# 
  2756  0F27                     	;# 
  2757  0F28                     	;# 
  2758  0F29                     	;# 
  2759  0F2A                     	;# 
  2760  0F2B                     	;# 
  2761  0F2C                     	;# 
  2762  0F2D                     	;# 
  2763  0F2E                     	;# 
  2764  0F2F                     	;# 
  2765  0F30                     	;# 
  2766  0F31                     	;# 
  2767  0F32                     	;# 
  2768  0F33                     	;# 
  2769  0F34                     	;# 
  2770  0F35                     	;# 
  2771  0F36                     	;# 
  2772  0F37                     	;# 
  2773  0FE4                     	;# 
  2774  0FE5                     	;# 
  2775  0FE6                     	;# 
  2776  0FE7                     	;# 
  2777  0FE8                     	;# 
  2778  0FE9                     	;# 
  2779  0FEA                     	;# 
  2780  0FEB                     	;# 
  2781  0FED                     	;# 
  2782  0FEE                     	;# 
  2783  0FEF                     	;# 
  2784  0000                     	;# 
  2785  0001                     	;# 
  2786  0002                     	;# 
  2787  0003                     	;# 
  2788  0004                     	;# 
  2789  0005                     	;# 
  2790  0006                     	;# 
  2791  0007                     	;# 
  2792  0008                     	;# 
  2793  0009                     	;# 
  2794  000A                     	;# 
  2795  000B                     	;# 
  2796  000C                     	;# 
  2797  000E                     	;# 
  2798  0010                     	;# 
  2799  0011                     	;# 
  2800  0012                     	;# 
  2801  0013                     	;# 
  2802  0014                     	;# 
  2803  0015                     	;# 
  2804  0015                     	;# 
  2805  0016                     	;# 
  2806  0016                     	;# 
  2807  0017                     	;# 
  2808  0018                     	;# 
  2809  0019                     	;# 
  2810  0019                     	;# 
  2811  001A                     	;# 
  2812  001B                     	;# 
  2813  001C                     	;# 
  2814  001D                     	;# 
  2815  001E                     	;# 
  2816  001F                     	;# 
  2817  008C                     	;# 
  2818  008E                     	;# 
  2819  0090                     	;# 
  2820  0091                     	;# 
  2821  0092                     	;# 
  2822  0093                     	;# 
  2823  0094                     	;# 
  2824  0097                     	;# 
  2825  009B                     	;# 
  2826  009B                     	;# 
  2827  009C                     	;# 
  2828  009D                     	;# 
  2829  009E                     	;# 
  2830  009F                     	;# 
  2831  010C                     	;# 
  2832  010E                     	;# 
  2833  0111                     	;# 
  2834  0112                     	;# 
  2835  0113                     	;# 
  2836  0114                     	;# 
  2837  0115                     	;# 
  2838  0116                     	;# 
  2839  0117                     	;# 
  2840  0118                     	;# 
  2841  0119                     	;# 
  2842  018C                     	;# 
  2843  018E                     	;# 
  2844  0197                     	;# 
  2845  0199                     	;# 
  2846  0199                     	;# 
  2847  0199                     	;# 
  2848  019A                     	;# 
  2849  019A                     	;# 
  2850  019A                     	;# 
  2851  019B                     	;# 
  2852  019B                     	;# 
  2853  019B                     	;# 
  2854  019B                     	;# 
  2855  019B                     	;# 
  2856  019C                     	;# 
  2857  019C                     	;# 
  2858  019C                     	;# 
  2859  019D                     	;# 
  2860  019D                     	;# 
  2861  019D                     	;# 
  2862  019E                     	;# 
  2863  019E                     	;# 
  2864  019E                     	;# 
  2865  019F                     	;# 
  2866  019F                     	;# 
  2867  019F                     	;# 
  2868  019F                     	;# 
  2869  019F                     	;# 
  2870  020C                     	;# 
  2871  020E                     	;# 
  2872  0211                     	;# 
  2873  0211                     	;# 
  2874  0212                     	;# 
  2875  0212                     	;# 
  2876  0213                     	;# 
  2877  0213                     	;# 
  2878  0214                     	;# 
  2879  0214                     	;# 
  2880  0215                     	;# 
  2881  0215                     	;# 
  2882  0215                     	;# 
  2883  0215                     	;# 
  2884  0216                     	;# 
  2885  0216                     	;# 
  2886  0217                     	;# 
  2887  0217                     	;# 
  2888  0219                     	;# 
  2889  021A                     	;# 
  2890  021B                     	;# 
  2891  021C                     	;# 
  2892  021D                     	;# 
  2893  021D                     	;# 
  2894  021E                     	;# 
  2895  021F                     	;# 
  2896  028C                     	;# 
  2897  028E                     	;# 
  2898  0291                     	;# 
  2899  0291                     	;# 
  2900  0292                     	;# 
  2901  0293                     	;# 
  2902  0294                     	;# 
  2903  0295                     	;# 
  2904  0295                     	;# 
  2905  0296                     	;# 
  2906  0297                     	;# 
  2907  0298                     	;# 
  2908  029F                     	;# 
  2909  030C                     	;# 
  2910  030E                     	;# 
  2911  0311                     	;# 
  2912  0311                     	;# 
  2913  0312                     	;# 
  2914  0313                     	;# 
  2915  0314                     	;# 
  2916  0315                     	;# 
  2917  0315                     	;# 
  2918  0316                     	;# 
  2919  0317                     	;# 
  2920  0318                     	;# 
  2921  038C                     	;# 
  2922  038E                     	;# 
  2923  0391                     	;# 
  2924  0392                     	;# 
  2925  0393                     	;# 
  2926  0397                     	;# 
  2927  0398                     	;# 
  2928  0399                     	;# 
  2929  039A                     	;# 
  2930  039C                     	;# 
  2931  039D                     	;# 
  2932  039E                     	;# 
  2933  039F                     	;# 
  2934  0411                     	;# 
  2935  0411                     	;# 
  2936  0412                     	;# 
  2937  0413                     	;# 
  2938  0414                     	;# 
  2939  0415                     	;# 
  2940  0416                     	;# 
  2941  0417                     	;# 
  2942  0418                     	;# 
  2943  0418                     	;# 
  2944  0419                     	;# 
  2945  041A                     	;# 
  2946  041B                     	;# 
  2947  041C                     	;# 
  2948  041D                     	;# 
  2949  041E                     	;# 
  2950  041F                     	;# 
  2951  0498                     	;# 
  2952  0498                     	;# 
  2953  0499                     	;# 
  2954  049A                     	;# 
  2955  049B                     	;# 
  2956  049B                     	;# 
  2957  049C                     	;# 
  2958  049D                     	;# 
  2959  049E                     	;# 
  2960  049F                     	;# 
  2961  0617                     	;# 
  2962  0618                     	;# 
  2963  0619                     	;# 
  2964  0619                     	;# 
  2965  061A                     	;# 
  2966  061B                     	;# 
  2967  061C                     	;# 
  2968  061C                     	;# 
  2969  061F                     	;# 
  2970  0691                     	;# 
  2971  0692                     	;# 
  2972  0693                     	;# 
  2973  0694                     	;# 
  2974  0695                     	;# 
  2975  0696                     	;# 
  2976  0697                     	;# 
  2977  0698                     	;# 
  2978  0699                     	;# 
  2979  0711                     	;# 
  2980  0712                     	;# 
  2981  0713                     	;# 
  2982  0714                     	;# 
  2983  0715                     	;# 
  2984  0716                     	;# 
  2985  0717                     	;# 
  2986  0718                     	;# 
  2987  0719                     	;# 
  2988  0891                     	;# 
  2989  0891                     	;# 
  2990  0891                     	;# 
  2991  0891                     	;# 
  2992  0891                     	;# 
  2993  0891                     	;# 
  2994  0892                     	;# 
  2995  0892                     	;# 
  2996  0892                     	;# 
  2997  0893                     	;# 
  2998  0893                     	;# 
  2999  0893                     	;# 
  3000  0893                     	;# 
  3001  0893                     	;# 
  3002  0893                     	;# 
  3003  0894                     	;# 
  3004  0894                     	;# 
  3005  0894                     	;# 
  3006  0895                     	;# 
  3007  0895                     	;# 
  3008  0895                     	;# 
  3009  0896                     	;# 
  3010  0896                     	;# 
  3011  0896                     	;# 
  3012  089B                     	;# 
  3013  0911                     	;# 
  3014  0912                     	;# 
  3015  0913                     	;# 
  3016  0914                     	;# 
  3017  0915                     	;# 
  3018  0916                     	;# 
  3019  0918                     	;# 
  3020  0919                     	;# 
  3021  091A                     	;# 
  3022  091B                     	;# 
  3023  091C                     	;# 
  3024  091D                     	;# 
  3025  091E                     	;# 
  3026  091F                     	;# 
  3027  0E0F                     	;# 
  3028  0E10                     	;# 
  3029  0E11                     	;# 
  3030  0E12                     	;# 
  3031  0E13                     	;# 
  3032  0E14                     	;# 
  3033  0E15                     	;# 
  3034  0E16                     	;# 
  3035  0E17                     	;# 
  3036  0E18                     	;# 
  3037  0E19                     	;# 
  3038  0E1A                     	;# 
  3039  0E1B                     	;# 
  3040  0E1C                     	;# 
  3041  0E1D                     	;# 
  3042  0E1E                     	;# 
  3043  0E1F                     	;# 
  3044  0E20                     	;# 
  3045  0E21                     	;# 
  3046  0E22                     	;# 
  3047  0E24                     	;# 
  3048  0E25                     	;# 
  3049  0E28                     	;# 
  3050  0E29                     	;# 
  3051  0E2A                     	;# 
  3052  0E2B                     	;# 
  3053  0E2C                     	;# 
  3054  0E2D                     	;# 
  3055  0E2E                     	;# 
  3056  0E2F                     	;# 
  3057  0E90                     	;# 
  3058  0E91                     	;# 
  3059  0E92                     	;# 
  3060  0E94                     	;# 
  3061  0E95                     	;# 
  3062  0EA0                     	;# 
  3063  0EA1                     	;# 
  3064  0EA2                     	;# 
  3065  0EA3                     	;# 
  3066  0EA4                     	;# 
  3067  0EA5                     	;# 
  3068  0F0F                     	;# 
  3069  0F10                     	;# 
  3070  0F11                     	;# 
  3071  0F12                     	;# 
  3072  0F13                     	;# 
  3073  0F14                     	;# 
  3074  0F15                     	;# 
  3075  0F16                     	;# 
  3076  0F17                     	;# 
  3077  0F18                     	;# 
  3078  0F19                     	;# 
  3079  0F1A                     	;# 
  3080  0F1B                     	;# 
  3081  0F1C                     	;# 
  3082  0F1D                     	;# 
  3083  0F1E                     	;# 
  3084  0F1F                     	;# 
  3085  0F20                     	;# 
  3086  0F21                     	;# 
  3087  0F22                     	;# 
  3088  0F23                     	;# 
  3089  0F24                     	;# 
  3090  0F25                     	;# 
  3091  0F26                     	;# 
  3092  0F27                     	;# 
  3093  0F28                     	;# 
  3094  0F29                     	;# 
  3095  0F2A                     	;# 
  3096  0F2B                     	;# 
  3097  0F2C                     	;# 
  3098  0F2D                     	;# 
  3099  0F2E                     	;# 
  3100  0F2F                     	;# 
  3101  0F30                     	;# 
  3102  0F31                     	;# 
  3103  0F32                     	;# 
  3104  0F33                     	;# 
  3105  0F34                     	;# 
  3106  0F35                     	;# 
  3107  0F36                     	;# 
  3108  0F37                     	;# 
  3109  0FE4                     	;# 
  3110  0FE5                     	;# 
  3111  0FE6                     	;# 
  3112  0FE7                     	;# 
  3113  0FE8                     	;# 
  3114  0FE9                     	;# 
  3115  0FEA                     	;# 
  3116  0FEB                     	;# 
  3117  0FED                     	;# 
  3118  0FEE                     	;# 
  3119  0FEF                     	;# 
  3120  000E                     _PORTCbits	set	14
  3121  000B                     _INTCONbits	set	11
  3122  0011                     _PIR1bits	set	17
  3123  008C                     _TRISAbits	set	140
  3124  008E                     _TRISCbits	set	142
  3125  008E                     _TRISC	set	142
  3126  008C                     _TRISA	set	140
  3127  0097                     _WDTCON	set	151
  3128  0091                     _PIE1bits	set	145
  3129  010E                     _LATC	set	270
  3130  010C                     _LATA	set	268
  3131  018C                     _ANSELA	set	396
  3132  018E                     _ANSELC	set	398
  3133  019A                     _TX1REG	set	410
  3134  0199                     _RC1REG	set	409
  3135  019D                     _RC1STAbits	set	413
  3136  019E                     _TX1STAbits	set	414
  3137  019C                     _SP1BRGH	set	412
  3138  019B                     _SP1BRGL	set	411
  3139  019E                     _TX1STA	set	414
  3140  019D                     _RC1STA	set	413
  3141  019F                     _BAUD1CON	set	415
  3142  0219                     _SSP2BUF	set	537
  3143  021C                     _SSP2STATbits	set	540
  3144  021D                     _SSP2CON1	set	541
  3145  021C                     _SSP2STAT	set	540
  3146  0211                     _SSPBUF	set	529
  3147  0216                     _SSP1CON2bits	set	534
  3148  0214                     _SSP1STAT	set	532
  3149  0212                     _SSP1ADD	set	530
  3150  0216                     _SSP1CON2	set	534
  3151  0215                     _SSP1CON1	set	533
  3152  020E                     _WPUC	set	526
  3153  020C                     _WPUA	set	524
  3154  028E                     _ODCONC	set	654
  3155  028C                     _ODCONA	set	652
  3156  0916                     _PMD5	set	2326
  3157  0915                     _PMD4	set	2325
  3158  0914                     _PMD3	set	2324
  3159  0913                     _PMD2	set	2323
  3160  0912                     _PMD1	set	2322
  3161  0911                     _PMD0	set	2321
  3162  091E                     _OSCTUNE	set	2334
  3163  091F                     _OSCFRQ	set	2335
  3164  091D                     _OSCEN	set	2333
  3165  091B                     _OSCCON3	set	2331
  3166  0919                     _OSCCON1	set	2329
  3167  0E1E                     _SSP2DATPPSbits	set	3614
  3168  0E1D                     _SSP2CLKPPSbits	set	3613
  3169  0E24                     _RXPPSbits	set	3620
  3170  0E20                     _SSP1CLKPPSbits	set	3616
  3171  0E21                     _SSP1DATPPSbits	set	3617
  3172  0E95                     _RA5PPSbits	set	3733
  3173  0EA2                     _RC2PPSbits	set	3746
  3174  0EA0                     _RC0PPSbits	set	3744
  3175  0EA4                     _RC4PPSbits	set	3748
  3176  0E94                     _RA4PPSbits	set	3732
  3177                           
  3178                           	psect	stringtext1
  3179  1800                     __pstringtext1:	
  3180  1800                     STR_1:	
  3181  1800  346C               	retlw	108	;'l'
  3182  1801  3461               	retlw	97	;'a'
  3183  1802  3420               	retlw	32	;' '
  3184  1803  3463               	retlw	99	;'c'
  3185  1804  346F               	retlw	111	;'o'
  3186  1805  346D               	retlw	109	;'m'
  3187  1806  346D               	retlw	109	;'m'
  3188  1807  3461               	retlw	97	;'a'
  3189  1808  346E               	retlw	110	;'n'
  3190  1809  3464               	retlw	100	;'d'
  3191  180A  3465               	retlw	101	;'e'
  3192  180B  3420               	retlw	32	;' '
  3193  180C  3465               	retlw	101	;'e'
  3194  180D  3473               	retlw	115	;'s'
  3195  180E  3474               	retlw	116	;'t'
  3196  180F  3420               	retlw	32	;' '
  3197  1810  343A               	retlw	58	;':'
  3198  1811  3420               	retlw	32	;' '
  3199  1812  340D               	retlw	13
  3200  1813  340A               	retlw	10
  3201  1814  3400               	retlw	0
  3202                           
  3203                           	psect	stringtext2
  3204  1815                     __pstringtext2:	
  3205  1815                     STR_2:	
  3206  1815  3420               	retlw	32	;' '
  3207  1816  3425               	retlw	37	;'%'
  3208  1817  3463               	retlw	99	;'c'
  3209  1818  3400               	retlw	0
  3210                           
  3211                           	psect	stringtext3
  3212  0000                     __pstringtext3:	
  3213                           
  3214                           ; #config settings
  3215  0000                     
  3216                           	psect	cinit
  3217  0035                     start_initialization:	
  3218  0035                     __initialization:	
  3219                           
  3220                           ; Clear objects allocated to BANK0
  3221  0035  0020               	movlb	0	; select bank0
  3222  0036  01E8               	clrf	__pbssBANK0& (0+127)
  3223  0037  01E9               	clrf	(__pbssBANK0+1)& (0+127)
  3224  0038  01EA               	clrf	(__pbssBANK0+2)& (0+127)
  3225  0039  01EB               	clrf	(__pbssBANK0+3)& (0+127)
  3226  003A  01EC               	clrf	(__pbssBANK0+4)& (0+127)
  3227                           
  3228                           ; Clear objects allocated to BANK1
  3229  003B  30A0               	movlw	low __pbssBANK1
  3230  003C  0084               	movwf	4
  3231  003D  3000               	movlw	high __pbssBANK1
  3232  003E  0085               	movwf	5
  3233  003F  3025               	movlw	37
  3234  0040  3196  260C         	fcall	clear_ram0
  3235  0042                     end_of_initialization:	
  3236                           ;End of C runtime variable initialization code
  3237                           
  3238  0042                     __end_of__initialization:	
  3239  0042  107E               	bcf	int$flags,0	;clear compiler interrupt flag (level 1)
  3240  0043  0020               	movlb	0
  3241  0044  318A  2A72         	ljmp	_main	;jump to C main() function
  3242                           
  3243                           	psect	bssBANK0
  3244  0068                     __pbssBANK0:	
  3245  0068                     _t_fine:	
  3246  0068                     	ds	4
  3247  006C                     _RX_byte:	
  3248  006C                     	ds	1
  3249                           
  3250                           	psect	bssBANK1
  3251  00A0                     __pbssBANK1:	
  3252  00A0                     _monBuffer:	
  3253  00A0                     	ds	4
  3254  00A4                     _cal_data:	
  3255  00A4                     	ds	33
  3256                           
  3257                           	psect	clrtext
  3258  160C                     clear_ram0:	
  3259                           ;	Called with FSR0 containing the base address, and
  3260                           ;	WREG with the size to clear
  3261                           
  3262  160C  0064               	clrwdt	;clear the watchdog before getting into this loop
  3263  160D                     clrloop0:	
  3264  160D  0180               	clrf	0	;clear RAM location pointed to by FSR
  3265  160E  3101               	addfsr 0,1
  3266  160F  0B89               	decfsz	9,f	;Have we reached the end of clearing yet?
  3267  1610  2E0D               	goto	clrloop0	;have we reached the end yet?
  3268  1611  3400               	retlw	0	;all done for this memory range, return
  3269                           
  3270                           	psect	cstackBANK1
  3271  00C5                     __pcstackBANK1:	
  3272  00C5                     BME280_readTemperature@var1:	
  3273  00C5                     BME280_readHumidity@adc_H:	
  3274                           ; 4 bytes @ 0x0
  3275                           
  3276  00C5                     BME280_readPressure@adc_P:	
  3277                           ; 4 bytes @ 0x0
  3278                           
  3279                           
  3280                           ; 4 bytes @ 0x0
  3281  00C5                     	ds	4
  3282  00C9                     BME280_readTemperature@var2:	
  3283  00C9                     _BME280_readHumidity$1422:	
  3284                           ; 4 bytes @ 0x4
  3285                           
  3286  00C9                     _BME280_readPressure$1426:	
  3287                           ; 4 bytes @ 0x4
  3288                           
  3289                           
  3290                           ; 4 bytes @ 0x4
  3291  00C9                     	ds	4
  3292  00CD                     BME280_readPressure@var2:	
  3293  00CD                     _BME280_readTemperature$1420:	
  3294                           ; 4 bytes @ 0x8
  3295                           
  3296  00CD                     _BME280_readHumidity$1423:	
  3297                           ; 4 bytes @ 0x8
  3298                           
  3299                           
  3300                           ; 4 bytes @ 0x8
  3301  00CD                     	ds	4
  3302  00D1                     BME280_readTemperature@temperature:	
  3303  00D1                     BME280_readPressure@p:	
  3304                           ; 3 bytes @ 0xC
  3305                           
  3306  00D1                     _BME280_readHumidity$1424:	
  3307                           ; 4 bytes @ 0xC
  3308                           
  3309                           
  3310                           ; 4 bytes @ 0xC
  3311  00D1                     	ds	3
  3312  00D4                     BME280_readTemperature@adc_T:	
  3313                           
  3314                           ; 4 bytes @ 0xF
  3315  00D4                     	ds	1
  3316  00D5                     BME280_readPressure@var1:	
  3317  00D5                     _BME280_readHumidity$1425:	
  3318                           ; 4 bytes @ 0x10
  3319                           
  3320                           
  3321                           ; 4 bytes @ 0x10
  3322  00D5                     	ds	4
  3323  00D9                     BME280_readHumidity@h:	
  3324                           
  3325                           ; 3 bytes @ 0x14
  3326  00D9                     	ds	3
  3327  00DC                     _BME280_readHumidity$1421:	
  3328                           
  3329                           ; 4 bytes @ 0x17
  3330  00DC                     	ds	4
  3331  00E0                     BME280_readHumidity@v_x1_u32r:	
  3332                           
  3333                           ; 4 bytes @ 0x1B
  3334  00E0                     	ds	4
  3335                           
  3336                           	psect	cstackCOMMON
  3337  0070                     __pcstackCOMMON:	
  3338  0070                     ?_interpretation:	
  3339  0070                     ?_PMD_Initialize:	
  3340                           ; 1 bytes @ 0x0
  3341                           
  3342  0070                     ?_PIN_MANAGER_Initialize:	
  3343                           ; 1 bytes @ 0x0
  3344                           
  3345  0070                     ?_OSCILLATOR_Initialize:	
  3346                           ; 1 bytes @ 0x0
  3347                           
  3348  0070                     ?_WDT_Initialize:	
  3349                           ; 1 bytes @ 0x0
  3350                           
  3351  0070                     ?_readSensorCoefficients:	
  3352                           ; 1 bytes @ 0x0
  3353                           
  3354  0070                     ?_BME280_goForceMode:	
  3355                           ; 1 bytes @ 0x0
  3356                           
  3357  0070                     ?_spiWrite:	
  3358                           ; 1 bytes @ 0x0
  3359                           
  3360  0070                     ?_EUSART_Initialize:	
  3361                           ; 1 bytes @ 0x0
  3362                           
  3363  0070                     ?_EUSART_Read:	
  3364                           ; 1 bytes @ 0x0
  3365                           
  3366  0070                     ??_EUSART_Read:	
  3367                           ; 1 bytes @ 0x0
  3368                           
  3369  0070                     ?_EUSART_Write:	
  3370                           ; 1 bytes @ 0x0
  3371                           
  3372  0070                     ??_EUSART_Write:	
  3373                           ; 1 bytes @ 0x0
  3374                           
  3375  0070                     ?_putch:	
  3376                           ; 1 bytes @ 0x0
  3377                           
  3378  0070                     ?_EnableGlobalinterupts:	
  3379                           ; 1 bytes @ 0x0
  3380                           
  3381  0070                     ?_EnablePeripheralInterupts:	
  3382                           ; 1 bytes @ 0x0
  3383                           
  3384  0070                     ?_EnableRXInterupts:	
  3385                           ; 1 bytes @ 0x0
  3386                           
  3387  0070                     ?_interupt1:	
  3388                           ; 1 bytes @ 0x0
  3389                           
  3390  0070                     ?_SYSTEM_Initialize:	
  3391                           ; 1 bytes @ 0x0
  3392                           
  3393  0070                     ?_main:	
  3394                           ; 1 bytes @ 0x0
  3395                           
  3396  0070                     ?_I2C_Master_Wait:	
  3397                           ; 1 bytes @ 0x0
  3398                           
  3399  0070                     ?_I2C_Master_Start:	
  3400                           ; 1 bytes @ 0x0
  3401                           
  3402  0070                     ?_I2C_Master_Stop:	
  3403                           ; 1 bytes @ 0x0
  3404                           
  3405  0070                     ?_BH1750_Write:	
  3406                           ; 1 bytes @ 0x0
  3407                           
  3408  0070                     ?_BME280_read8:	
  3409                           ; 1 bytes @ 0x0
  3410                           
  3411  0070                     EUSART_Write@txData:	
  3412                           ; 1 bytes @ 0x0
  3413                           
  3414                           
  3415                           ; 1 bytes @ 0x0
  3416  0070                     	ds	1
  3417  0071                     ??_putch:	
  3418  0071                     putch@txData:	
  3419                           ; 1 bytes @ 0x1
  3420                           
  3421                           
  3422                           ; 1 bytes @ 0x1
  3423  0071                     	ds	1
  3424  0072                     ?_printf:	
  3425  0072                     printf@f:	
  3426                           ; 2 bytes @ 0x2
  3427                           
  3428                           
  3429                           ; 2 bytes @ 0x2
  3430  0072                     	ds	4
  3431  0076                     ??_printf:	
  3432                           
  3433                           ; 1 bytes @ 0x6
  3434  0076                     	ds	3
  3435  0079                     printf@flag:	
  3436                           
  3437                           ; 1 bytes @ 0x9
  3438  0079                     	ds	1
  3439  007A                     printf@ap:	
  3440                           
  3441                           ; 1 bytes @ 0xA
  3442  007A                     	ds	1
  3443  007B                     printf@c:	
  3444                           
  3445                           ; 1 bytes @ 0xB
  3446  007B                     	ds	1
  3447  007C                     ??_interpretation:	
  3448                           
  3449                           ; 1 bytes @ 0xC
  3450  007C                     	ds	2
  3451                           
  3452                           	psect	cstackBANK0
  3453  0020                     __pcstackBANK0:	
  3454  0020                     interpretation@i:	
  3455                           
  3456                           ; 1 bytes @ 0x0
  3457  0020                     	ds	1
  3458  0021                     ??_interupt1:	
  3459                           
  3460                           ; 1 bytes @ 0x1
  3461  0021                     	ds	2
  3462  0023                     ??_PMD_Initialize:	
  3463  0023                     ??_PIN_MANAGER_Initialize:	
  3464                           ; 1 bytes @ 0x3
  3465                           
  3466  0023                     ??_OSCILLATOR_Initialize:	
  3467                           ; 1 bytes @ 0x3
  3468                           
  3469  0023                     ??_WDT_Initialize:	
  3470                           ; 1 bytes @ 0x3
  3471                           
  3472  0023                     ?_spiInit:	
  3473                           ; 1 bytes @ 0x3
  3474                           
  3475  0023                     ??_spiWrite:	
  3476                           ; 1 bytes @ 0x3
  3477                           
  3478  0023                     ??_EUSART_Initialize:	
  3479                           ; 1 bytes @ 0x3
  3480                           
  3481  0023                     ??_EnableGlobalinterupts:	
  3482                           ; 1 bytes @ 0x3
  3483                           
  3484  0023                     ??_EnablePeripheralInterupts:	
  3485                           ; 1 bytes @ 0x3
  3486                           
  3487  0023                     ??_EnableRXInterupts:	
  3488                           ; 1 bytes @ 0x3
  3489                           
  3490  0023                     ??_I2C_Master_Wait:	
  3491                           ; 1 bytes @ 0x3
  3492                           
  3493  0023                     ??_I2C_Master_Start:	
  3494                           ; 1 bytes @ 0x3
  3495                           
  3496  0023                     ??_I2C_Master_Stop:	
  3497                           ; 1 bytes @ 0x3
  3498                           
  3499  0023                     ?_I2C_Master_Write:	
  3500                           ; 1 bytes @ 0x3
  3501                           
  3502  0023                     ?_I2C_Master_Read:	
  3503                           ; 1 bytes @ 0x3
  3504                           
  3505  0023                     ?___ftpack:	
  3506                           ; 2 bytes @ 0x3
  3507                           
  3508  0023                     ?___lmul:	
  3509                           ; 3 bytes @ 0x3
  3510                           
  3511  0023                     ?___lldiv:	
  3512                           ; 4 bytes @ 0x3
  3513                           
  3514  0023                     spiInit@sDataSample:	
  3515                           ; 4 bytes @ 0x3
  3516                           
  3517  0023                     spiWrite@dat:	
  3518                           ; 1 bytes @ 0x3
  3519                           
  3520  0023                     I2C_Master_Write@d:	
  3521                           ; 1 bytes @ 0x3
  3522                           
  3523  0023                     I2C_Master_Read@a:	
  3524                           ; 2 bytes @ 0x3
  3525                           
  3526  0023                     ___ftpack@arg:	
  3527                           ; 2 bytes @ 0x3
  3528                           
  3529  0023                     ___lmul@multiplier:	
  3530                           ; 3 bytes @ 0x3
  3531                           
  3532  0023                     ___lldiv@divisor:	
  3533                           ; 4 bytes @ 0x3
  3534                           
  3535                           
  3536                           ; 4 bytes @ 0x3
  3537  0023                     	ds	1
  3538  0024                     spiInit@sClockIdle:	
  3539                           
  3540                           ; 1 bytes @ 0x4
  3541  0024                     	ds	1
  3542  0025                     ?_BME280_write8:	
  3543  0025                     ??_I2C_Master_Write:	
  3544                           ; 1 bytes @ 0x5
  3545                           
  3546  0025                     ??_I2C_Master_Read:	
  3547                           ; 1 bytes @ 0x5
  3548                           
  3549  0025                     ??_BH1750_Write:	
  3550                           ; 1 bytes @ 0x5
  3551                           
  3552  0025                     BME280_write8@value:	
  3553                           ; 1 bytes @ 0x5
  3554                           
  3555  0025                     spiInit@sTransmitEdge:	
  3556                           ; 1 bytes @ 0x5
  3557                           
  3558                           
  3559                           ; 1 bytes @ 0x5
  3560  0025                     	ds	1
  3561  0026                     ??_spiInit:	
  3562  0026                     ??_BME280_write8:	
  3563                           ; 1 bytes @ 0x6
  3564                           
  3565  0026                     spiInit@sType:	
  3566                           ; 1 bytes @ 0x6
  3567                           
  3568  0026                     ___ftpack@exp:	
  3569                           ; 1 bytes @ 0x6
  3570                           
  3571                           
  3572                           ; 1 bytes @ 0x6
  3573  0026                     	ds	1
  3574  0027                     BH1750_Write@data1:	
  3575  0027                     ___ftpack@sign:	
  3576                           ; 1 bytes @ 0x7
  3577                           
  3578  0027                     I2C_Master_Read@temp:	
  3579                           ; 1 bytes @ 0x7
  3580                           
  3581  0027                     ___lmul@multiplicand:	
  3582                           ; 2 bytes @ 0x7
  3583                           
  3584  0027                     ___lldiv@dividend:	
  3585                           ; 4 bytes @ 0x7
  3586                           
  3587                           
  3588                           ; 4 bytes @ 0x7
  3589  0027                     	ds	1
  3590  0028                     ??___ftpack:	
  3591  0028                     BME280_write8@reg:	
  3592                           ; 1 bytes @ 0x8
  3593                           
  3594                           
  3595                           ; 1 bytes @ 0x8
  3596  0028                     	ds	1
  3597  0029                     ??_BME280_read8:	
  3598  0029                     ?_BH1750_Read:	
  3599                           ; 1 bytes @ 0x9
  3600                           
  3601  0029                     ?_BME280_read16:	
  3602                           ; 2 bytes @ 0x9
  3603                           
  3604  0029                     ?_BME280_read24:	
  3605                           ; 2 bytes @ 0x9
  3606                           
  3607                           
  3608                           ; 4 bytes @ 0x9
  3609  0029                     	ds	2
  3610  002B                     ??_BH1750_Read:	
  3611  002B                     ??_BME280_read16:	
  3612                           ; 1 bytes @ 0xB
  3613                           
  3614  002B                     ??___lmul:	
  3615                           ; 1 bytes @ 0xB
  3616                           
  3617  002B                     ??___lldiv:	
  3618                           ; 1 bytes @ 0xB
  3619                           
  3620  002B                     ?___lltoft:	
  3621                           ; 1 bytes @ 0xB
  3622                           
  3623  002B                     ?___lwtoft:	
  3624                           ; 3 bytes @ 0xB
  3625                           
  3626  002B                     BME280_read8@reg:	
  3627                           ; 3 bytes @ 0xB
  3628                           
  3629  002B                     BH1750_Read@res:	
  3630                           ; 1 bytes @ 0xB
  3631                           
  3632  002B                     ___lwtoft@c:	
  3633                           ; 2 bytes @ 0xB
  3634                           
  3635  002B                     ___lmul@product:	
  3636                           ; 2 bytes @ 0xB
  3637                           
  3638  002B                     ___lltoft@c:	
  3639                           ; 4 bytes @ 0xB
  3640                           
  3641                           
  3642                           ; 4 bytes @ 0xB
  3643  002B                     	ds	1
  3644  002C                     BME280_read8@temp:	
  3645  002C                     ___lldiv@quotient:	
  3646                           ; 1 bytes @ 0xC
  3647                           
  3648                           
  3649                           ; 4 bytes @ 0xC
  3650  002C                     	ds	1
  3651  002D                     ??_BME280_goForceMode:	
  3652  002D                     ??_BME280_read24:	
  3653                           ; 1 bytes @ 0xD
  3654                           
  3655  002D                     BME280_read16@reg:	
  3656                           ; 1 bytes @ 0xD
  3657                           
  3658                           
  3659                           ; 1 bytes @ 0xD
  3660  002D                     	ds	1
  3661  002E                     ??___lwtoft:	
  3662  002E                     BME280_goForceMode@mode:	
  3663                           ; 1 bytes @ 0xE
  3664                           
  3665  002E                     BME280_read16@temp:	
  3666                           ; 1 bytes @ 0xE
  3667                           
  3668                           
  3669                           ; 2 bytes @ 0xE
  3670  002E                     	ds	1
  3671  002F                     ??___lltoft:	
  3672  002F                     ?___altoft:	
  3673                           ; 1 bytes @ 0xF
  3674                           
  3675  002F                     ___altoft@c:	
  3676                           ; 3 bytes @ 0xF
  3677                           
  3678                           
  3679                           ; 4 bytes @ 0xF
  3680  002F                     	ds	1
  3681  0030                     ?_BME280_read16_LE:	
  3682  0030                     ___lldiv@counter:	
  3683                           ; 2 bytes @ 0x10
  3684                           
  3685  0030                     ___lltoft@exp:	
  3686                           ; 1 bytes @ 0x10
  3687                           
  3688                           
  3689                           ; 1 bytes @ 0x10
  3690  0030                     	ds	1
  3691  0031                     ?_I2C_Master_Init:	
  3692  0031                     ?___ftdiv:	
  3693                           ; 1 bytes @ 0x11
  3694                           
  3695  0031                     BME280_read24@reg:	
  3696                           ; 3 bytes @ 0x11
  3697                           
  3698  0031                     ___ftdiv@f2:	
  3699                           ; 1 bytes @ 0x11
  3700                           
  3701  0031                     I2C_Master_Init@c:	
  3702                           ; 3 bytes @ 0x11
  3703                           
  3704                           
  3705                           ; 4 bytes @ 0x11
  3706  0031                     	ds	1
  3707  0032                     ??_BME280_read16_LE:	
  3708  0032                     BME280_read24@temp:	
  3709                           ; 1 bytes @ 0x12
  3710                           
  3711                           
  3712                           ; 4 bytes @ 0x12
  3713  0032                     	ds	1
  3714  0033                     ??___altoft:	
  3715                           
  3716                           ; 1 bytes @ 0x13
  3717  0033                     	ds	1
  3718  0034                     ___ftdiv@f1:	
  3719                           
  3720                           ; 3 bytes @ 0x14
  3721  0034                     	ds	1
  3722  0035                     ??_I2C_Master_Init:	
  3723  0035                     ___altoft@exp:	
  3724                           ; 1 bytes @ 0x15
  3725                           
  3726                           
  3727                           ; 1 bytes @ 0x15
  3728  0035                     	ds	1
  3729  0036                     BME280_read16_LE@reg:	
  3730  0036                     ___altoft@sign:	
  3731                           ; 1 bytes @ 0x16
  3732                           
  3733                           
  3734                           ; 1 bytes @ 0x16
  3735  0036                     	ds	1
  3736  0037                     ??___ftdiv:	
  3737  0037                     BME280_read16_LE@temp:	
  3738                           ; 1 bytes @ 0x17
  3739                           
  3740                           
  3741                           ; 2 bytes @ 0x17
  3742  0037                     	ds	2
  3743  0039                     ??_SYSTEM_Initialize:	
  3744  0039                     ?_BME280_readS16_LE:	
  3745                           ; 1 bytes @ 0x19
  3746                           
  3747                           
  3748                           ; 2 bytes @ 0x19
  3749  0039                     	ds	2
  3750  003B                     ___ftdiv@cntr:	
  3751                           
  3752                           ; 1 bytes @ 0x1B
  3753  003B                     	ds	1
  3754  003C                     ??_BME280_readS16_LE:	
  3755  003C                     BME280_readS16_LE@reg:	
  3756                           ; 1 bytes @ 0x1C
  3757                           
  3758  003C                     ___ftdiv@f3:	
  3759                           ; 1 bytes @ 0x1C
  3760                           
  3761                           
  3762                           ; 3 bytes @ 0x1C
  3763  003C                     	ds	1
  3764  003D                     ??_readSensorCoefficients:	
  3765                           
  3766                           ; 1 bytes @ 0x1D
  3767  003D                     	ds	2
  3768  003F                     ___ftdiv@exp:	
  3769                           
  3770                           ; 1 bytes @ 0x1F
  3771  003F                     	ds	1
  3772  0040                     ___ftdiv@sign:	
  3773                           
  3774                           ; 1 bytes @ 0x20
  3775  0040                     	ds	1
  3776  0041                     ?_BME280_readTemperature:	
  3777  0041                     ?_BME280_readHumidity:	
  3778                           ; 3 bytes @ 0x21
  3779                           
  3780  0041                     ?_BME280_readPressure:	
  3781                           ; 3 bytes @ 0x21
  3782                           
  3783  0041                     ?___fttol:	
  3784                           ; 3 bytes @ 0x21
  3785                           
  3786  0041                     ___fttol@f1:	
  3787                           ; 4 bytes @ 0x21
  3788                           
  3789                           
  3790                           ; 3 bytes @ 0x21
  3791  0041                     	ds	3
  3792  0044                     ??_BME280_readTemperature:	
  3793  0044                     ??_BME280_readHumidity:	
  3794                           ; 1 bytes @ 0x24
  3795                           
  3796  0044                     ??_BME280_readPressure:	
  3797                           ; 1 bytes @ 0x24
  3798                           
  3799                           
  3800                           ; 1 bytes @ 0x24
  3801  0044                     	ds	1
  3802  0045                     ??___fttol:	
  3803                           
  3804                           ; 1 bytes @ 0x25
  3805  0045                     	ds	4
  3806  0049                     ___fttol@sign1:	
  3807                           
  3808                           ; 1 bytes @ 0x29
  3809  0049                     	ds	1
  3810  004A                     ___fttol@lval:	
  3811                           
  3812                           ; 4 bytes @ 0x2A
  3813  004A                     	ds	4
  3814  004E                     ___fttol@exp1:	
  3815                           
  3816                           ; 1 bytes @ 0x2E
  3817  004E                     	ds	1
  3818  004F                     ?_LireLux:	
  3819                           
  3820                           ; 2 bytes @ 0x2F
  3821  004F                     	ds	2
  3822  0051                     ??_LireLux:	
  3823                           
  3824                           ; 1 bytes @ 0x31
  3825  0051                     	ds	1
  3826  0052                     LireLux@resolution:	
  3827                           
  3828                           ; 1 bytes @ 0x32
  3829  0052                     	ds	1
  3830  0053                     LireLux@lux:	
  3831                           
  3832                           ; 2 bytes @ 0x33
  3833  0053                     	ds	8
  3834  005B                     ??_main:	
  3835                           
  3836                           ; 1 bytes @ 0x3B
  3837  005B                     	ds	2
  3838  005D                     main@temperature:	
  3839                           
  3840                           ; 3 bytes @ 0x3D
  3841  005D                     	ds	3
  3842  0060                     main@humidity:	
  3843                           
  3844                           ; 3 bytes @ 0x40
  3845  0060                     	ds	3
  3846  0063                     main@pressure:	
  3847                           
  3848                           ; 3 bytes @ 0x43
  3849  0063                     	ds	3
  3850  0066                     main@lux:	
  3851                           
  3852                           ; 2 bytes @ 0x46
  3853  0066                     	ds	2
  3854                           
  3855                           	psect	maintext
  3856  0A72                     __pmaintext:	
  3857 ;;
  3858 ;;Main: autosize = 0, tempsize = 2, incstack = 0, save=0
  3859 ;;
  3860 ;; *************** function _main *****************
  3861 ;; Defined at:
  3862 ;;		line 44 in file "main.c"
  3863 ;; Parameters:    Size  Location     Type
  3864 ;;		None
  3865 ;; Auto vars:     Size  Location     Type
  3866 ;;  pressure        3   67[BANK0 ] float 
  3867 ;;  humidity        3   64[BANK0 ] float 
  3868 ;;  temperature     3   61[BANK0 ] float 
  3869 ;;  lux             2   70[BANK0 ] unsigned int 
  3870 ;; Return value:  Size  Location     Type
  3871 ;;                  1    wreg      void 
  3872 ;; Registers used:
  3873 ;;		wreg, fsr0l, fsr0h, status,2, status,0, pclath, cstack
  3874 ;; Tracked objects:
  3875 ;;		On entry : B1F/0
  3876 ;;		On exit  : 0/0
  3877 ;;		Unchanged: 0/0
  3878 ;; Data sizes:     COMMON   BANK0   BANK1   BANK2   BANK3   BANK4   BANK5   BANK6   BANK7   BANK8   BANK9  BANK10  BANK1
      +1  BANK12
  3879 ;;      Params:         0       0       0       0       0       0       0       0       0       0       0       0       
      +0       0
  3880 ;;      Locals:         0      11       0       0       0       0       0       0       0       0       0       0       
      +0       0
  3881 ;;      Temps:          0       2       0       0       0       0       0       0       0       0       0       0       
      +0       0
  3882 ;;      Totals:         0      13       0       0       0       0       0       0       0       0       0       0       
      +0       0
  3883 ;;Total ram usage:       13 bytes
  3884 ;; Hardware stack levels required when called:   11
  3885 ;; This function calls:
  3886 ;;		_BME280_goForceMode
  3887 ;;		_BME280_readHumidity
  3888 ;;		_BME280_readPressure
  3889 ;;		_BME280_readTemperature
  3890 ;;		_BME280_write8
  3891 ;;		_EnableGlobalinterupts
  3892 ;;		_EnablePeripheralInterupts
  3893 ;;		_EnableRXInterupts
  3894 ;;		_LireLux
  3895 ;;		_SYSTEM_Initialize
  3896 ;;		_readSensorCoefficients
  3897 ;;		_spiWrite
  3898 ;; This function is called by:
  3899 ;;		Startup code after reset
  3900 ;; This function uses a non-reentrant model
  3901 ;;
  3902                           
  3903                           
  3904                           ;psect for function _main
  3905  0A72                     _main:	
  3906                           
  3907                           ;main.c: 47: SYSTEM_Initialize();
  3908                           
  3909                           ;incstack = 0
  3910                           ; Regs used in _main: [wreg-fsr0h+status,2+status,0+pclath+cstack]
  3911  0A72  3196  26D8  318A   	fcall	_SYSTEM_Initialize
  3912                           
  3913                           ;main.c: 50: uint16_t lux ;
  3914                           ;main.c: 51: float temperature ;
  3915                           ;main.c: 52: float humidity ;
  3916                           ;main.c: 53: float pressure ;
  3917                           ;main.c: 54: BME280_write8(0xF2, 0x01);
  3918  0A75  0020               	movlb	0	; select bank0
  3919  0A76  01A5               	clrf	BME280_write8@value
  3920  0A77  0AA5               	incf	BME280_write8@value,f
  3921  0A78  30F2               	movlw	242
  3922  0A79  3197  2771  318A   	fcall	_BME280_write8
  3923                           
  3924                           ;main.c: 55: BME280_write8(0xF4, 0b00100100);
  3925  0A7C  3024               	movlw	36
  3926  0A7D  0020               	movlb	0	; select bank0
  3927  0A7E  00DB               	movwf	??_main
  3928  0A7F  085B               	movf	??_main,w
  3929  0A80  00A5               	movwf	BME280_write8@value
  3930  0A81  30F4               	movlw	244
  3931  0A82  3197  2771  318A   	fcall	_BME280_write8
  3932                           
  3933                           ;main.c: 56: readSensorCoefficients();
  3934  0A85  318B  23F2  318A   	fcall	_readSensorCoefficients
  3935                           
  3936                           ;main.c: 57: EnableGlobalinterupts();
  3937  0A88  3195  25F2  318A   	fcall	_EnableGlobalinterupts
  3938                           
  3939                           ;main.c: 58: EnablePeripheralInterupts();
  3940  0A8B  3180  2002  318A   	fcall	_EnablePeripheralInterupts
  3941                           
  3942                           ;main.c: 59: EnableRXInterupts();
  3943  0A8E  3195  25F4  318A   	fcall	_EnableRXInterupts
  3944                           
  3945                           ;main.c: 60: TRISCbits.TRISC3 = 0 ;
  3946  0A91  0021               	movlb	1	; select bank1
  3947  0A92  118E               	bcf	14,3	;volatile
  3948  0A93                     l2555:	
  3949                           ;main.c: 61: while(1)
  3950                           
  3951                           
  3952                           ;main.c: 62: {
  3953                           ;main.c: 64: PORTCbits.RC3 =1;
  3954  0A93  0020               	movlb	0	; select bank0
  3955  0A94  158E               	bsf	14,3	;volatile
  3956                           
  3957                           ;main.c: 65: _delay((unsigned long)((1000)*(2000000/4000.0)));
  3958  0A95  3003               	movlw	3
  3959  0A96  0020               	movlb	0	; select bank0
  3960  0A97  00DC               	movwf	??_main+1
  3961  0A98  308A               	movlw	138
  3962  0A99  00DB               	movwf	??_main
  3963  0A9A  3055               	movlw	85
  3964  0A9B                     u3307:	
  3965  0A9B  0B89               	decfsz	9,f
  3966  0A9C  2A9B               	goto	u3307
  3967  0A9D  0BDB               	decfsz	??_main,f
  3968  0A9E  2A9B               	goto	u3307
  3969  0A9F  0BDC               	decfsz	??_main+1,f
  3970  0AA0  2A9B               	goto	u3307
  3971  0AA1  3200               	nop2
  3972                           
  3973                           ;main.c: 66: BME280_goForceMode();
  3974  0AA2  3196  2671  318A   	fcall	_BME280_goForceMode
  3975                           
  3976                           ;main.c: 67: PORTCbits.RC3 =0;
  3977  0AA5  0020               	movlb	0	; select bank0
  3978  0AA6  118E               	bcf	14,3	;volatile
  3979                           
  3980                           ;main.c: 68: lux = LireLux(1);
  3981  0AA7  3001               	movlw	1
  3982  0AA8  3189  21AB  318A   	fcall	_LireLux
  3983  0AAB  0020               	movlb	0	; select bank0
  3984  0AAC  0850               	movf	?_LireLux+1,w
  3985  0AAD  00E7               	movwf	main@lux+1
  3986  0AAE  084F               	movf	?_LireLux,w
  3987  0AAF  00E6               	movwf	main@lux
  3988                           
  3989                           ;main.c: 69: _delay((unsigned long)((1000)*(2000000/4000.0)));
  3990  0AB0  3003               	movlw	3
  3991  0AB1  0020               	movlb	0	; select bank0
  3992  0AB2  00DC               	movwf	??_main+1
  3993  0AB3  308A               	movlw	138
  3994  0AB4  00DB               	movwf	??_main
  3995  0AB5  3055               	movlw	85
  3996  0AB6                     u3317:	
  3997  0AB6  0B89               	decfsz	9,f
  3998  0AB7  2AB6               	goto	u3317
  3999  0AB8  0BDB               	decfsz	??_main,f
  4000  0AB9  2AB6               	goto	u3317
  4001  0ABA  0BDC               	decfsz	??_main+1,f
  4002  0ABB  2AB6               	goto	u3317
  4003  0ABC  3200               	nop2
  4004                           
  4005                           ;main.c: 72: temperature = BME280_readTemperature();
  4006  0ABD  3185  2521  318A   	fcall	_BME280_readTemperature
  4007  0AC0  0020               	movlb	0	; select bank0
  4008  0AC1  0841               	movf	?_BME280_readTemperature,w
  4009  0AC2  00DD               	movwf	main@temperature
  4010  0AC3  0842               	movf	?_BME280_readTemperature+1,w
  4011  0AC4  00DE               	movwf	main@temperature+1
  4012  0AC5  0843               	movf	?_BME280_readTemperature+2,w
  4013  0AC6  00DF               	movwf	main@temperature+2
  4014                           
  4015                           ;main.c: 73: humidity = BME280_readHumidity();
  4016  0AC7  318C  24F0  318A   	fcall	_BME280_readHumidity
  4017  0ACA  0020               	movlb	0	; select bank0
  4018  0ACB  0841               	movf	?_BME280_readHumidity,w
  4019  0ACC  00E0               	movwf	main@humidity
  4020  0ACD  0842               	movf	?_BME280_readHumidity+1,w
  4021  0ACE  00E1               	movwf	main@humidity+1
  4022  0ACF  0843               	movf	?_BME280_readHumidity+2,w
  4023  0AD0  00E2               	movwf	main@humidity+2
  4024                           
  4025                           ;main.c: 74: pressure = BME280_readPressure();
  4026  0AD1  3180  2046  318A   	fcall	_BME280_readPressure
  4027  0AD4  0020               	movlb	0	; select bank0
  4028  0AD5  0841               	movf	?_BME280_readPressure,w
  4029  0AD6  00E3               	movwf	main@pressure
  4030  0AD7  0842               	movf	?_BME280_readPressure+1,w
  4031  0AD8  00E4               	movwf	main@pressure+1
  4032  0AD9  0843               	movf	?_BME280_readPressure+2,w
  4033  0ADA  00E5               	movwf	main@pressure+2
  4034                           
  4035                           ;main.c: 80: spiWrite(0xAA);
  4036  0ADB  30AA               	movlw	170
  4037  0ADC  3196  2606  318A   	fcall	_spiWrite
  4038  0ADF  2A93               	goto	l2555
  4039  0AE0                     __end_of_main:	
  4040                           
  4041                           	psect	text1
  4042  1606                     __ptext1:	
  4043 ;; *************** function _spiWrite *****************
  4044 ;; Defined at:
  4045 ;;		line 30 in file "SPI2.c"
  4046 ;; Parameters:    Size  Location     Type
  4047 ;;  dat             1    wreg     unsigned char 
  4048 ;; Auto vars:     Size  Location     Type
  4049 ;;  dat             1    3[BANK0 ] unsigned char 
  4050 ;; Return value:  Size  Location     Type
  4051 ;;                  1    wreg      void 
  4052 ;; Registers used:
  4053 ;;		wreg
  4054 ;; Tracked objects:
  4055 ;;		On entry : 0/0
  4056 ;;		On exit  : 0/0
  4057 ;;		Unchanged: 0/0
  4058 ;; Data sizes:     COMMON   BANK0   BANK1   BANK2   BANK3   BANK4   BANK5   BANK6   BANK7   BANK8   BANK9  BANK10  BANK1
      +1  BANK12
  4059 ;;      Params:         0       0       0       0       0       0       0       0       0       0       0       0       
      +0       0
  4060 ;;      Locals:         0       1       0       0       0       0       0       0       0       0       0       0       
      +0       0
  4061 ;;      Temps:          0       0       0       0       0       0       0       0       0       0       0       0       
      +0       0
  4062 ;;      Totals:         0       1       0       0       0       0       0       0       0       0       0       0       
      +0       0
  4063 ;;Total ram usage:        1 bytes
  4064 ;; Hardware stack levels used:    1
  4065 ;; Hardware stack levels required when called:    5
  4066 ;; This function calls:
  4067 ;;		Nothing
  4068 ;; This function is called by:
  4069 ;;		_main
  4070 ;; This function uses a non-reentrant model
  4071 ;;
  4072                           
  4073                           
  4074                           ;psect for function _spiWrite
  4075  1606                     _spiWrite:	
  4076                           
  4077                           ;incstack = 0
  4078                           ; Regs used in _spiWrite: [wreg]
  4079                           ;spiWrite@dat stored from wreg
  4080  1606  0020               	movlb	0	; select bank0
  4081  1607  00A3               	movwf	spiWrite@dat
  4082                           
  4083                           ;SPI2.c: 32: SSP2BUF = dat;
  4084  1608  0823               	movf	spiWrite@dat,w
  4085  1609  0024               	movlb	4	; select bank4
  4086  160A  0099               	movwf	25	;volatile
  4087  160B  0008               	return
  4088  160C                     __end_of_spiWrite:	
  4089                           
  4090                           	psect	text2
  4091  0BF2                     __ptext2:	
  4092 ;; *************** function _readSensorCoefficients *****************
  4093 ;; Defined at:
  4094 ;;		line 106 in file "bme280.c"
  4095 ;; Parameters:    Size  Location     Type
  4096 ;;		None
  4097 ;; Auto vars:     Size  Location     Type
  4098 ;;		None
  4099 ;; Return value:  Size  Location     Type
  4100 ;;                  1    wreg      void 
  4101 ;; Registers used:
  4102 ;;		wreg, status,2, status,0, pclath, cstack
  4103 ;; Tracked objects:
  4104 ;;		On entry : 0/0
  4105 ;;		On exit  : 0/0
  4106 ;;		Unchanged: 0/0
  4107 ;; Data sizes:     COMMON   BANK0   BANK1   BANK2   BANK3   BANK4   BANK5   BANK6   BANK7   BANK8   BANK9  BANK10  BANK1
      +1  BANK12
  4108 ;;      Params:         0       0       0       0       0       0       0       0       0       0       0       0       
      +0       0
  4109 ;;      Locals:         0       0       0       0       0       0       0       0       0       0       0       0       
      +0       0
  4110 ;;      Temps:          0       5       0       0       0       0       0       0       0       0       0       0       
      +0       0
  4111 ;;      Totals:         0       5       0       0       0       0       0       0       0       0       0       0       
      +0       0
  4112 ;;Total ram usage:        5 bytes
  4113 ;; Hardware stack levels used:    1
  4114 ;; Hardware stack levels required when called:   10
  4115 ;; This function calls:
  4116 ;;		_BME280_read16_LE
  4117 ;;		_BME280_read8
  4118 ;;		_BME280_readS16_LE
  4119 ;; This function is called by:
  4120 ;;		_main
  4121 ;; This function uses a non-reentrant model
  4122 ;;
  4123                           
  4124                           
  4125                           ;psect for function _readSensorCoefficients
  4126  0BF2                     _readSensorCoefficients:	
  4127                           
  4128                           ;bme280.c: 109: cal_data.dig_T1 = BME280_read16_LE(0x88);
  4129                           
  4130                           ;incstack = 0
  4131                           ; Regs used in _readSensorCoefficients: [wreg+status,2+status,0+pclath+cstack]
  4132  0BF2  3088               	movlw	136
  4133  0BF3  3196  26BD  318B   	fcall	_BME280_read16_LE
  4134  0BF6  0020               	movlb	0	; select bank0
  4135  0BF7  0831               	movf	?_BME280_read16_LE+1,w
  4136  0BF8  0021               	movlb	1	; select bank1
  4137  0BF9  00A5               	movwf	(_cal_data+1)^(0+128)
  4138  0BFA  0020               	movlb	0	; select bank0
  4139  0BFB  0830               	movf	?_BME280_read16_LE,w
  4140  0BFC  0021               	movlb	1	; select bank1
  4141  0BFD  00A4               	movwf	_cal_data^(0+128)
  4142                           
  4143                           ;bme280.c: 111: cal_data.dig_T2 = BME280_readS16_LE(0x8A);
  4144  0BFE  308A               	movlw	138
  4145  0BFF  3196  2645  318B   	fcall	_BME280_readS16_LE
  4146  0C02  0020               	movlb	0	; select bank0
  4147  0C03  083A               	movf	?_BME280_readS16_LE+1,w
  4148  0C04  0021               	movlb	1	; select bank1
  4149  0C05  00A7               	movwf	((_cal_data+1)^(0+128)+2)
  4150  0C06  0020               	movlb	0	; select bank0
  4151  0C07  0839               	movf	?_BME280_readS16_LE,w
  4152  0C08  0021               	movlb	1	; select bank1
  4153  0C09  00A6               	movwf	(_cal_data^(0+128)+2)
  4154                           
  4155                           ;bme280.c: 113: cal_data.dig_T3 = BME280_readS16_LE(0x8C);
  4156  0C0A  308C               	movlw	140
  4157  0C0B  3196  2645  318B   	fcall	_BME280_readS16_LE
  4158  0C0E  0020               	movlb	0	; select bank0
  4159  0C0F  083A               	movf	?_BME280_readS16_LE+1,w
  4160  0C10  0021               	movlb	1	; select bank1
  4161  0C11  00A9               	movwf	((_cal_data+1)^(0+128)+4)
  4162  0C12  0020               	movlb	0	; select bank0
  4163  0C13  0839               	movf	?_BME280_readS16_LE,w
  4164  0C14  0021               	movlb	1	; select bank1
  4165  0C15  00A8               	movwf	(_cal_data^(0+128)+4)
  4166                           
  4167                           ;bme280.c: 115: cal_data.dig_P1 = BME280_read16_LE(0x8E);
  4168  0C16  308E               	movlw	142
  4169  0C17  3196  26BD  318B   	fcall	_BME280_read16_LE
  4170  0C1A  0020               	movlb	0	; select bank0
  4171  0C1B  0831               	movf	?_BME280_read16_LE+1,w
  4172  0C1C  0021               	movlb	1	; select bank1
  4173  0C1D  00AB               	movwf	((_cal_data+1)^(0+128)+6)
  4174  0C1E  0020               	movlb	0	; select bank0
  4175  0C1F  0830               	movf	?_BME280_read16_LE,w
  4176  0C20  0021               	movlb	1	; select bank1
  4177  0C21  00AA               	movwf	(_cal_data^(0+128)+6)
  4178                           
  4179                           ;bme280.c: 117: cal_data.dig_P2 = BME280_readS16_LE(0x90);
  4180  0C22  3090               	movlw	144
  4181  0C23  3196  2645  318B   	fcall	_BME280_readS16_LE
  4182  0C26  0020               	movlb	0	; select bank0
  4183  0C27  083A               	movf	?_BME280_readS16_LE+1,w
  4184  0C28  0021               	movlb	1	; select bank1
  4185  0C29  00AD               	movwf	((_cal_data+1)^(0+128)+8)
  4186  0C2A  0020               	movlb	0	; select bank0
  4187  0C2B  0839               	movf	?_BME280_readS16_LE,w
  4188  0C2C  0021               	movlb	1	; select bank1
  4189  0C2D  00AC               	movwf	(_cal_data^(0+128)+8)
  4190                           
  4191                           ;bme280.c: 119: cal_data.dig_P3 = BME280_readS16_LE(0x92);
  4192  0C2E  3092               	movlw	146
  4193  0C2F  3196  2645  318B   	fcall	_BME280_readS16_LE
  4194  0C32  0020               	movlb	0	; select bank0
  4195  0C33  083A               	movf	?_BME280_readS16_LE+1,w
  4196  0C34  0021               	movlb	1	; select bank1
  4197  0C35  00AF               	movwf	((_cal_data+1)^(0+128)+10)
  4198  0C36  0020               	movlb	0	; select bank0
  4199  0C37  0839               	movf	?_BME280_readS16_LE,w
  4200  0C38  0021               	movlb	1	; select bank1
  4201  0C39  00AE               	movwf	(_cal_data^(0+128)+10)
  4202                           
  4203                           ;bme280.c: 121: cal_data.dig_P4 = BME280_readS16_LE(0x94);
  4204  0C3A  3094               	movlw	148
  4205  0C3B  3196  2645  318B   	fcall	_BME280_readS16_LE
  4206  0C3E  0020               	movlb	0	; select bank0
  4207  0C3F  083A               	movf	?_BME280_readS16_LE+1,w
  4208  0C40  0021               	movlb	1	; select bank1
  4209  0C41  00B1               	movwf	((_cal_data+1)^(0+128)+12)
  4210  0C42  0020               	movlb	0	; select bank0
  4211  0C43  0839               	movf	?_BME280_readS16_LE,w
  4212  0C44  0021               	movlb	1	; select bank1
  4213  0C45  00B0               	movwf	(_cal_data^(0+128)+12)
  4214                           
  4215                           ;bme280.c: 123: cal_data.dig_P5 = BME280_readS16_LE(0x96);
  4216  0C46  3096               	movlw	150
  4217  0C47  3196  2645  318B   	fcall	_BME280_readS16_LE
  4218  0C4A  0020               	movlb	0	; select bank0
  4219  0C4B  083A               	movf	?_BME280_readS16_LE+1,w
  4220  0C4C  0021               	movlb	1	; select bank1
  4221  0C4D  00B3               	movwf	((_cal_data+1)^(0+128)+14)
  4222  0C4E  0020               	movlb	0	; select bank0
  4223  0C4F  0839               	movf	?_BME280_readS16_LE,w
  4224  0C50  0021               	movlb	1	; select bank1
  4225  0C51  00B2               	movwf	(_cal_data^(0+128)+14)
  4226                           
  4227                           ;bme280.c: 125: cal_data.dig_P6 = BME280_readS16_LE(0x98);
  4228  0C52  3098               	movlw	152
  4229  0C53  3196  2645  318B   	fcall	_BME280_readS16_LE
  4230  0C56  0020               	movlb	0	; select bank0
  4231  0C57  083A               	movf	?_BME280_readS16_LE+1,w
  4232  0C58  0021               	movlb	1	; select bank1
  4233  0C59  00B5               	movwf	((_cal_data+1)^(0+128)+16)
  4234  0C5A  0020               	movlb	0	; select bank0
  4235  0C5B  0839               	movf	?_BME280_readS16_LE,w
  4236  0C5C  0021               	movlb	1	; select bank1
  4237  0C5D  00B4               	movwf	(_cal_data^(0+128)+16)
  4238                           
  4239                           ;bme280.c: 127: cal_data.dig_P7 = BME280_readS16_LE(0x9A);
  4240  0C5E  309A               	movlw	154
  4241  0C5F  3196  2645  318B   	fcall	_BME280_readS16_LE
  4242  0C62  0020               	movlb	0	; select bank0
  4243  0C63  083A               	movf	?_BME280_readS16_LE+1,w
  4244  0C64  0021               	movlb	1	; select bank1
  4245  0C65  00B7               	movwf	((_cal_data+1)^(0+128)+18)
  4246  0C66  0020               	movlb	0	; select bank0
  4247  0C67  0839               	movf	?_BME280_readS16_LE,w
  4248  0C68  0021               	movlb	1	; select bank1
  4249  0C69  00B6               	movwf	(_cal_data^(0+128)+18)
  4250                           
  4251                           ;bme280.c: 129: cal_data.dig_P8 = BME280_readS16_LE(0x9C);
  4252  0C6A  309C               	movlw	156
  4253  0C6B  3196  2645  318B   	fcall	_BME280_readS16_LE
  4254  0C6E  0020               	movlb	0	; select bank0
  4255  0C6F  083A               	movf	?_BME280_readS16_LE+1,w
  4256  0C70  0021               	movlb	1	; select bank1
  4257  0C71  00B9               	movwf	((_cal_data+1)^(0+128)+20)
  4258  0C72  0020               	movlb	0	; select bank0
  4259  0C73  0839               	movf	?_BME280_readS16_LE,w
  4260  0C74  0021               	movlb	1	; select bank1
  4261  0C75  00B8               	movwf	(_cal_data^(0+128)+20)
  4262                           
  4263                           ;bme280.c: 131: cal_data.dig_P9 = BME280_readS16_LE(0x9E);
  4264  0C76  309E               	movlw	158
  4265  0C77  3196  2645  318B   	fcall	_BME280_readS16_LE
  4266  0C7A  0020               	movlb	0	; select bank0
  4267  0C7B  083A               	movf	?_BME280_readS16_LE+1,w
  4268  0C7C  0021               	movlb	1	; select bank1
  4269  0C7D  00BB               	movwf	((_cal_data+1)^(0+128)+22)
  4270  0C7E  0020               	movlb	0	; select bank0
  4271  0C7F  0839               	movf	?_BME280_readS16_LE,w
  4272  0C80  0021               	movlb	1	; select bank1
  4273  0C81  00BA               	movwf	(_cal_data^(0+128)+22)
  4274                           
  4275                           ;bme280.c: 133: cal_data.dig_H1 = BME280_read8(0xA1);
  4276  0C82  30A1               	movlw	161
  4277  0C83  3188  2077  318B   	fcall	_BME280_read8
  4278  0C86  0020               	movlb	0	; select bank0
  4279  0C87  00BD               	movwf	??_readSensorCoefficients
  4280  0C88  083D               	movf	??_readSensorCoefficients,w
  4281  0C89  0021               	movlb	1	; select bank1
  4282  0C8A  00BC               	movwf	(_cal_data^(0+128)+24)
  4283                           
  4284                           ;bme280.c: 135: cal_data.dig_H2 = BME280_readS16_LE(0xE1);
  4285  0C8B  30E1               	movlw	225
  4286  0C8C  3196  2645  318B   	fcall	_BME280_readS16_LE
  4287  0C8F  0020               	movlb	0	; select bank0
  4288  0C90  083A               	movf	?_BME280_readS16_LE+1,w
  4289  0C91  0021               	movlb	1	; select bank1
  4290  0C92  00BE               	movwf	((_cal_data+1)^(0+128)+25)
  4291  0C93  0020               	movlb	0	; select bank0
  4292  0C94  0839               	movf	?_BME280_readS16_LE,w
  4293  0C95  0021               	movlb	1	; select bank1
  4294  0C96  00BD               	movwf	(_cal_data^(0+128)+25)
  4295                           
  4296                           ;bme280.c: 137: cal_data.dig_H3 = BME280_read8(0xE3);
  4297  0C97  30E3               	movlw	227
  4298  0C98  3188  2077  318B   	fcall	_BME280_read8
  4299  0C9B  0020               	movlb	0	; select bank0
  4300  0C9C  00BD               	movwf	??_readSensorCoefficients
  4301  0C9D  083D               	movf	??_readSensorCoefficients,w
  4302  0C9E  0021               	movlb	1	; select bank1
  4303  0C9F  00BF               	movwf	(_cal_data^(0+128)+27)
  4304                           
  4305                           ;bme280.c: 139: cal_data.dig_H4 = (BME280_read8(0xE4) << 4) | (BME280_read8(0xE4+1) & 0x
      +                          F);
  4306  0CA0  30E5               	movlw	229
  4307  0CA1  3188  2077  318B   	fcall	_BME280_read8
  4308  0CA4  390F               	andlw	15
  4309  0CA5  0020               	movlb	0	; select bank0
  4310  0CA6  00BD               	movwf	??_readSensorCoefficients
  4311  0CA7  01BE               	clrf	??_readSensorCoefficients+1
  4312  0CA8  30E4               	movlw	228
  4313  0CA9  3188  2077  318B   	fcall	_BME280_read8
  4314  0CAC  0020               	movlb	0	; select bank0
  4315  0CAD  00BF               	movwf	??_readSensorCoefficients+2
  4316  0CAE  01C0               	clrf	??_readSensorCoefficients+3
  4317  0CAF  0EBF               	swapf	??_readSensorCoefficients+2,f
  4318  0CB0  0EC0               	swapf	??_readSensorCoefficients+3,f
  4319  0CB1  30F0               	movlw	240
  4320  0CB2  05C0               	andwf	??_readSensorCoefficients+3,f
  4321  0CB3  083F               	movf	??_readSensorCoefficients+2,w
  4322  0CB4  390F               	andlw	15
  4323  0CB5  04C0               	iorwf	??_readSensorCoefficients+3,f
  4324  0CB6  30F0               	movlw	240
  4325  0CB7  05BF               	andwf	??_readSensorCoefficients+2,f
  4326  0CB8  083D               	movf	??_readSensorCoefficients,w
  4327  0CB9  043F               	iorwf	??_readSensorCoefficients+2,w
  4328  0CBA  0021               	movlb	1	; select bank1
  4329  0CBB  00C0               	movwf	(_cal_data^(0+128)+28)
  4330  0CBC  0020               	movlb	0	; select bank0
  4331  0CBD  083E               	movf	??_readSensorCoefficients+1,w
  4332  0CBE  0440               	iorwf	??_readSensorCoefficients+3,w
  4333  0CBF  0021               	movlb	1	; select bank1
  4334  0CC0  00C1               	movwf	((_cal_data+1)^(0+128)+28)
  4335                           
  4336                           ;bme280.c: 141: cal_data.dig_H5 = (BME280_read8(0xE5+1) << 4) | (BME280_read8(0xE5) >> 4
      +                          );
  4337  0CC1  30E5               	movlw	229
  4338  0CC2  3188  2077  318B   	fcall	_BME280_read8
  4339  0CC5  0020               	movlb	0	; select bank0
  4340  0CC6  00BD               	movwf	??_readSensorCoefficients
  4341  0CC7  3004               	movlw	4
  4342  0CC8                     u2845:	
  4343  0CC8  36BD               	lsrf	??_readSensorCoefficients,f
  4344  0CC9  0B89               	decfsz	9,f
  4345  0CCA  2CC8               	goto	u2845
  4346  0CCB  083D               	movf	??_readSensorCoefficients,w
  4347  0CCC  00BE               	movwf	??_readSensorCoefficients+1
  4348  0CCD  01BF               	clrf	??_readSensorCoefficients+2
  4349  0CCE  30E6               	movlw	230
  4350  0CCF  3188  2077  318B   	fcall	_BME280_read8
  4351  0CD2  0020               	movlb	0	; select bank0
  4352  0CD3  00C0               	movwf	??_readSensorCoefficients+3
  4353  0CD4  01C1               	clrf	??_readSensorCoefficients+4
  4354  0CD5  0EC0               	swapf	??_readSensorCoefficients+3,f
  4355  0CD6  0EC1               	swapf	??_readSensorCoefficients+4,f
  4356  0CD7  30F0               	movlw	240
  4357  0CD8  05C1               	andwf	??_readSensorCoefficients+4,f
  4358  0CD9  0840               	movf	??_readSensorCoefficients+3,w
  4359  0CDA  390F               	andlw	15
  4360  0CDB  04C1               	iorwf	??_readSensorCoefficients+4,f
  4361  0CDC  30F0               	movlw	240
  4362  0CDD  05C0               	andwf	??_readSensorCoefficients+3,f
  4363  0CDE  083E               	movf	??_readSensorCoefficients+1,w
  4364  0CDF  0440               	iorwf	??_readSensorCoefficients+3,w
  4365  0CE0  0021               	movlb	1	; select bank1
  4366  0CE1  00C2               	movwf	(_cal_data^(0+128)+30)
  4367  0CE2  0020               	movlb	0	; select bank0
  4368  0CE3  083F               	movf	??_readSensorCoefficients+2,w
  4369  0CE4  0441               	iorwf	??_readSensorCoefficients+4,w
  4370  0CE5  0021               	movlb	1	; select bank1
  4371  0CE6  00C3               	movwf	((_cal_data+1)^(0+128)+30)
  4372                           
  4373                           ;bme280.c: 143: cal_data.dig_H6 = (int8_t)BME280_read8(0xE7);
  4374  0CE7  30E7               	movlw	231
  4375  0CE8  3188  2077         	fcall	_BME280_read8
  4376  0CEA  0020               	movlb	0	; select bank0
  4377  0CEB  00BD               	movwf	??_readSensorCoefficients
  4378  0CEC  083D               	movf	??_readSensorCoefficients,w
  4379  0CED  0021               	movlb	1	; select bank1
  4380  0CEE  00C4               	movwf	(_cal_data^(0+128)+32)
  4381  0CEF  0008               	return
  4382  0CF0                     __end_of_readSensorCoefficients:	
  4383                           
  4384                           	psect	text3
  4385  1645                     __ptext3:	
  4386 ;; *************** function _BME280_readS16_LE *****************
  4387 ;; Defined at:
  4388 ;;		line 88 in file "bme280.c"
  4389 ;; Parameters:    Size  Location     Type
  4390 ;;  reg             1    wreg     unsigned char 
  4391 ;; Auto vars:     Size  Location     Type
  4392 ;;  reg             1   28[BANK0 ] unsigned char 
  4393 ;; Return value:  Size  Location     Type
  4394 ;;                  2   25[BANK0 ] int 
  4395 ;; Registers used:
  4396 ;;		wreg, status,2, status,0, pclath, cstack
  4397 ;; Tracked objects:
  4398 ;;		On entry : 0/0
  4399 ;;		On exit  : 0/0
  4400 ;;		Unchanged: 0/0
  4401 ;; Data sizes:     COMMON   BANK0   BANK1   BANK2   BANK3   BANK4   BANK5   BANK6   BANK7   BANK8   BANK9  BANK10  BANK1
      +1  BANK12
  4402 ;;      Params:         0       3       0       0       0       0       0       0       0       0       0       0       
      +0       0
  4403 ;;      Locals:         0       1       0       0       0       0       0       0       0       0       0       0       
      +0       0
  4404 ;;      Temps:          0       0       0       0       0       0       0       0       0       0       0       0       
      +0       0
  4405 ;;      Totals:         0       4       0       0       0       0       0       0       0       0       0       0       
      +0       0
  4406 ;;Total ram usage:        4 bytes
  4407 ;; Hardware stack levels used:    1
  4408 ;; Hardware stack levels required when called:    9
  4409 ;; This function calls:
  4410 ;;		_BME280_read16_LE
  4411 ;; This function is called by:
  4412 ;;		_readSensorCoefficients
  4413 ;; This function uses a non-reentrant model
  4414 ;;
  4415                           
  4416                           
  4417                           ;psect for function _BME280_readS16_LE
  4418  1645                     _BME280_readS16_LE:	
  4419                           
  4420                           ;incstack = 0
  4421                           ; Regs used in _BME280_readS16_LE: [wreg+status,2+status,0+pclath+cstack]
  4422                           ;BME280_readS16_LE@reg stored from wreg
  4423  1645  0020               	movlb	0	; select bank0
  4424  1646  00BC               	movwf	BME280_readS16_LE@reg
  4425                           
  4426                           ;bme280.c: 90: return (int16_t)BME280_read16_LE(reg);
  4427  1647  083C               	movf	BME280_readS16_LE@reg,w
  4428  1648  3196  26BD         	fcall	_BME280_read16_LE
  4429  164A  0020               	movlb	0	; select bank0
  4430  164B  0831               	movf	?_BME280_read16_LE+1,w
  4431  164C  00BA               	movwf	?_BME280_readS16_LE+1
  4432  164D  0830               	movf	?_BME280_read16_LE,w
  4433  164E  00B9               	movwf	?_BME280_readS16_LE
  4434  164F  0008               	return
  4435  1650                     __end_of_BME280_readS16_LE:	
  4436                           
  4437                           	psect	text4
  4438  16BD                     __ptext4:	
  4439 ;; *************** function _BME280_read16_LE *****************
  4440 ;; Defined at:
  4441 ;;		line 80 in file "bme280.c"
  4442 ;; Parameters:    Size  Location     Type
  4443 ;;  reg             1    wreg     unsigned char 
  4444 ;; Auto vars:     Size  Location     Type
  4445 ;;  reg             1   22[BANK0 ] unsigned char 
  4446 ;;  temp            2   23[BANK0 ] unsigned int 
  4447 ;; Return value:  Size  Location     Type
  4448 ;;                  2   16[BANK0 ] unsigned int 
  4449 ;; Registers used:
  4450 ;;		wreg, status,2, status,0, pclath, cstack
  4451 ;; Tracked objects:
  4452 ;;		On entry : 0/0
  4453 ;;		On exit  : 0/0
  4454 ;;		Unchanged: 0/0
  4455 ;; Data sizes:     COMMON   BANK0   BANK1   BANK2   BANK3   BANK4   BANK5   BANK6   BANK7   BANK8   BANK9  BANK10  BANK1
      +1  BANK12
  4456 ;;      Params:         0       2       0       0       0       0       0       0       0       0       0       0       
      +0       0
  4457 ;;      Locals:         0       3       0       0       0       0       0       0       0       0       0       0       
      +0       0
  4458 ;;      Temps:          0       4       0       0       0       0       0       0       0       0       0       0       
      +0       0
  4459 ;;      Totals:         0       9       0       0       0       0       0       0       0       0       0       0       
      +0       0
  4460 ;;Total ram usage:        9 bytes
  4461 ;; Hardware stack levels used:    1
  4462 ;; Hardware stack levels required when called:    8
  4463 ;; This function calls:
  4464 ;;		_BME280_read16
  4465 ;; This function is called by:
  4466 ;;		_BME280_readS16_LE
  4467 ;;		_readSensorCoefficients
  4468 ;; This function uses a non-reentrant model
  4469 ;;
  4470                           
  4471                           
  4472                           ;psect for function _BME280_read16_LE
  4473  16BD                     _BME280_read16_LE:	
  4474                           
  4475                           ;incstack = 0
  4476                           ; Regs used in _BME280_read16_LE: [wreg+status,2+status,0+pclath+cstack]
  4477                           ;BME280_read16_LE@reg stored from wreg
  4478  16BD  0020               	movlb	0	; select bank0
  4479  16BE  00B6               	movwf	BME280_read16_LE@reg
  4480                           
  4481                           ;bme280.c: 82: uint16_t temp = BME280_read16(reg);
  4482  16BF  0836               	movf	BME280_read16_LE@reg,w
  4483  16C0  3189  2154         	fcall	_BME280_read16
  4484  16C2  0020               	movlb	0	; select bank0
  4485  16C3  082A               	movf	?_BME280_read16+1,w
  4486  16C4  00B8               	movwf	BME280_read16_LE@temp+1
  4487  16C5  0829               	movf	?_BME280_read16,w
  4488  16C6  00B7               	movwf	BME280_read16_LE@temp
  4489                           
  4490                           ;bme280.c: 84: return (temp >> 8) | (temp << 8);
  4491  16C7  0837               	movf	BME280_read16_LE@temp,w
  4492  16C8  00B3               	movwf	??_BME280_read16_LE+1
  4493  16C9  01B2               	clrf	??_BME280_read16_LE
  4494  16CA  0838               	movf	BME280_read16_LE@temp+1,w
  4495  16CB  00B5               	movwf	??_BME280_read16_LE+3
  4496  16CC  0837               	movf	BME280_read16_LE@temp,w
  4497  16CD  00B4               	movwf	??_BME280_read16_LE+2
  4498  16CE  0835               	movf	??_BME280_read16_LE+3,w
  4499  16CF  00B4               	movwf	??_BME280_read16_LE+2
  4500  16D0  01B5               	clrf	??_BME280_read16_LE+3
  4501  16D1  0832               	movf	??_BME280_read16_LE,w
  4502  16D2  0434               	iorwf	??_BME280_read16_LE+2,w
  4503  16D3  00B0               	movwf	?_BME280_read16_LE
  4504  16D4  0833               	movf	??_BME280_read16_LE+1,w
  4505  16D5  0435               	iorwf	??_BME280_read16_LE+3,w
  4506  16D6  00B1               	movwf	?_BME280_read16_LE+1
  4507  16D7  0008               	return
  4508  16D8                     __end_of_BME280_read16_LE:	
  4509                           
  4510                           	psect	text5
  4511  16D8                     __ptext5:	
  4512 ;; *************** function _SYSTEM_Initialize *****************
  4513 ;; Defined at:
  4514 ;;		line 7 in file "system.c"
  4515 ;; Parameters:    Size  Location     Type
  4516 ;;		None
  4517 ;; Auto vars:     Size  Location     Type
  4518 ;;		None
  4519 ;; Return value:  Size  Location     Type
  4520 ;;                  1    wreg      void 
  4521 ;; Registers used:
  4522 ;;		wreg, status,2, status,0, pclath, cstack
  4523 ;; Tracked objects:
  4524 ;;		On entry : 0/0
  4525 ;;		On exit  : 0/0
  4526 ;;		Unchanged: 0/0
  4527 ;; Data sizes:     COMMON   BANK0   BANK1   BANK2   BANK3   BANK4   BANK5   BANK6   BANK7   BANK8   BANK9  BANK10  BANK1
      +1  BANK12
  4528 ;;      Params:         0       0       0       0       0       0       0       0       0       0       0       0       
      +0       0
  4529 ;;      Locals:         0       0       0       0       0       0       0       0       0       0       0       0       
      +0       0
  4530 ;;      Temps:          0       0       0       0       0       0       0       0       0       0       0       0       
      +0       0
  4531 ;;      Totals:         0       0       0       0       0       0       0       0       0       0       0       0       
      +0       0
  4532 ;;Total ram usage:        0 bytes
  4533 ;; Hardware stack levels used:    1
  4534 ;; Hardware stack levels required when called:    7
  4535 ;; This function calls:
  4536 ;;		_EUSART_Initialize
  4537 ;;		_I2C_Master_Init
  4538 ;;		_OSCILLATOR_Initialize
  4539 ;;		_PIN_MANAGER_Initialize
  4540 ;;		_PMD_Initialize
  4541 ;;		_WDT_Initialize
  4542 ;;		_spiInit
  4543 ;; This function is called by:
  4544 ;;		_main
  4545 ;; This function uses a non-reentrant model
  4546 ;;
  4547                           
  4548                           
  4549                           ;psect for function _SYSTEM_Initialize
  4550  16D8                     _SYSTEM_Initialize:	
  4551                           
  4552                           ;system.c: 10: PMD_Initialize();
  4553                           
  4554                           ;incstack = 0
  4555                           ; Regs used in _SYSTEM_Initialize: [wreg+status,2+status,0+pclath+cstack]
  4556  16D8  3196  2629  3196   	fcall	_PMD_Initialize
  4557                           
  4558                           ;system.c: 11: PIN_MANAGER_Initialize();
  4559  16DB  3188  2037  3196   	fcall	_PIN_MANAGER_Initialize
  4560                           
  4561                           ;system.c: 12: OSCILLATOR_Initialize();
  4562  16DE  3196  2631  3196   	fcall	_OSCILLATOR_Initialize
  4563                           
  4564                           ;system.c: 13: WDT_Initialize();
  4565  16E1  3188  2000  3196   	fcall	_WDT_Initialize
  4566                           
  4567                           ;system.c: 14: EUSART_Initialize();
  4568  16E4  3196  263A  3196   	fcall	_EUSART_Initialize
  4569                           
  4570                           ;system.c: 15: I2C_Master_Init(100000);
  4571  16E7  3000               	movlw	0
  4572  16E8  0020               	movlb	0	; select bank0
  4573  16E9  00B4               	movwf	I2C_Master_Init@c+3
  4574  16EA  3001               	movlw	1
  4575  16EB  00B3               	movwf	I2C_Master_Init@c+2
  4576  16EC  3086               	movlw	134
  4577  16ED  00B2               	movwf	I2C_Master_Init@c+1
  4578  16EE  30A0               	movlw	160
  4579  16EF  00B1               	movwf	I2C_Master_Init@c
  4580  16F0  3197  27D0  3196   	fcall	_I2C_Master_Init
  4581                           
  4582                           ;system.c: 16: spiInit(SPI_MASTER_OSC_DIV4,SPI_DATA_SAMPLE_MIDDLE,SPI_CLOCK_IDLE_LOW,SPI
      +                          _IDLE_2_ACTIVE);
  4583  16F3  0020               	movlb	0	; select bank0
  4584  16F4  01A3               	clrf	spiInit@sDataSample
  4585  16F5  01A4               	clrf	spiInit@sClockIdle
  4586  16F6  01A5               	clrf	spiInit@sTransmitEdge
  4587  16F7  3020               	movlw	32
  4588  16F8  3196  26A2         	fcall	_spiInit
  4589  16FA  0008               	return
  4590  16FB                     __end_of_SYSTEM_Initialize:	
  4591                           
  4592                           	psect	text6
  4593  16A2                     __ptext6:	
  4594 ;; *************** function _spiInit *****************
  4595 ;; Defined at:
  4596 ;;		line 7 in file "SPI2.c"
  4597 ;; Parameters:    Size  Location     Type
  4598 ;;  sType           1    wreg     enum E7501
  4599 ;;  sDataSample     1    3[BANK0 ] enum E7509
  4600 ;;  sClockIdle      1    4[BANK0 ] enum E7513
  4601 ;;  sTransmitEdg    1    5[BANK0 ] enum E7517
  4602 ;; Auto vars:     Size  Location     Type
  4603 ;;  sType           1    6[BANK0 ] enum E7501
  4604 ;; Return value:  Size  Location     Type
  4605 ;;                  1    wreg      void 
  4606 ;; Registers used:
  4607 ;;		wreg, status,2, status,0
  4608 ;; Tracked objects:
  4609 ;;		On entry : 0/0
  4610 ;;		On exit  : 0/0
  4611 ;;		Unchanged: 0/0
  4612 ;; Data sizes:     COMMON   BANK0   BANK1   BANK2   BANK3   BANK4   BANK5   BANK6   BANK7   BANK8   BANK9  BANK10  BANK1
      +1  BANK12
  4613 ;;      Params:         0       3       0       0       0       0       0       0       0       0       0       0       
      +0       0
  4614 ;;      Locals:         0       1       0       0       0       0       0       0       0       0       0       0       
      +0       0
  4615 ;;      Temps:          0       0       0       0       0       0       0       0       0       0       0       0       
      +0       0
  4616 ;;      Totals:         0       4       0       0       0       0       0       0       0       0       0       0       
      +0       0
  4617 ;;Total ram usage:        4 bytes
  4618 ;; Hardware stack levels used:    1
  4619 ;; Hardware stack levels required when called:    5
  4620 ;; This function calls:
  4621 ;;		Nothing
  4622 ;; This function is called by:
  4623 ;;		_SYSTEM_Initialize
  4624 ;; This function uses a non-reentrant model
  4625 ;;
  4626                           
  4627                           
  4628                           ;psect for function _spiInit
  4629  16A2                     _spiInit:	
  4630                           
  4631                           ;incstack = 0
  4632                           ; Regs used in _spiInit: [wreg+status,2+status,0]
  4633                           ;spiInit@sType stored from wreg
  4634  16A2  0020               	movlb	0	; select bank0
  4635  16A3  00A6               	movwf	spiInit@sType
  4636                           
  4637                           ;SPI2.c: 9: TRISCbits.TRISC2 = 0;
  4638  16A4  0021               	movlb	1	; select bank1
  4639  16A5  110E               	bcf	14,2	;volatile
  4640                           
  4641                           ;SPI2.c: 10: TRISCbits.TRISC1 = 1;
  4642  16A6  148E               	bsf	14,1	;volatile
  4643                           
  4644                           ;SPI2.c: 11: if(sType & 0b00000100)
  4645  16A7  0020               	movlb	0	; select bank0
  4646  16A8  1D26               	btfss	spiInit@sType,2
  4647  16A9  2EB0               	goto	l2243
  4648                           
  4649                           ;SPI2.c: 12: {
  4650                           ;SPI2.c: 13: SSP2STAT = sTransmitEdge;
  4651  16AA  0825               	movf	spiInit@sTransmitEdge,w
  4652  16AB  0024               	movlb	4	; select bank4
  4653  16AC  009C               	movwf	28	;volatile
  4654                           
  4655                           ;SPI2.c: 14: TRISCbits.TRISC0 = 1;
  4656  16AD  0021               	movlb	1	; select bank1
  4657  16AE  140E               	bsf	14,0	;volatile
  4658                           
  4659                           ;SPI2.c: 15: }
  4660  16AF  2EB7               	goto	l359
  4661  16B0                     l2243:	
  4662                           
  4663                           ;SPI2.c: 16: else
  4664                           ;SPI2.c: 17: {
  4665                           ;SPI2.c: 18: SSP2STAT = sDataSample | sTransmitEdge;
  4666  16B0  0020               	movlb	0	; select bank0
  4667  16B1  0823               	movf	spiInit@sDataSample,w
  4668  16B2  0425               	iorwf	spiInit@sTransmitEdge,w
  4669  16B3  0024               	movlb	4	; select bank4
  4670  16B4  009C               	movwf	28	;volatile
  4671                           
  4672                           ;SPI2.c: 19: TRISCbits.TRISC0 = 0;
  4673  16B5  0021               	movlb	1	; select bank1
  4674  16B6  100E               	bcf	14,0	;volatile
  4675  16B7                     l359:	
  4676                           
  4677                           ;SPI2.c: 20: }
  4678                           ;SPI2.c: 22: SSP2CON1 = sType | sClockIdle;
  4679  16B7  0020               	movlb	0	; select bank0
  4680  16B8  0826               	movf	spiInit@sType,w
  4681  16B9  0424               	iorwf	spiInit@sClockIdle,w
  4682  16BA  0024               	movlb	4	; select bank4
  4683  16BB  009D               	movwf	29	;volatile
  4684  16BC  0008               	return
  4685  16BD                     __end_of_spiInit:	
  4686                           
  4687                           	psect	text7
  4688  0800                     __ptext7:	
  4689 ;; *************** function _WDT_Initialize *****************
  4690 ;; Defined at:
  4691 ;;		line 33 in file "system.c"
  4692 ;; Parameters:    Size  Location     Type
  4693 ;;		None
  4694 ;; Auto vars:     Size  Location     Type
  4695 ;;		None
  4696 ;; Return value:  Size  Location     Type
  4697 ;;                  1    wreg      void 
  4698 ;; Registers used:
  4699 ;;		wreg
  4700 ;; Tracked objects:
  4701 ;;		On entry : 0/0
  4702 ;;		On exit  : 0/0
  4703 ;;		Unchanged: 0/0
  4704 ;; Data sizes:     COMMON   BANK0   BANK1   BANK2   BANK3   BANK4   BANK5   BANK6   BANK7   BANK8   BANK9  BANK10  BANK1
      +1  BANK12
  4705 ;;      Params:         0       0       0       0       0       0       0       0       0       0       0       0       
      +0       0
  4706 ;;      Locals:         0       0       0       0       0       0       0       0       0       0       0       0       
      +0       0
  4707 ;;      Temps:          0       0       0       0       0       0       0       0       0       0       0       0       
      +0       0
  4708 ;;      Totals:         0       0       0       0       0       0       0       0       0       0       0       0       
      +0       0
  4709 ;;Total ram usage:        0 bytes
  4710 ;; Hardware stack levels used:    1
  4711 ;; Hardware stack levels required when called:    5
  4712 ;; This function calls:
  4713 ;;		Nothing
  4714 ;; This function is called by:
  4715 ;;		_SYSTEM_Initialize
  4716 ;; This function uses a non-reentrant model
  4717 ;;
  4718                           
  4719                           
  4720                           ;psect for function _WDT_Initialize
  4721  0800                     _WDT_Initialize:	
  4722                           
  4723                           ;system.c: 36: WDTCON = 0x16;
  4724                           
  4725                           ;incstack = 0
  4726                           ; Regs used in _WDT_Initialize: [wreg]
  4727  0800  3016               	movlw	22
  4728  0801  0021               	movlb	1	; select bank1
  4729  0802  0097               	movwf	23	;volatile
  4730  0803  0008               	return
  4731  0804                     __end_of_WDT_Initialize:	
  4732                           
  4733                           	psect	text8
  4734  1629                     __ptext8:	
  4735 ;; *************** function _PMD_Initialize *****************
  4736 ;; Defined at:
  4737 ;;		line 39 in file "system.c"
  4738 ;; Parameters:    Size  Location     Type
  4739 ;;		None
  4740 ;; Auto vars:     Size  Location     Type
  4741 ;;		None
  4742 ;; Return value:  Size  Location     Type
  4743 ;;                  1    wreg      void 
  4744 ;; Registers used:
  4745 ;;		status,2
  4746 ;; Tracked objects:
  4747 ;;		On entry : 0/0
  4748 ;;		On exit  : 0/0
  4749 ;;		Unchanged: 0/0
  4750 ;; Data sizes:     COMMON   BANK0   BANK1   BANK2   BANK3   BANK4   BANK5   BANK6   BANK7   BANK8   BANK9  BANK10  BANK1
      +1  BANK12
  4751 ;;      Params:         0       0       0       0       0       0       0       0       0       0       0       0       
      +0       0
  4752 ;;      Locals:         0       0       0       0       0       0       0       0       0       0       0       0       
      +0       0
  4753 ;;      Temps:          0       0       0       0       0       0       0       0       0       0       0       0       
      +0       0
  4754 ;;      Totals:         0       0       0       0       0       0       0       0       0       0       0       0       
      +0       0
  4755 ;;Total ram usage:        0 bytes
  4756 ;; Hardware stack levels used:    1
  4757 ;; Hardware stack levels required when called:    5
  4758 ;; This function calls:
  4759 ;;		Nothing
  4760 ;; This function is called by:
  4761 ;;		_SYSTEM_Initialize
  4762 ;; This function uses a non-reentrant model
  4763 ;;
  4764                           
  4765                           
  4766                           ;psect for function _PMD_Initialize
  4767  1629                     _PMD_Initialize:	
  4768                           
  4769                           ;system.c: 42: PMD0 = 0x00;
  4770                           
  4771                           ;incstack = 0
  4772                           ; Regs used in _PMD_Initialize: [status,2]
  4773  1629  0032               	movlb	18	; select bank18
  4774  162A  0191               	clrf	17	;volatile
  4775                           
  4776                           ;system.c: 44: PMD1 = 0x00;
  4777  162B  0192               	clrf	18	;volatile
  4778                           
  4779                           ;system.c: 46: PMD2 = 0x00;
  4780  162C  0193               	clrf	19	;volatile
  4781                           
  4782                           ;system.c: 48: PMD3 = 0x00;
  4783  162D  0194               	clrf	20	;volatile
  4784                           
  4785                           ;system.c: 50: PMD4 = 0x00;
  4786  162E  0195               	clrf	21	;volatile
  4787                           
  4788                           ;system.c: 52: PMD5 = 0x00;
  4789  162F  0196               	clrf	22	;volatile
  4790  1630  0008               	return
  4791  1631                     __end_of_PMD_Initialize:	
  4792                           
  4793                           	psect	text9
  4794  0837                     __ptext9:	
  4795 ;; *************** function _PIN_MANAGER_Initialize *****************
  4796 ;; Defined at:
  4797 ;;		line 55 in file "system.c"
  4798 ;; Parameters:    Size  Location     Type
  4799 ;;		None
  4800 ;; Auto vars:     Size  Location     Type
  4801 ;;		None
  4802 ;; Return value:  Size  Location     Type
  4803 ;;                  1    wreg      void 
  4804 ;; Registers used:
  4805 ;;		wreg, status,2, status,0
  4806 ;; Tracked objects:
  4807 ;;		On entry : 0/0
  4808 ;;		On exit  : 0/0
  4809 ;;		Unchanged: 0/0
  4810 ;; Data sizes:     COMMON   BANK0   BANK1   BANK2   BANK3   BANK4   BANK5   BANK6   BANK7   BANK8   BANK9  BANK10  BANK1
      +1  BANK12
  4811 ;;      Params:         0       0       0       0       0       0       0       0       0       0       0       0       
      +0       0
  4812 ;;      Locals:         0       0       0       0       0       0       0       0       0       0       0       0       
      +0       0
  4813 ;;      Temps:          0       0       0       0       0       0       0       0       0       0       0       0       
      +0       0
  4814 ;;      Totals:         0       0       0       0       0       0       0       0       0       0       0       0       
      +0       0
  4815 ;;Total ram usage:        0 bytes
  4816 ;; Hardware stack levels used:    1
  4817 ;; Hardware stack levels required when called:    5
  4818 ;; This function calls:
  4819 ;;		Nothing
  4820 ;; This function is called by:
  4821 ;;		_SYSTEM_Initialize
  4822 ;; This function uses a non-reentrant model
  4823 ;;
  4824                           
  4825                           
  4826                           ;psect for function _PIN_MANAGER_Initialize
  4827  0837                     _PIN_MANAGER_Initialize:	
  4828                           
  4829                           ;system.c: 60: LATA = 0x00;
  4830                           
  4831                           ;incstack = 0
  4832                           ; Regs used in _PIN_MANAGER_Initialize: [wreg+status,2+status,0]
  4833  0837  0022               	movlb	2	; select bank2
  4834  0838  018C               	clrf	12	;volatile
  4835                           
  4836                           ;system.c: 61: LATC = 0x00;
  4837  0839  018E               	clrf	14	;volatile
  4838                           
  4839                           ;system.c: 66: TRISA = 0x37;
  4840  083A  3037               	movlw	55
  4841  083B  0021               	movlb	1	; select bank1
  4842  083C  008C               	movwf	12	;volatile
  4843                           
  4844                           ;system.c: 67: TRISC = 0x2A;
  4845  083D  302A               	movlw	42
  4846  083E  008E               	movwf	14	;volatile
  4847                           
  4848                           ;system.c: 72: ANSELC = 0x1C;
  4849  083F  301C               	movlw	28
  4850  0840  0023               	movlb	3	; select bank3
  4851  0841  008E               	movwf	14	;volatile
  4852                           
  4853                           ;system.c: 73: ANSELA = 0x07;
  4854  0842  3007               	movlw	7
  4855  0843  008C               	movwf	12	;volatile
  4856                           
  4857                           ;system.c: 78: WPUA = 0x00;
  4858  0844  0024               	movlb	4	; select bank4
  4859  0845  018C               	clrf	12	;volatile
  4860                           
  4861                           ;system.c: 79: WPUC = 0x00;
  4862  0846  018E               	clrf	14	;volatile
  4863                           
  4864                           ;system.c: 84: ODCONA = 0x00;
  4865  0847  0025               	movlb	5	; select bank5
  4866  0848  018C               	clrf	12	;volatile
  4867                           
  4868                           ;system.c: 85: ODCONC = 0x00;
  4869  0849  018E               	clrf	14	;volatile
  4870                           
  4871                           ;system.c: 86: SSP1DATPPSbits.SSP1DATPPS = 0x04;
  4872  084A  003C               	movlb	28	; select bank28
  4873  084B  0821               	movf	33,w	;volatile
  4874  084C  39E0               	andlw	-32
  4875  084D  3804               	iorlw	4
  4876  084E  00A1               	movwf	33	;volatile
  4877                           
  4878                           ;system.c: 87: SSP1CLKPPSbits.SSP1CLKPPS = 0x05;
  4879  084F  0820               	movf	32,w	;volatile
  4880  0850  39E0               	andlw	-32
  4881  0851  3805               	iorlw	5
  4882  0852  00A0               	movwf	32	;volatile
  4883                           
  4884                           ;system.c: 88: RXPPSbits.RXPPS = 0x15;
  4885  0853  0824               	movf	36,w	;volatile
  4886  0854  39E0               	andlw	-32
  4887  0855  3815               	iorlw	21
  4888  0856  00A4               	movwf	36	;volatile
  4889                           
  4890                           ;system.c: 89: RA4PPSbits.RA4PPS = 0x19;
  4891  0857  003D               	movlb	29	; select bank29
  4892  0858  0814               	movf	20,w	;volatile
  4893  0859  39E0               	andlw	-32
  4894  085A  3819               	iorlw	25
  4895  085B  0094               	movwf	20	;volatile
  4896                           
  4897                           ;system.c: 90: RC4PPSbits.RC4PPS = 0x14;
  4898  085C  0824               	movf	36,w	;volatile
  4899  085D  39E0               	andlw	-32
  4900  085E  3814               	iorlw	20
  4901  085F  00A4               	movwf	36	;volatile
  4902                           
  4903                           ;system.c: 91: RC0PPSbits.RC0PPS = 0x1A;
  4904  0860  0820               	movf	32,w	;volatile
  4905  0861  39E0               	andlw	-32
  4906  0862  381A               	iorlw	26
  4907  0863  00A0               	movwf	32	;volatile
  4908                           
  4909                           ;system.c: 92: RC2PPSbits.RC2PPS = 0x1B;
  4910  0864  0822               	movf	34,w	;volatile
  4911  0865  39E0               	andlw	-32
  4912  0866  381B               	iorlw	27
  4913  0867  00A2               	movwf	34	;volatile
  4914                           
  4915                           ;system.c: 93: SSP2CLKPPSbits.SSP2CLKPPS = 0x10;
  4916  0868  003C               	movlb	28	; select bank28
  4917  0869  081D               	movf	29,w	;volatile
  4918  086A  39E0               	andlw	-32
  4919  086B  3810               	iorlw	16
  4920  086C  009D               	movwf	29	;volatile
  4921                           
  4922                           ;system.c: 94: SSP2DATPPSbits.SSP2DATPPS = 0x11;
  4923  086D  081E               	movf	30,w	;volatile
  4924  086E  39E0               	andlw	-32
  4925  086F  3811               	iorlw	17
  4926  0870  009E               	movwf	30	;volatile
  4927                           
  4928                           ;system.c: 95: RA5PPSbits.RA5PPS = 0x18;
  4929  0871  003D               	movlb	29	; select bank29
  4930  0872  0815               	movf	21,w	;volatile
  4931  0873  39E0               	andlw	-32
  4932  0874  3818               	iorlw	24
  4933  0875  0095               	movwf	21	;volatile
  4934  0876  0008               	return
  4935  0877                     __end_of_PIN_MANAGER_Initialize:	
  4936                           
  4937                           	psect	text10
  4938  1631                     __ptext10:	
  4939 ;; *************** function _OSCILLATOR_Initialize *****************
  4940 ;; Defined at:
  4941 ;;		line 19 in file "system.c"
  4942 ;; Parameters:    Size  Location     Type
  4943 ;;		None
  4944 ;; Auto vars:     Size  Location     Type
  4945 ;;		None
  4946 ;; Return value:  Size  Location     Type
  4947 ;;                  1    wreg      void 
  4948 ;; Registers used:
  4949 ;;		wreg, status,2
  4950 ;; Tracked objects:
  4951 ;;		On entry : 0/0
  4952 ;;		On exit  : 0/0
  4953 ;;		Unchanged: 0/0
  4954 ;; Data sizes:     COMMON   BANK0   BANK1   BANK2   BANK3   BANK4   BANK5   BANK6   BANK7   BANK8   BANK9  BANK10  BANK1
      +1  BANK12
  4955 ;;      Params:         0       0       0       0       0       0       0       0       0       0       0       0       
      +0       0
  4956 ;;      Locals:         0       0       0       0       0       0       0       0       0       0       0       0       
      +0       0
  4957 ;;      Temps:          0       0       0       0       0       0       0       0       0       0       0       0       
      +0       0
  4958 ;;      Totals:         0       0       0       0       0       0       0       0       0       0       0       0       
      +0       0
  4959 ;;Total ram usage:        0 bytes
  4960 ;; Hardware stack levels used:    1
  4961 ;; Hardware stack levels required when called:    5
  4962 ;; This function calls:
  4963 ;;		Nothing
  4964 ;; This function is called by:
  4965 ;;		_SYSTEM_Initialize
  4966 ;; This function uses a non-reentrant model
  4967 ;;
  4968                           
  4969                           
  4970                           ;psect for function _OSCILLATOR_Initialize
  4971  1631                     _OSCILLATOR_Initialize:	
  4972                           
  4973                           ;system.c: 22: OSCCON1 = 0x60;
  4974                           
  4975                           ;incstack = 0
  4976                           ; Regs used in _OSCILLATOR_Initialize: [wreg+status,2]
  4977  1631  3060               	movlw	96
  4978  1632  0032               	movlb	18	; select bank18
  4979  1633  0099               	movwf	25	;volatile
  4980                           
  4981                           ;system.c: 24: OSCCON3 = 0x00;
  4982  1634  019B               	clrf	27	;volatile
  4983                           
  4984                           ;system.c: 26: OSCEN = 0x00;
  4985  1635  019D               	clrf	29	;volatile
  4986                           
  4987                           ;system.c: 28: OSCFRQ = 0x01;
  4988  1636  3001               	movlw	1
  4989  1637  009F               	movwf	31	;volatile
  4990                           
  4991                           ;system.c: 30: OSCTUNE = 0x00;
  4992  1638  019E               	clrf	30	;volatile
  4993  1639  0008               	return
  4994  163A                     __end_of_OSCILLATOR_Initialize:	
  4995                           
  4996                           	psect	text11
  4997  17D0                     __ptext11:	
  4998 ;; *************** function _I2C_Master_Init *****************
  4999 ;; Defined at:
  5000 ;;		line 10 in file "I2C1.c"
  5001 ;; Parameters:    Size  Location     Type
  5002 ;;  c               4   17[BANK0 ] const unsigned long 
  5003 ;; Auto vars:     Size  Location     Type
  5004 ;;		None
  5005 ;; Return value:  Size  Location     Type
  5006 ;;                  1    wreg      void 
  5007 ;; Registers used:
  5008 ;;		wreg, status,2, status,0, pclath, cstack
  5009 ;; Tracked objects:
  5010 ;;		On entry : 0/0
  5011 ;;		On exit  : 0/0
  5012 ;;		Unchanged: 0/0
  5013 ;; Data sizes:     COMMON   BANK0   BANK1   BANK2   BANK3   BANK4   BANK5   BANK6   BANK7   BANK8   BANK9  BANK10  BANK1
      +1  BANK12
  5014 ;;      Params:         0       4       0       0       0       0       0       0       0       0       0       0       
      +0       0
  5015 ;;      Locals:         0       0       0       0       0       0       0       0       0       0       0       0       
      +0       0
  5016 ;;      Temps:          0       4       0       0       0       0       0       0       0       0       0       0       
      +0       0
  5017 ;;      Totals:         0       8       0       0       0       0       0       0       0       0       0       0       
      +0       0
  5018 ;;Total ram usage:        8 bytes
  5019 ;; Hardware stack levels used:    1
  5020 ;; Hardware stack levels required when called:    6
  5021 ;; This function calls:
  5022 ;;		___lldiv
  5023 ;; This function is called by:
  5024 ;;		_SYSTEM_Initialize
  5025 ;; This function uses a non-reentrant model
  5026 ;;
  5027                           
  5028                           
  5029                           ;psect for function _I2C_Master_Init
  5030  17D0                     _I2C_Master_Init:	
  5031                           
  5032                           ;I2C1.c: 12: SSP1CON1 = 0b00101000;
  5033                           
  5034                           ;incstack = 0
  5035                           ; Regs used in _I2C_Master_Init: [wreg+status,2+status,0+pclath+cstack]
  5036  17D0  3028               	movlw	40
  5037  17D1  0024               	movlb	4	; select bank4
  5038  17D2  0095               	movwf	21	;volatile
  5039                           
  5040                           ;I2C1.c: 13: SSP1CON2 = 0;
  5041  17D3  0196               	clrf	22	;volatile
  5042                           
  5043                           ;I2C1.c: 14: SSP1ADD = (2000000/(4*c))-1;
  5044  17D4  0020               	movlb	0	; select bank0
  5045  17D5  0831               	movf	I2C_Master_Init@c,w
  5046  17D6  00B5               	movwf	??_I2C_Master_Init
  5047  17D7  0832               	movf	I2C_Master_Init@c+1,w
  5048  17D8  00B6               	movwf	??_I2C_Master_Init+1
  5049  17D9  0833               	movf	I2C_Master_Init@c+2,w
  5050  17DA  00B7               	movwf	??_I2C_Master_Init+2
  5051  17DB  0834               	movf	I2C_Master_Init@c+3,w
  5052  17DC  00B8               	movwf	??_I2C_Master_Init+3
  5053  17DD  3002               	movlw	2
  5054  17DE                     u2525:	
  5055  17DE  35B5               	lslf	??_I2C_Master_Init,f
  5056  17DF  0DB6               	rlf	??_I2C_Master_Init+1,f
  5057  17E0  0DB7               	rlf	??_I2C_Master_Init+2,f
  5058  17E1  0DB8               	rlf	??_I2C_Master_Init+3,f
  5059  17E2  0B89               	decfsz	9,f
  5060  17E3  2FDE               	goto	u2525
  5061  17E4  0838               	movf	??_I2C_Master_Init+3,w
  5062  17E5  00A6               	movwf	___lldiv@divisor+3
  5063  17E6  0837               	movf	??_I2C_Master_Init+2,w
  5064  17E7  00A5               	movwf	___lldiv@divisor+2
  5065  17E8  0836               	movf	??_I2C_Master_Init+1,w
  5066  17E9  00A4               	movwf	___lldiv@divisor+1
  5067  17EA  0835               	movf	??_I2C_Master_Init,w
  5068  17EB  00A3               	movwf	___lldiv@divisor
  5069  17EC  3000               	movlw	0
  5070  17ED  00AA               	movwf	___lldiv@dividend+3
  5071  17EE  301E               	movlw	30
  5072  17EF  00A9               	movwf	___lldiv@dividend+2
  5073  17F0  3084               	movlw	132
  5074  17F1  00A8               	movwf	___lldiv@dividend+1
  5075  17F2  3080               	movlw	128
  5076  17F3  00A7               	movwf	___lldiv@dividend
  5077  17F4  3189  2101         	fcall	___lldiv
  5078  17F6  0020               	movlb	0	; select bank0
  5079  17F7  0823               	movf	?___lldiv,w
  5080  17F8  3EFF               	addlw	255
  5081  17F9  0024               	movlb	4	; select bank4
  5082  17FA  0092               	movwf	18	;volatile
  5083                           
  5084                           ;I2C1.c: 15: SSP1STAT = 0;
  5085  17FB  0194               	clrf	20	;volatile
  5086                           
  5087                           ;I2C1.c: 16: TRISAbits.TRISA5 = 1;
  5088  17FC  0021               	movlb	1	; select bank1
  5089  17FD  168C               	bsf	12,5	;volatile
  5090                           
  5091                           ;I2C1.c: 17: TRISAbits.TRISA4 = 1;
  5092  17FE  160C               	bsf	12,4	;volatile
  5093  17FF  0008               	return
  5094  1800                     __end_of_I2C_Master_Init:	
  5095                           
  5096                           	psect	text12
  5097  163A                     __ptext12:	
  5098 ;; *************** function _EUSART_Initialize *****************
  5099 ;; Defined at:
  5100 ;;		line 17 in file "eusart.c"
  5101 ;; Parameters:    Size  Location     Type
  5102 ;;		None
  5103 ;; Auto vars:     Size  Location     Type
  5104 ;;		None
  5105 ;; Return value:  Size  Location     Type
  5106 ;;                  1    wreg      void 
  5107 ;; Registers used:
  5108 ;;		wreg, status,2
  5109 ;; Tracked objects:
  5110 ;;		On entry : 0/0
  5111 ;;		On exit  : 0/0
  5112 ;;		Unchanged: 0/0
  5113 ;; Data sizes:     COMMON   BANK0   BANK1   BANK2   BANK3   BANK4   BANK5   BANK6   BANK7   BANK8   BANK9  BANK10  BANK1
      +1  BANK12
  5114 ;;      Params:         0       0       0       0       0       0       0       0       0       0       0       0       
      +0       0
  5115 ;;      Locals:         0       0       0       0       0       0       0       0       0       0       0       0       
      +0       0
  5116 ;;      Temps:          0       0       0       0       0       0       0       0       0       0       0       0       
      +0       0
  5117 ;;      Totals:         0       0       0       0       0       0       0       0       0       0       0       0       
      +0       0
  5118 ;;Total ram usage:        0 bytes
  5119 ;; Hardware stack levels used:    1
  5120 ;; Hardware stack levels required when called:    5
  5121 ;; This function calls:
  5122 ;;		Nothing
  5123 ;; This function is called by:
  5124 ;;		_SYSTEM_Initialize
  5125 ;; This function uses a non-reentrant model
  5126 ;;
  5127                           
  5128                           
  5129                           ;psect for function _EUSART_Initialize
  5130  163A                     _EUSART_Initialize:	
  5131                           
  5132                           ;eusart.c: 22: BAUD1CON = 0x0A;
  5133                           
  5134                           ;incstack = 0
  5135                           ; Regs used in _EUSART_Initialize: [wreg+status,2]
  5136  163A  300A               	movlw	10
  5137  163B  0023               	movlb	3	; select bank3
  5138  163C  009F               	movwf	31	;volatile
  5139                           
  5140                           ;eusart.c: 26: RC1STA = 0x90;
  5141  163D  3090               	movlw	144
  5142  163E  009D               	movwf	29	;volatile
  5143                           
  5144                           ;eusart.c: 29: TX1STA = 0x24;
  5145  163F  3024               	movlw	36
  5146  1640  009E               	movwf	30	;volatile
  5147                           
  5148                           ;eusart.c: 32: SP1BRGL = 0x33;
  5149  1641  3033               	movlw	51
  5150  1642  009B               	movwf	27	;volatile
  5151                           
  5152                           ;eusart.c: 35: SP1BRGH = 0x00;
  5153  1643  019C               	clrf	28	;volatile
  5154  1644  0008               	return
  5155  1645                     __end_of_EUSART_Initialize:	
  5156                           
  5157                           	psect	text13
  5158  09AB                     __ptext13:	
  5159 ;; *************** function _LireLux *****************
  5160 ;; Defined at:
  5161 ;;		line 28 in file "BH1750.c"
  5162 ;; Parameters:    Size  Location     Type
  5163 ;;  resolution      1    wreg     char 
  5164 ;; Auto vars:     Size  Location     Type
  5165 ;;  resolution      1   50[BANK0 ] char 
  5166 ;;  lux             2   51[BANK0 ] unsigned int 
  5167 ;; Return value:  Size  Location     Type
  5168 ;;                  2   47[BANK0 ] unsigned int 
  5169 ;; Registers used:
  5170 ;;		wreg, fsr0l, fsr0h, status,2, status,0, pclath, cstack
  5171 ;; Tracked objects:
  5172 ;;		On entry : 0/0
  5173 ;;		On exit  : 0/0
  5174 ;;		Unchanged: 0/0
  5175 ;; Data sizes:     COMMON   BANK0   BANK1   BANK2   BANK3   BANK4   BANK5   BANK6   BANK7   BANK8   BANK9  BANK10  BANK1
      +1  BANK12
  5176 ;;      Params:         0       2       0       0       0       0       0       0       0       0       0       0       
      +0       0
  5177 ;;      Locals:         0       3       0       0       0       0       0       0       0       0       0       0       
      +0       0
  5178 ;;      Temps:          0       1       0       0       0       0       0       0       0       0       0       0       
      +0       0
  5179 ;;      Totals:         0       6       0       0       0       0       0       0       0       0       0       0       
      +0       0
  5180 ;;Total ram usage:        6 bytes
  5181 ;; Hardware stack levels used:    1
  5182 ;; Hardware stack levels required when called:    8
  5183 ;; This function calls:
  5184 ;;		_BH1750_Read
  5185 ;;		_BH1750_Write
  5186 ;;		___ftdiv
  5187 ;;		___fttol
  5188 ;;		___lwtoft
  5189 ;; This function is called by:
  5190 ;;		_main
  5191 ;; This function uses a non-reentrant model
  5192 ;;
  5193                           
  5194                           
  5195                           ;psect for function _LireLux
  5196  09AB                     _LireLux:	
  5197                           
  5198                           ;incstack = 0
  5199                           ; Regs used in _LireLux: [wreg-fsr0h+status,2+status,0+pclath+cstack]
  5200                           ;LireLux@resolution stored from wreg
  5201  09AB  0020               	movlb	0	; select bank0
  5202  09AC  00D2               	movwf	LireLux@resolution
  5203                           
  5204                           ;BH1750.c: 30: uint16_t lux ;
  5205                           ;BH1750.c: 31: BH1750_Write(0x01);
  5206  09AD  3001               	movlw	1
  5207  09AE  3196  2687  3189   	fcall	_BH1750_Write
  5208                           
  5209                           ;BH1750.c: 32: switch(resolution)
  5210  09B1  29C6               	goto	l2455
  5211  09B2                     l2445:	
  5212                           ;BH1750.c: 33: {
  5213                           ;BH1750.c: 34: case 0:
  5214                           
  5215                           
  5216                           ;BH1750.c: 35: BH1750_Write(0x23);
  5217  09B2  3023               	movlw	35
  5218  09B3  3196  2687  3189   	fcall	_BH1750_Write
  5219                           
  5220                           ;BH1750.c: 36: break;
  5221  09B6  29D2               	goto	l2457
  5222  09B7                     l2447:	
  5223                           ;BH1750.c: 37: case 1:
  5224                           
  5225                           
  5226                           ;BH1750.c: 38: BH1750_Write(0x20);
  5227  09B7  3020               	movlw	32
  5228  09B8  3196  2687  3189   	fcall	_BH1750_Write
  5229                           
  5230                           ;BH1750.c: 39: break;
  5231  09BB  29D2               	goto	l2457
  5232  09BC                     l2449:	
  5233                           ;BH1750.c: 40: case 2:
  5234                           
  5235                           
  5236                           ;BH1750.c: 41: BH1750_Write(0x21);
  5237  09BC  3021               	movlw	33
  5238  09BD  3196  2687  3189   	fcall	_BH1750_Write
  5239                           
  5240                           ;BH1750.c: 42: break;
  5241  09C0  29D2               	goto	l2457
  5242  09C1                     l2451:	
  5243                           ;BH1750.c: 43: default:
  5244                           
  5245                           
  5246                           ;BH1750.c: 44: BH1750_Write(0x20);
  5247  09C1  3020               	movlw	32
  5248  09C2  3196  2687  3189   	fcall	_BH1750_Write
  5249                           
  5250                           ;BH1750.c: 46: }
  5251                           
  5252                           ;BH1750.c: 45: break;
  5253  09C5  29D2               	goto	l2457
  5254  09C6                     l2455:	
  5255  09C6  0020               	movlb	0	; select bank0
  5256  09C7  0852               	movf	LireLux@resolution,w
  5257                           
  5258                           ; Switch size 1, requested type "space"
  5259                           ; Number of cases is 3, Range of values is 0 to 2
  5260                           ; switch strategies available:
  5261                           ; Name         Instructions Cycles
  5262                           ; simple_byte           10     6 (average)
  5263                           ; direct_byte           12     6 (fixed)
  5264                           ; jumptable            260     6 (fixed)
  5265                           ;	Chosen strategy is simple_byte
  5266  09C8  3A00               	xorlw	0	; case 0
  5267  09C9  1903               	skipnz
  5268  09CA  29B2               	goto	l2445
  5269  09CB  3A01               	xorlw	1	; case 1
  5270  09CC  1903               	skipnz
  5271  09CD  29B7               	goto	l2447
  5272  09CE  3A03               	xorlw	3	; case 2
  5273  09CF  1903               	skipnz
  5274  09D0  29BC               	goto	l2449
  5275  09D1  29C1               	goto	l2451
  5276  09D2                     l2457:	
  5277                           
  5278                           ;BH1750.c: 48: _delay((unsigned long)((200)*(2000000/4000.0)));
  5279  09D2  3082               	movlw	130
  5280  09D3  0020               	movlb	0	; select bank0
  5281  09D4  00D1               	movwf	??_LireLux
  5282  09D5  30DD               	movlw	221
  5283  09D6                     u3327:	
  5284  09D6  0B89               	decfsz	9,f
  5285  09D7  29D6               	goto	u3327
  5286  09D8  0BD1               	decfsz	??_LireLux,f
  5287  09D9  29D6               	goto	u3327
  5288  09DA  3200               	nop2
  5289                           
  5290                           ;BH1750.c: 49: lux = BH1750_Read();
  5291  09DB  3188  2004  3189   	fcall	_BH1750_Read
  5292  09DE  0020               	movlb	0	; select bank0
  5293  09DF  082A               	movf	?_BH1750_Read+1,w
  5294  09E0  00D4               	movwf	LireLux@lux+1
  5295  09E1  0829               	movf	?_BH1750_Read,w
  5296  09E2  00D3               	movwf	LireLux@lux
  5297                           
  5298                           ;BH1750.c: 50: lux = lux/1.20 ;
  5299  09E3  0854               	movf	LireLux@lux+1,w
  5300  09E4  00AC               	movwf	___lwtoft@c+1
  5301  09E5  0853               	movf	LireLux@lux,w
  5302  09E6  00AB               	movwf	___lwtoft@c
  5303  09E7  3196  265C  3189   	fcall	___lwtoft
  5304  09EA  0020               	movlb	0	; select bank0
  5305  09EB  082B               	movf	?___lwtoft,w
  5306  09EC  00B4               	movwf	___ftdiv@f1
  5307  09ED  082C               	movf	?___lwtoft+1,w
  5308  09EE  00B5               	movwf	___ftdiv@f1+1
  5309  09EF  082D               	movf	?___lwtoft+2,w
  5310  09F0  00B6               	movwf	___ftdiv@f1+2
  5311  09F1  309A               	movlw	154
  5312  09F2  00B1               	movwf	___ftdiv@f2
  5313  09F3  3099               	movlw	153
  5314  09F4  00B2               	movwf	___ftdiv@f2+1
  5315  09F5  303F               	movlw	63
  5316  09F6  00B3               	movwf	___ftdiv@f2+2
  5317  09F7  3187  271A  3189   	fcall	___ftdiv
  5318  09FA  0020               	movlb	0	; select bank0
  5319  09FB  0831               	movf	?___ftdiv,w
  5320  09FC  00C1               	movwf	___fttol@f1
  5321  09FD  0832               	movf	?___ftdiv+1,w
  5322  09FE  00C2               	movwf	___fttol@f1+1
  5323  09FF  0833               	movf	?___ftdiv+2,w
  5324  0A00  00C3               	movwf	___fttol@f1+2
  5325  0A01  318A  22E0         	fcall	___fttol
  5326  0A03  0020               	movlb	0	; select bank0
  5327  0A04  0842               	movf	?___fttol+1,w
  5328  0A05  00D4               	movwf	LireLux@lux+1
  5329  0A06  0841               	movf	?___fttol,w
  5330  0A07  00D3               	movwf	LireLux@lux
  5331                           
  5332                           ;BH1750.c: 51: return lux;
  5333  0A08  0854               	movf	LireLux@lux+1,w
  5334  0A09  00D0               	movwf	?_LireLux+1
  5335  0A0A  0853               	movf	LireLux@lux,w
  5336  0A0B  00CF               	movwf	?_LireLux
  5337  0A0C  0008               	return
  5338  0A0D                     __end_of_LireLux:	
  5339                           
  5340                           	psect	text14
  5341  165C                     __ptext14:	
  5342 ;; *************** function ___lwtoft *****************
  5343 ;; Defined at:
  5344 ;;		line 28 in file "/opt/microchip/xc8/v1.45/sources/common/lwtoft.c"
  5345 ;; Parameters:    Size  Location     Type
  5346 ;;  c               2   11[BANK0 ] unsigned int 
  5347 ;; Auto vars:     Size  Location     Type
  5348 ;;		None
  5349 ;; Return value:  Size  Location     Type
  5350 ;;                  3   11[BANK0 ] float 
  5351 ;; Registers used:
  5352 ;;		wreg, status,2, status,0, pclath, cstack
  5353 ;; Tracked objects:
  5354 ;;		On entry : 0/0
  5355 ;;		On exit  : 0/0
  5356 ;;		Unchanged: 0/0
  5357 ;; Data sizes:     COMMON   BANK0   BANK1   BANK2   BANK3   BANK4   BANK5   BANK6   BANK7   BANK8   BANK9  BANK10  BANK1
      +1  BANK12
  5358 ;;      Params:         0       3       0       0       0       0       0       0       0       0       0       0       
      +0       0
  5359 ;;      Locals:         0       0       0       0       0       0       0       0       0       0       0       0       
      +0       0
  5360 ;;      Temps:          0       1       0       0       0       0       0       0       0       0       0       0       
      +0       0
  5361 ;;      Totals:         0       4       0       0       0       0       0       0       0       0       0       0       
      +0       0
  5362 ;;Total ram usage:        4 bytes
  5363 ;; Hardware stack levels used:    1
  5364 ;; Hardware stack levels required when called:    6
  5365 ;; This function calls:
  5366 ;;		___ftpack
  5367 ;; This function is called by:
  5368 ;;		_LireLux
  5369 ;; This function uses a non-reentrant model
  5370 ;;
  5371                           
  5372                           
  5373                           ;psect for function ___lwtoft
  5374  165C                     ___lwtoft:	
  5375                           
  5376                           ;incstack = 0
  5377                           ; Regs used in ___lwtoft: [wreg+status,2+status,0+pclath+cstack]
  5378  165C  0020               	movlb	0	; select bank0
  5379  165D  082B               	movf	___lwtoft@c,w
  5380  165E  00A3               	movwf	___ftpack@arg
  5381  165F  082C               	movf	___lwtoft@c+1,w
  5382  1660  00A4               	movwf	___ftpack@arg+1
  5383  1661  01A5               	clrf	___ftpack@arg+2
  5384  1662  308E               	movlw	142
  5385  1663  00AE               	movwf	??___lwtoft
  5386  1664  082E               	movf	??___lwtoft,w
  5387  1665  00A6               	movwf	___ftpack@exp
  5388  1666  01A7               	clrf	___ftpack@sign
  5389  1667  318A  220D         	fcall	___ftpack
  5390  1669  0020               	movlb	0	; select bank0
  5391  166A  0823               	movf	?___ftpack,w
  5392  166B  00AB               	movwf	?___lwtoft
  5393  166C  0824               	movf	?___ftpack+1,w
  5394  166D  00AC               	movwf	?___lwtoft+1
  5395  166E  0825               	movf	?___ftpack+2,w
  5396  166F  00AD               	movwf	?___lwtoft+2
  5397  1670  0008               	return
  5398  1671                     __end_of___lwtoft:	
  5399                           
  5400                           	psect	text15
  5401  0AE0                     __ptext15:	
  5402 ;; *************** function ___fttol *****************
  5403 ;; Defined at:
  5404 ;;		line 44 in file "/opt/microchip/xc8/v1.45/sources/common/fttol.c"
  5405 ;; Parameters:    Size  Location     Type
  5406 ;;  f1              3   33[BANK0 ] float 
  5407 ;; Auto vars:     Size  Location     Type
  5408 ;;  lval            4   42[BANK0 ] unsigned long 
  5409 ;;  exp1            1   46[BANK0 ] unsigned char 
  5410 ;;  sign1           1   41[BANK0 ] unsigned char 
  5411 ;; Return value:  Size  Location     Type
  5412 ;;                  4   33[BANK0 ] long 
  5413 ;; Registers used:
  5414 ;;		wreg, status,2, status,0
  5415 ;; Tracked objects:
  5416 ;;		On entry : 0/0
  5417 ;;		On exit  : 0/0
  5418 ;;		Unchanged: 0/0
  5419 ;; Data sizes:     COMMON   BANK0   BANK1   BANK2   BANK3   BANK4   BANK5   BANK6   BANK7   BANK8   BANK9  BANK10  BANK1
      +1  BANK12
  5420 ;;      Params:         0       4       0       0       0       0       0       0       0       0       0       0       
      +0       0
  5421 ;;      Locals:         0       6       0       0       0       0       0       0       0       0       0       0       
      +0       0
  5422 ;;      Temps:          0       4       0       0       0       0       0       0       0       0       0       0       
      +0       0
  5423 ;;      Totals:         0      14       0       0       0       0       0       0       0       0       0       0       
      +0       0
  5424 ;;Total ram usage:       14 bytes
  5425 ;; Hardware stack levels used:    1
  5426 ;; Hardware stack levels required when called:    5
  5427 ;; This function calls:
  5428 ;;		Nothing
  5429 ;; This function is called by:
  5430 ;;		_LireLux
  5431 ;; This function uses a non-reentrant model
  5432 ;;
  5433                           
  5434                           
  5435                           ;psect for function ___fttol
  5436  0AE0                     ___fttol:	
  5437                           
  5438                           ;incstack = 0
  5439                           ; Regs used in ___fttol: [wreg+status,2+status,0]
  5440  0AE0  0020               	movlb	0	; select bank0
  5441  0AE1  0841               	movf	___fttol@f1,w
  5442  0AE2  00C5               	movwf	??___fttol
  5443  0AE3  0842               	movf	___fttol@f1+1,w
  5444  0AE4  00C6               	movwf	??___fttol+1
  5445  0AE5  0843               	movf	___fttol@f1+2,w
  5446  0AE6  00C7               	movwf	??___fttol+2
  5447  0AE7  1003               	clrc
  5448  0AE8  0D46               	rlf	??___fttol+1,w
  5449  0AE9  0D47               	rlf	??___fttol+2,w
  5450  0AEA  00C8               	movwf	??___fttol+3
  5451  0AEB  0848               	movf	??___fttol+3,w
  5452  0AEC  00CE               	movwf	___fttol@exp1
  5453  0AED  084E               	movf	___fttol@exp1,w
  5454  0AEE  1D03               	btfss	3,2
  5455  0AEF  2AF9               	goto	l2365
  5456  0AF0  3000               	movlw	0
  5457  0AF1  00C4               	movwf	?___fttol+3
  5458  0AF2  3000               	movlw	0
  5459  0AF3  00C3               	movwf	?___fttol+2
  5460  0AF4  3000               	movlw	0
  5461  0AF5  00C2               	movwf	?___fttol+1
  5462  0AF6  3000               	movlw	0
  5463  0AF7  00C1               	movwf	?___fttol
  5464  0AF8  0008               	return
  5465  0AF9                     l2365:	
  5466  0AF9  0841               	movf	___fttol@f1,w
  5467  0AFA  00C5               	movwf	??___fttol
  5468  0AFB  0842               	movf	___fttol@f1+1,w
  5469  0AFC  00C6               	movwf	??___fttol+1
  5470  0AFD  0843               	movf	___fttol@f1+2,w
  5471  0AFE  00C7               	movwf	??___fttol+2
  5472  0AFF  3017               	movlw	23
  5473  0B00                     u2735:	
  5474  0B00  36C7               	lsrf	??___fttol+2,f
  5475  0B01  0CC6               	rrf	??___fttol+1,f
  5476  0B02  0CC5               	rrf	??___fttol,f
  5477  0B03  0B89               	decfsz	9,f
  5478  0B04  2B00               	goto	u2735
  5479  0B05  0845               	movf	??___fttol,w
  5480  0B06  00C8               	movwf	??___fttol+3
  5481  0B07  0848               	movf	??___fttol+3,w
  5482  0B08  00C9               	movwf	___fttol@sign1
  5483  0B09  17C2               	bsf	___fttol@f1+1,7
  5484  0B0A  30FF               	movlw	255
  5485  0B0B  05C1               	andwf	___fttol@f1,f
  5486  0B0C  30FF               	movlw	255
  5487  0B0D  05C2               	andwf	___fttol@f1+1,f
  5488  0B0E  3000               	movlw	0
  5489  0B0F  05C3               	andwf	___fttol@f1+2,f
  5490  0B10  0841               	movf	___fttol@f1,w
  5491  0B11  00CA               	movwf	___fttol@lval
  5492  0B12  0842               	movf	___fttol@f1+1,w
  5493  0B13  00CB               	movwf	___fttol@lval+1
  5494  0B14  0843               	movf	___fttol@f1+2,w
  5495  0B15  00CC               	movwf	___fttol@lval+2
  5496  0B16  01CD               	clrf	___fttol@lval+3
  5497  0B17  308E               	movlw	142
  5498  0B18  02CE               	subwf	___fttol@exp1,f
  5499  0B19  1FCE               	btfss	___fttol@exp1,7
  5500  0B1A  2B37               	goto	l2385
  5501  0B1B  084E               	movf	___fttol@exp1,w
  5502  0B1C  3A80               	xorlw	128
  5503  0B1D  3E8F               	addlw	143
  5504  0B1E  1803               	skipnc
  5505  0B1F  2B29               	goto	l2383
  5506  0B20  3000               	movlw	0
  5507  0B21  00C4               	movwf	?___fttol+3
  5508  0B22  3000               	movlw	0
  5509  0B23  00C3               	movwf	?___fttol+2
  5510  0B24  3000               	movlw	0
  5511  0B25  00C2               	movwf	?___fttol+1
  5512  0B26  3000               	movlw	0
  5513  0B27  00C1               	movwf	?___fttol
  5514  0B28  0008               	return
  5515  0B29                     l2383:	
  5516  0B29  3001               	movlw	1
  5517  0B2A                     u2765:	
  5518  0B2A  36CD               	lsrf	___fttol@lval+3,f
  5519  0B2B  0CCC               	rrf	___fttol@lval+2,f
  5520  0B2C  0CCB               	rrf	___fttol@lval+1,f
  5521  0B2D  0CCA               	rrf	___fttol@lval,f
  5522  0B2E  0B89               	decfsz	9,f
  5523  0B2F  2B2A               	goto	u2765
  5524  0B30  3001               	movlw	1
  5525  0B31  00C5               	movwf	??___fttol
  5526  0B32  0845               	movf	??___fttol,w
  5527  0B33  07CE               	addwf	___fttol@exp1,f
  5528  0B34  1903               	btfsc	3,2
  5529  0B35  2B50               	goto	l2393
  5530  0B36  2B29               	goto	l2383
  5531  0B37                     l2385:	
  5532  0B37  3018               	movlw	24
  5533  0B38  024E               	subwf	___fttol@exp1,w
  5534  0B39  1C03               	skipc
  5535  0B3A  2B4D               	goto	l739
  5536  0B3B  3000               	movlw	0
  5537  0B3C  00C4               	movwf	?___fttol+3
  5538  0B3D  3000               	movlw	0
  5539  0B3E  00C3               	movwf	?___fttol+2
  5540  0B3F  3000               	movlw	0
  5541  0B40  00C2               	movwf	?___fttol+1
  5542  0B41  3000               	movlw	0
  5543  0B42  00C1               	movwf	?___fttol
  5544  0B43  0008               	return
  5545  0B44                     l2391:	
  5546  0B44  3001               	movlw	1
  5547  0B45                     u2795:	
  5548  0B45  35CA               	lslf	___fttol@lval,f
  5549  0B46  0DCB               	rlf	___fttol@lval+1,f
  5550  0B47  0DCC               	rlf	___fttol@lval+2,f
  5551  0B48  0DCD               	rlf	___fttol@lval+3,f
  5552  0B49  0B89               	decfsz	9,f
  5553  0B4A  2B45               	goto	u2795
  5554  0B4B  3001               	movlw	1
  5555  0B4C  02CE               	subwf	___fttol@exp1,f
  5556  0B4D                     l739:	
  5557  0B4D  084E               	movf	___fttol@exp1,w
  5558  0B4E  1D03               	btfss	3,2
  5559  0B4F  2B44               	goto	l2391
  5560  0B50                     l2393:	
  5561  0B50  0849               	movf	___fttol@sign1,w
  5562  0B51  1903               	btfsc	3,2
  5563  0B52  2B5E               	goto	l2397
  5564  0B53  09CA               	comf	___fttol@lval,f
  5565  0B54  09CB               	comf	___fttol@lval+1,f
  5566  0B55  09CC               	comf	___fttol@lval+2,f
  5567  0B56  09CD               	comf	___fttol@lval+3,f
  5568  0B57  0ACA               	incf	___fttol@lval,f
  5569  0B58  1903               	skipnz
  5570  0B59  0ACB               	incf	___fttol@lval+1,f
  5571  0B5A  1903               	skipnz
  5572  0B5B  0ACC               	incf	___fttol@lval+2,f
  5573  0B5C  1903               	skipnz
  5574  0B5D  0ACD               	incf	___fttol@lval+3,f
  5575  0B5E                     l2397:	
  5576  0B5E  084D               	movf	___fttol@lval+3,w
  5577  0B5F  00C4               	movwf	?___fttol+3
  5578  0B60  084C               	movf	___fttol@lval+2,w
  5579  0B61  00C3               	movwf	?___fttol+2
  5580  0B62  084B               	movf	___fttol@lval+1,w
  5581  0B63  00C2               	movwf	?___fttol+1
  5582  0B64  084A               	movf	___fttol@lval,w
  5583  0B65  00C1               	movwf	?___fttol
  5584  0B66  0008               	return
  5585  0B67                     __end_of___fttol:	
  5586                           
  5587                           	psect	text16
  5588  1687                     __ptext16:	
  5589 ;; *************** function _BH1750_Write *****************
  5590 ;; Defined at:
  5591 ;;		line 3 in file "BH1750.c"
  5592 ;; Parameters:    Size  Location     Type
  5593 ;;  data1           1    wreg     unsigned char 
  5594 ;; Auto vars:     Size  Location     Type
  5595 ;;  data1           1    7[BANK0 ] unsigned char 
  5596 ;; Return value:  Size  Location     Type
  5597 ;;                  1    wreg      void 
  5598 ;; Registers used:
  5599 ;;		wreg, status,2, status,0, pclath, cstack
  5600 ;; Tracked objects:
  5601 ;;		On entry : 0/0
  5602 ;;		On exit  : 0/0
  5603 ;;		Unchanged: 0/0
  5604 ;; Data sizes:     COMMON   BANK0   BANK1   BANK2   BANK3   BANK4   BANK5   BANK6   BANK7   BANK8   BANK9  BANK10  BANK1
      +1  BANK12
  5605 ;;      Params:         0       0       0       0       0       0       0       0       0       0       0       0       
      +0       0
  5606 ;;      Locals:         0       1       0       0       0       0       0       0       0       0       0       0       
      +0       0
  5607 ;;      Temps:          0       2       0       0       0       0       0       0       0       0       0       0       
      +0       0
  5608 ;;      Totals:         0       3       0       0       0       0       0       0       0       0       0       0       
      +0       0
  5609 ;;Total ram usage:        3 bytes
  5610 ;; Hardware stack levels used:    1
  5611 ;; Hardware stack levels required when called:    7
  5612 ;; This function calls:
  5613 ;;		_I2C_Master_Start
  5614 ;;		_I2C_Master_Stop
  5615 ;;		_I2C_Master_Write
  5616 ;; This function is called by:
  5617 ;;		_LireLux
  5618 ;; This function uses a non-reentrant model
  5619 ;;
  5620                           
  5621                           
  5622                           ;psect for function _BH1750_Write
  5623  1687                     _BH1750_Write:	
  5624                           
  5625                           ;incstack = 0
  5626                           ; Regs used in _BH1750_Write: [wreg+status,2+status,0+pclath+cstack]
  5627                           ;BH1750_Write@data1 stored from wreg
  5628  1687  0020               	movlb	0	; select bank0
  5629  1688  00A7               	movwf	BH1750_Write@data1
  5630                           
  5631                           ;BH1750.c: 6: I2C_Master_Start();
  5632  1689  3195  25FC  3196   	fcall	_I2C_Master_Start
  5633                           
  5634                           ;BH1750.c: 7: I2C_Master_Write(0x46);
  5635  168C  3046               	movlw	70
  5636  168D  0020               	movlb	0	; select bank0
  5637  168E  00A3               	movwf	I2C_Master_Write@d
  5638  168F  3000               	movlw	0
  5639  1690  00A4               	movwf	I2C_Master_Write@d+1
  5640  1691  3196  2612  3196   	fcall	_I2C_Master_Write
  5641                           
  5642                           ;BH1750.c: 8: I2C_Master_Write(data1);
  5643  1694  0020               	movlb	0	; select bank0
  5644  1695  0827               	movf	BH1750_Write@data1,w
  5645  1696  00A5               	movwf	??_BH1750_Write
  5646  1697  01A6               	clrf	??_BH1750_Write+1
  5647  1698  0825               	movf	??_BH1750_Write,w
  5648  1699  00A3               	movwf	I2C_Master_Write@d
  5649  169A  0826               	movf	??_BH1750_Write+1,w
  5650  169B  00A4               	movwf	I2C_Master_Write@d+1
  5651  169C  3196  2612  3196   	fcall	_I2C_Master_Write
  5652                           
  5653                           ;BH1750.c: 9: I2C_Master_Stop();
  5654  169F  3196  2601         	fcall	_I2C_Master_Stop
  5655  16A1  0008               	return
  5656  16A2                     __end_of_BH1750_Write:	
  5657                           
  5658                           	psect	text17
  5659  0804                     __ptext17:	
  5660 ;; *************** function _BH1750_Read *****************
  5661 ;; Defined at:
  5662 ;;		line 12 in file "BH1750.c"
  5663 ;; Parameters:    Size  Location     Type
  5664 ;;		None
  5665 ;; Auto vars:     Size  Location     Type
  5666 ;;  res             2   11[BANK0 ] unsigned int 
  5667 ;; Return value:  Size  Location     Type
  5668 ;;                  2    9[BANK0 ] unsigned int 
  5669 ;; Registers used:
  5670 ;;		wreg, status,2, status,0, pclath, cstack
  5671 ;; Tracked objects:
  5672 ;;		On entry : 0/0
  5673 ;;		On exit  : 0/0
  5674 ;;		Unchanged: 0/0
  5675 ;; Data sizes:     COMMON   BANK0   BANK1   BANK2   BANK3   BANK4   BANK5   BANK6   BANK7   BANK8   BANK9  BANK10  BANK1
      +1  BANK12
  5676 ;;      Params:         0       2       0       0       0       0       0       0       0       0       0       0       
      +0       0
  5677 ;;      Locals:         0       2       0       0       0       0       0       0       0       0       0       0       
      +0       0
  5678 ;;      Temps:          0       0       0       0       0       0       0       0       0       0       0       0       
      +0       0
  5679 ;;      Totals:         0       4       0       0       0       0       0       0       0       0       0       0       
      +0       0
  5680 ;;Total ram usage:        4 bytes
  5681 ;; Hardware stack levels used:    1
  5682 ;; Hardware stack levels required when called:    7
  5683 ;; This function calls:
  5684 ;;		_I2C_Master_Read
  5685 ;;		_I2C_Master_Start
  5686 ;;		_I2C_Master_Stop
  5687 ;;		_I2C_Master_Wait
  5688 ;;		_I2C_Master_Write
  5689 ;; This function is called by:
  5690 ;;		_LireLux
  5691 ;; This function uses a non-reentrant model
  5692 ;;
  5693                           
  5694                           
  5695                           ;psect for function _BH1750_Read
  5696  0804                     _BH1750_Read:	
  5697                           
  5698                           ;BH1750.c: 14: uint16_t res ;
  5699                           ;BH1750.c: 15: I2C_Master_Start();
  5700                           
  5701                           ;incstack = 0
  5702                           ; Regs used in _BH1750_Read: [wreg+status,2+status,0+pclath+cstack]
  5703  0804  3195  25FC  3188   	fcall	_I2C_Master_Start
  5704                           
  5705                           ;BH1750.c: 16: I2C_Master_Write(0x47);
  5706  0807  3047               	movlw	71
  5707  0808  0020               	movlb	0	; select bank0
  5708  0809  00A3               	movwf	I2C_Master_Write@d
  5709  080A  3000               	movlw	0
  5710  080B  00A4               	movwf	I2C_Master_Write@d+1
  5711  080C  3196  2612  3188   	fcall	_I2C_Master_Write
  5712                           
  5713                           ;BH1750.c: 17: res = I2C_Master_Read(1);
  5714  080F  3001               	movlw	1
  5715  0810  0020               	movlb	0	; select bank0
  5716  0811  00A3               	movwf	I2C_Master_Read@a
  5717  0812  3000               	movlw	0
  5718  0813  00A4               	movwf	I2C_Master_Read@a+1
  5719  0814  3196  26FB  3188   	fcall	_I2C_Master_Read
  5720  0817  0020               	movlb	0	; select bank0
  5721  0818  0824               	movf	?_I2C_Master_Read+1,w
  5722  0819  00AC               	movwf	BH1750_Read@res+1
  5723  081A  0823               	movf	?_I2C_Master_Read,w
  5724  081B  00AB               	movwf	BH1750_Read@res
  5725                           
  5726                           ;BH1750.c: 18: res <<= 8;
  5727  081C  3008               	movlw	8
  5728  081D                     u2545:	
  5729  081D  35AB               	lslf	BH1750_Read@res,f
  5730  081E  0DAC               	rlf	BH1750_Read@res+1,f
  5731  081F  0B89               	decfsz	9,f
  5732  0820  281D               	goto	u2545
  5733                           
  5734                           ;BH1750.c: 19: res |= I2C_Master_Read(0);
  5735  0821  3000               	movlw	0
  5736  0822  00A3               	movwf	I2C_Master_Read@a
  5737  0823  00A4               	movwf	I2C_Master_Read@a+1
  5738  0824  3196  26FB  3188   	fcall	_I2C_Master_Read
  5739  0827  0020               	movlb	0	; select bank0
  5740  0828  0823               	movf	?_I2C_Master_Read,w
  5741  0829  04AB               	iorwf	BH1750_Read@res,f
  5742  082A  0824               	movf	?_I2C_Master_Read+1,w
  5743  082B  04AC               	iorwf	BH1750_Read@res+1,f
  5744                           
  5745                           ;BH1750.c: 20: I2C_Master_Wait();
  5746  082C  3196  2621  3188   	fcall	_I2C_Master_Wait
  5747                           
  5748                           ;BH1750.c: 21: I2C_Master_Stop();
  5749  082F  3196  2601         	fcall	_I2C_Master_Stop
  5750                           
  5751                           ;BH1750.c: 22: return res;
  5752  0831  0020               	movlb	0	; select bank0
  5753  0832  082C               	movf	BH1750_Read@res+1,w
  5754  0833  00AA               	movwf	?_BH1750_Read+1
  5755  0834  082B               	movf	BH1750_Read@res,w
  5756  0835  00A9               	movwf	?_BH1750_Read
  5757  0836  0008               	return
  5758  0837                     __end_of_BH1750_Read:	
  5759                           
  5760                           	psect	text18
  5761  15F4                     __ptext18:	
  5762 ;; *************** function _EnableRXInterupts *****************
  5763 ;; Defined at:
  5764 ;;		line 28 in file "interupt.c"
  5765 ;; Parameters:    Size  Location     Type
  5766 ;;		None
  5767 ;; Auto vars:     Size  Location     Type
  5768 ;;		None
  5769 ;; Return value:  Size  Location     Type
  5770 ;;                  1    wreg      void 
  5771 ;; Registers used:
  5772 ;;		None
  5773 ;; Tracked objects:
  5774 ;;		On entry : 0/0
  5775 ;;		On exit  : 0/0
  5776 ;;		Unchanged: 0/0
  5777 ;; Data sizes:     COMMON   BANK0   BANK1   BANK2   BANK3   BANK4   BANK5   BANK6   BANK7   BANK8   BANK9  BANK10  BANK1
      +1  BANK12
  5778 ;;      Params:         0       0       0       0       0       0       0       0       0       0       0       0       
      +0       0
  5779 ;;      Locals:         0       0       0       0       0       0       0       0       0       0       0       0       
      +0       0
  5780 ;;      Temps:          0       0       0       0       0       0       0       0       0       0       0       0       
      +0       0
  5781 ;;      Totals:         0       0       0       0       0       0       0       0       0       0       0       0       
      +0       0
  5782 ;;Total ram usage:        0 bytes
  5783 ;; Hardware stack levels used:    1
  5784 ;; Hardware stack levels required when called:    5
  5785 ;; This function calls:
  5786 ;;		Nothing
  5787 ;; This function is called by:
  5788 ;;		_main
  5789 ;; This function uses a non-reentrant model
  5790 ;;
  5791                           
  5792                           
  5793                           ;psect for function _EnableRXInterupts
  5794  15F4                     _EnableRXInterupts:	
  5795                           
  5796                           ;interupt.c: 30: PIE1bits.RCIE = 1 ;
  5797                           
  5798                           ;incstack = 0
  5799                           ; Regs used in _EnableRXInterupts: []
  5800  15F4  0021               	movlb	1	; select bank1
  5801  15F5  1691               	bsf	17,5	;volatile
  5802  15F6  0008               	return
  5803  15F7                     __end_of_EnableRXInterupts:	
  5804                           
  5805                           	psect	text19
  5806  0002                     __ptext19:	
  5807 ;; *************** function _EnablePeripheralInterupts *****************
  5808 ;; Defined at:
  5809 ;;		line 18 in file "interupt.c"
  5810 ;; Parameters:    Size  Location     Type
  5811 ;;		None
  5812 ;; Auto vars:     Size  Location     Type
  5813 ;;		None
  5814 ;; Return value:  Size  Location     Type
  5815 ;;                  1    wreg      void 
  5816 ;; Registers used:
  5817 ;;		None
  5818 ;; Tracked objects:
  5819 ;;		On entry : 0/0
  5820 ;;		On exit  : 0/0
  5821 ;;		Unchanged: 0/0
  5822 ;; Data sizes:     COMMON   BANK0   BANK1   BANK2   BANK3   BANK4   BANK5   BANK6   BANK7   BANK8   BANK9  BANK10  BANK1
      +1  BANK12
  5823 ;;      Params:         0       0       0       0       0       0       0       0       0       0       0       0       
      +0       0
  5824 ;;      Locals:         0       0       0       0       0       0       0       0       0       0       0       0       
      +0       0
  5825 ;;      Temps:          0       0       0       0       0       0       0       0       0       0       0       0       
      +0       0
  5826 ;;      Totals:         0       0       0       0       0       0       0       0       0       0       0       0       
      +0       0
  5827 ;;Total ram usage:        0 bytes
  5828 ;; Hardware stack levels used:    1
  5829 ;; Hardware stack levels required when called:    5
  5830 ;; This function calls:
  5831 ;;		Nothing
  5832 ;; This function is called by:
  5833 ;;		_main
  5834 ;; This function uses a non-reentrant model
  5835 ;;
  5836                           
  5837                           
  5838                           ;psect for function _EnablePeripheralInterupts
  5839  0002                     _EnablePeripheralInterupts:	
  5840                           
  5841                           ;interupt.c: 20: INTCONbits.PEIE = 1 ;
  5842                           
  5843                           ;incstack = 0
  5844                           ; Regs used in _EnablePeripheralInterupts: []
  5845  0002  170B               	bsf	11,6	;volatile
  5846  0003  0008               	return
  5847  0004                     __end_of_EnablePeripheralInterupts:	
  5848                           
  5849                           	psect	text20
  5850  15F2                     __ptext20:	
  5851 ;; *************** function _EnableGlobalinterupts *****************
  5852 ;; Defined at:
  5853 ;;		line 9 in file "interupt.c"
  5854 ;; Parameters:    Size  Location     Type
  5855 ;;		None
  5856 ;; Auto vars:     Size  Location     Type
  5857 ;;		None
  5858 ;; Return value:  Size  Location     Type
  5859 ;;                  1    wreg      void 
  5860 ;; Registers used:
  5861 ;;		None
  5862 ;; Tracked objects:
  5863 ;;		On entry : 0/0
  5864 ;;		On exit  : 0/0
  5865 ;;		Unchanged: 0/0
  5866 ;; Data sizes:     COMMON   BANK0   BANK1   BANK2   BANK3   BANK4   BANK5   BANK6   BANK7   BANK8   BANK9  BANK10  BANK1
      +1  BANK12
  5867 ;;      Params:         0       0       0       0       0       0       0       0       0       0       0       0       
      +0       0
  5868 ;;      Locals:         0       0       0       0       0       0       0       0       0       0       0       0       
      +0       0
  5869 ;;      Temps:          0       0       0       0       0       0       0       0       0       0       0       0       
      +0       0
  5870 ;;      Totals:         0       0       0       0       0       0       0       0       0       0       0       0       
      +0       0
  5871 ;;Total ram usage:        0 bytes
  5872 ;; Hardware stack levels used:    1
  5873 ;; Hardware stack levels required when called:    5
  5874 ;; This function calls:
  5875 ;;		Nothing
  5876 ;; This function is called by:
  5877 ;;		_main
  5878 ;; This function uses a non-reentrant model
  5879 ;;
  5880                           
  5881                           
  5882                           ;psect for function _EnableGlobalinterupts
  5883  15F2                     _EnableGlobalinterupts:	
  5884                           
  5885                           ;interupt.c: 11: INTCONbits.GIE = 1 ;
  5886                           
  5887                           ;incstack = 0
  5888                           ; Regs used in _EnableGlobalinterupts: []
  5889  15F2  178B               	bsf	11,7	;volatile
  5890  15F3  0008               	return
  5891  15F4                     __end_of_EnableGlobalinterupts:	
  5892                           
  5893                           	psect	text21
  5894  0521                     __ptext21:	
  5895 ;; *************** function _BME280_readTemperature *****************
  5896 ;; Defined at:
  5897 ;;		line 180 in file "bme280.c"
  5898 ;; Parameters:    Size  Location     Type
  5899 ;;		None
  5900 ;; Auto vars:     Size  Location     Type
  5901 ;;  adc_T           4   15[BANK1 ] long 
  5902 ;;  var2            4    4[BANK1 ] long 
  5903 ;;  var1            4    0[BANK1 ] long 
  5904 ;;  temperature     3   12[BANK1 ] float 
  5905 ;; Return value:  Size  Location     Type
  5906 ;;                  3   33[BANK0 ] float 
  5907 ;; Registers used:
  5908 ;;		wreg, status,2, status,0, pclath, cstack
  5909 ;; Tracked objects:
  5910 ;;		On entry : 0/0
  5911 ;;		On exit  : 0/0
  5912 ;;		Unchanged: 0/0
  5913 ;; Data sizes:     COMMON   BANK0   BANK1   BANK2   BANK3   BANK4   BANK5   BANK6   BANK7   BANK8   BANK9  BANK10  BANK1
      +1  BANK12
  5914 ;;      Params:         0       3       0       0       0       0       0       0       0       0       0       0       
      +0       0
  5915 ;;      Locals:         0       0      19       0       0       0       0       0       0       0       0       0       
      +0       0
  5916 ;;      Temps:          0      23       0       0       0       0       0       0       0       0       0       0       
      +0       0
  5917 ;;      Totals:         0      26      19       0       0       0       0       0       0       0       0       0       
      +0       0
  5918 ;;Total ram usage:       45 bytes
  5919 ;; Hardware stack levels used:    1
  5920 ;; Hardware stack levels required when called:    8
  5921 ;; This function calls:
  5922 ;;		_BME280_read24
  5923 ;;		___altoft
  5924 ;;		___ftdiv
  5925 ;;		___lmul
  5926 ;; This function is called by:
  5927 ;;		_main
  5928 ;; This function uses a non-reentrant model
  5929 ;;
  5930                           
  5931                           
  5932                           ;psect for function _BME280_readTemperature
  5933  0521                     _BME280_readTemperature:	
  5934                           
  5935                           ;bme280.c: 182: float temperature ;
  5936                           ;bme280.c: 183: int32_t var1, var2;
  5937                           ;bme280.c: 185: int32_t adc_T = BME280_read24(0xFA);
  5938                           
  5939                           ;incstack = 0
  5940                           ; Regs used in _BME280_readTemperature: [wreg+status,2+status,0+pclath+cstack]
  5941  0521  30FA               	movlw	250
  5942  0522  318B  2367  3185   	fcall	_BME280_read24
  5943  0525  0020               	movlb	0	; select bank0
  5944  0526  082C               	movf	?_BME280_read24+3,w
  5945  0527  0021               	movlb	1	; select bank1
  5946  0528  00D7               	movwf	(BME280_readTemperature@adc_T+3)^(0+128)
  5947  0529  0020               	movlb	0	; select bank0
  5948  052A  082B               	movf	?_BME280_read24+2,w
  5949  052B  0021               	movlb	1	; select bank1
  5950  052C  00D6               	movwf	(BME280_readTemperature@adc_T+2)^(0+128)
  5951  052D  0020               	movlb	0	; select bank0
  5952  052E  082A               	movf	?_BME280_read24+1,w
  5953  052F  0021               	movlb	1	; select bank1
  5954  0530  00D5               	movwf	(BME280_readTemperature@adc_T+1)^(0+128)
  5955  0531  0020               	movlb	0	; select bank0
  5956  0532  0829               	movf	?_BME280_read24,w
  5957  0533  0021               	movlb	1	; select bank1
  5958  0534  00D4               	movwf	BME280_readTemperature@adc_T^(0+128)
  5959                           
  5960                           ;bme280.c: 187: adc_T >>= 4;
  5961  0535  3004               	movlw	4
  5962  0536  0020               	movlb	0	; select bank0
  5963  0537  00C4               	movwf	??_BME280_readTemperature
  5964  0538                     u2855:	
  5965  0538  0021               	movlb	1	; select bank1
  5966  0539  37D7               	asrf	(BME280_readTemperature@adc_T+3)^(0+128),f
  5967  053A  0CD6               	rrf	(BME280_readTemperature@adc_T+2)^(0+128),f
  5968  053B  0CD5               	rrf	(BME280_readTemperature@adc_T+1)^(0+128),f
  5969  053C  0CD4               	rrf	BME280_readTemperature@adc_T^(0+128),f
  5970  053D  0020               	movlb	0	; select bank0
  5971  053E  0BC4               	decfsz	??_BME280_readTemperature& (0+127),f
  5972  053F  2D38               	goto	u2855
  5973                           
  5974                           ;bme280.c: 189: var1 = ((((adc_T>>3) - ((int32_t)cal_data.dig_T1 <<1))) *
  5975                           ;bme280.c: 191: ((int32_t)cal_data.dig_T2)) >> 11;
  5976  0540  0021               	movlb	1	; select bank1
  5977  0541  0824               	movf	_cal_data^(0+128),w
  5978  0542  0020               	movlb	0	; select bank0
  5979  0543  00C4               	movwf	??_BME280_readTemperature
  5980  0544  0021               	movlb	1	; select bank1
  5981  0545  0825               	movf	(_cal_data+1)^(0+128),w
  5982  0546  0020               	movlb	0	; select bank0
  5983  0547  00C5               	movwf	??_BME280_readTemperature+1
  5984  0548  01C6               	clrf	??_BME280_readTemperature+2
  5985  0549  01C7               	clrf	??_BME280_readTemperature+3
  5986  054A  3001               	movlw	1
  5987  054B                     u2865:	
  5988  054B  35C4               	lslf	??_BME280_readTemperature,f
  5989  054C  0DC5               	rlf	??_BME280_readTemperature+1,f
  5990  054D  0DC6               	rlf	??_BME280_readTemperature+2,f
  5991  054E  0DC7               	rlf	??_BME280_readTemperature+3,f
  5992  054F  0B89               	decfsz	9,f
  5993  0550  2D4B               	goto	u2865
  5994  0551  09C4               	comf	??_BME280_readTemperature,f
  5995  0552  09C5               	comf	??_BME280_readTemperature+1,f
  5996  0553  09C6               	comf	??_BME280_readTemperature+2,f
  5997  0554  09C7               	comf	??_BME280_readTemperature+3,f
  5998  0555  0AC4               	incf	??_BME280_readTemperature,f
  5999  0556  1903               	skipnz
  6000  0557  0AC5               	incf	??_BME280_readTemperature+1,f
  6001  0558  1903               	skipnz
  6002  0559  0AC6               	incf	??_BME280_readTemperature+2,f
  6003  055A  1903               	skipnz
  6004  055B  0AC7               	incf	??_BME280_readTemperature+3,f
  6005  055C  0021               	movlb	1	; select bank1
  6006  055D  0854               	movf	BME280_readTemperature@adc_T^(0+128),w
  6007  055E  0020               	movlb	0	; select bank0
  6008  055F  00C8               	movwf	??_BME280_readTemperature+4
  6009  0560  0021               	movlb	1	; select bank1
  6010  0561  0855               	movf	(BME280_readTemperature@adc_T+1)^(0+128),w
  6011  0562  0020               	movlb	0	; select bank0
  6012  0563  00C9               	movwf	??_BME280_readTemperature+5
  6013  0564  0021               	movlb	1	; select bank1
  6014  0565  0856               	movf	(BME280_readTemperature@adc_T+2)^(0+128),w
  6015  0566  0020               	movlb	0	; select bank0
  6016  0567  00CA               	movwf	??_BME280_readTemperature+6
  6017  0568  0021               	movlb	1	; select bank1
  6018  0569  0857               	movf	(BME280_readTemperature@adc_T+3)^(0+128),w
  6019  056A  0020               	movlb	0	; select bank0
  6020  056B  00CB               	movwf	??_BME280_readTemperature+7
  6021  056C  3003               	movlw	3
  6022  056D  00CC               	movwf	??_BME280_readTemperature+8
  6023  056E                     u2875:	
  6024  056E  37CB               	asrf	??_BME280_readTemperature+7,f
  6025  056F  0CCA               	rrf	??_BME280_readTemperature+6,f
  6026  0570  0CC9               	rrf	??_BME280_readTemperature+5,f
  6027  0571  0CC8               	rrf	??_BME280_readTemperature+4,f
  6028  0572  0BCC               	decfsz	??_BME280_readTemperature+8,f
  6029  0573  2D6E               	goto	u2875
  6030  0574  0848               	movf	??_BME280_readTemperature+4,w
  6031  0575  07C4               	addwf	??_BME280_readTemperature,f
  6032  0576  0849               	movf	??_BME280_readTemperature+5,w
  6033  0577  3DC5               	addwfc	??_BME280_readTemperature+1,f
  6034  0578  084A               	movf	??_BME280_readTemperature+6,w
  6035  0579  3DC6               	addwfc	??_BME280_readTemperature+2,f
  6036  057A  084B               	movf	??_BME280_readTemperature+7,w
  6037  057B  3DC7               	addwfc	??_BME280_readTemperature+3,f
  6038  057C  0847               	movf	??_BME280_readTemperature+3,w
  6039  057D  00A6               	movwf	___lmul@multiplier+3
  6040  057E  0846               	movf	??_BME280_readTemperature+2,w
  6041  057F  00A5               	movwf	___lmul@multiplier+2
  6042  0580  0845               	movf	??_BME280_readTemperature+1,w
  6043  0581  00A4               	movwf	___lmul@multiplier+1
  6044  0582  0844               	movf	??_BME280_readTemperature,w
  6045  0583  00A3               	movwf	___lmul@multiplier
  6046  0584  0021               	movlb	1	; select bank1
  6047  0585  0826               	movf	(_cal_data^(0+128)+2),w
  6048  0586  0020               	movlb	0	; select bank0
  6049  0587  00A7               	movwf	___lmul@multiplicand
  6050  0588  0021               	movlb	1	; select bank1
  6051  0589  0827               	movf	((_cal_data+1)^(0+128)+2),w
  6052  058A  0020               	movlb	0	; select bank0
  6053  058B  00A8               	movwf	___lmul@multiplicand+1
  6054  058C  0D89               	rlf	9,f
  6055  058D  3B89               	subwfb	9,f
  6056  058E  0989               	comf	9,f
  6057  058F  00A9               	movwf	___lmul@multiplicand+2
  6058  0590  00AA               	movwf	___lmul@multiplicand+3
  6059  0591  3197  27A0  3185   	fcall	___lmul
  6060  0594  0020               	movlb	0	; select bank0
  6061  0595  0823               	movf	?___lmul,w
  6062  0596  00CD               	movwf	??_BME280_readTemperature+9
  6063  0597  0824               	movf	?___lmul+1,w
  6064  0598  00CE               	movwf	??_BME280_readTemperature+10
  6065  0599  0825               	movf	?___lmul+2,w
  6066  059A  00CF               	movwf	??_BME280_readTemperature+11
  6067  059B  0826               	movf	?___lmul+3,w
  6068  059C  00D0               	movwf	??_BME280_readTemperature+12
  6069  059D  300B               	movlw	11
  6070  059E  00D1               	movwf	??_BME280_readTemperature+13
  6071  059F                     u2885:	
  6072  059F  37D0               	asrf	??_BME280_readTemperature+12,f
  6073  05A0  0CCF               	rrf	??_BME280_readTemperature+11,f
  6074  05A1  0CCE               	rrf	??_BME280_readTemperature+10,f
  6075  05A2  0CCD               	rrf	??_BME280_readTemperature+9,f
  6076  05A3  0BD1               	decfsz	??_BME280_readTemperature+13,f
  6077  05A4  2D9F               	goto	u2885
  6078  05A5  0850               	movf	??_BME280_readTemperature+12,w
  6079  05A6  0021               	movlb	1	; select bank1
  6080  05A7  00C8               	movwf	(BME280_readTemperature@var1+3)^(0+128)
  6081  05A8  0020               	movlb	0	; select bank0
  6082  05A9  084F               	movf	??_BME280_readTemperature+11,w
  6083  05AA  0021               	movlb	1	; select bank1
  6084  05AB  00C7               	movwf	(BME280_readTemperature@var1+2)^(0+128)
  6085  05AC  0020               	movlb	0	; select bank0
  6086  05AD  084E               	movf	??_BME280_readTemperature+10,w
  6087  05AE  0021               	movlb	1	; select bank1
  6088  05AF  00C6               	movwf	(BME280_readTemperature@var1+1)^(0+128)
  6089  05B0  0020               	movlb	0	; select bank0
  6090  05B1  084D               	movf	??_BME280_readTemperature+9,w
  6091  05B2  0021               	movlb	1	; select bank1
  6092  05B3  00C5               	movwf	BME280_readTemperature@var1^(0+128)
  6093                           
  6094                           ;bme280.c: 193: var2 = (((((adc_T>>4) - ((int32_t)cal_data.dig_T1)) *
  6095                           ;bme280.c: 195: ((adc_T>>4) - ((int32_t)cal_data.dig_T1))) >> 12) *
  6096                           ;bme280.c: 197: ((int32_t)cal_data.dig_T3)) >> 14;
  6097  05B4  0824               	movf	_cal_data^(0+128),w
  6098  05B5  0020               	movlb	0	; select bank0
  6099  05B6  00C4               	movwf	??_BME280_readTemperature
  6100  05B7  0021               	movlb	1	; select bank1
  6101  05B8  0825               	movf	(_cal_data+1)^(0+128),w
  6102  05B9  0020               	movlb	0	; select bank0
  6103  05BA  00C5               	movwf	??_BME280_readTemperature+1
  6104  05BB  01C6               	clrf	??_BME280_readTemperature+2
  6105  05BC  01C7               	clrf	??_BME280_readTemperature+3
  6106  05BD  09C4               	comf	??_BME280_readTemperature,f
  6107  05BE  09C5               	comf	??_BME280_readTemperature+1,f
  6108  05BF  09C6               	comf	??_BME280_readTemperature+2,f
  6109  05C0  09C7               	comf	??_BME280_readTemperature+3,f
  6110  05C1  0AC4               	incf	??_BME280_readTemperature,f
  6111  05C2  1903               	skipnz
  6112  05C3  0AC5               	incf	??_BME280_readTemperature+1,f
  6113  05C4  1903               	skipnz
  6114  05C5  0AC6               	incf	??_BME280_readTemperature+2,f
  6115  05C6  1903               	skipnz
  6116  05C7  0AC7               	incf	??_BME280_readTemperature+3,f
  6117  05C8  0021               	movlb	1	; select bank1
  6118  05C9  0854               	movf	BME280_readTemperature@adc_T^(0+128),w
  6119  05CA  0020               	movlb	0	; select bank0
  6120  05CB  00C8               	movwf	??_BME280_readTemperature+4
  6121  05CC  0021               	movlb	1	; select bank1
  6122  05CD  0855               	movf	(BME280_readTemperature@adc_T+1)^(0+128),w
  6123  05CE  0020               	movlb	0	; select bank0
  6124  05CF  00C9               	movwf	??_BME280_readTemperature+5
  6125  05D0  0021               	movlb	1	; select bank1
  6126  05D1  0856               	movf	(BME280_readTemperature@adc_T+2)^(0+128),w
  6127  05D2  0020               	movlb	0	; select bank0
  6128  05D3  00CA               	movwf	??_BME280_readTemperature+6
  6129  05D4  0021               	movlb	1	; select bank1
  6130  05D5  0857               	movf	(BME280_readTemperature@adc_T+3)^(0+128),w
  6131  05D6  0020               	movlb	0	; select bank0
  6132  05D7  00CB               	movwf	??_BME280_readTemperature+7
  6133  05D8  3004               	movlw	4
  6134  05D9  00CC               	movwf	??_BME280_readTemperature+8
  6135  05DA                     u2895:	
  6136  05DA  37CB               	asrf	??_BME280_readTemperature+7,f
  6137  05DB  0CCA               	rrf	??_BME280_readTemperature+6,f
  6138  05DC  0CC9               	rrf	??_BME280_readTemperature+5,f
  6139  05DD  0CC8               	rrf	??_BME280_readTemperature+4,f
  6140  05DE  0BCC               	decfsz	??_BME280_readTemperature+8,f
  6141  05DF  2DDA               	goto	u2895
  6142  05E0  0848               	movf	??_BME280_readTemperature+4,w
  6143  05E1  07C4               	addwf	??_BME280_readTemperature,f
  6144  05E2  0849               	movf	??_BME280_readTemperature+5,w
  6145  05E3  3DC5               	addwfc	??_BME280_readTemperature+1,f
  6146  05E4  084A               	movf	??_BME280_readTemperature+6,w
  6147  05E5  3DC6               	addwfc	??_BME280_readTemperature+2,f
  6148  05E6  084B               	movf	??_BME280_readTemperature+7,w
  6149  05E7  3DC7               	addwfc	??_BME280_readTemperature+3,f
  6150  05E8  0847               	movf	??_BME280_readTemperature+3,w
  6151  05E9  00AA               	movwf	___lmul@multiplicand+3
  6152  05EA  0846               	movf	??_BME280_readTemperature+2,w
  6153  05EB  00A9               	movwf	___lmul@multiplicand+2
  6154  05EC  0845               	movf	??_BME280_readTemperature+1,w
  6155  05ED  00A8               	movwf	___lmul@multiplicand+1
  6156  05EE  0844               	movf	??_BME280_readTemperature,w
  6157  05EF  00A7               	movwf	___lmul@multiplicand
  6158  05F0  0021               	movlb	1	; select bank1
  6159  05F1  0824               	movf	_cal_data^(0+128),w
  6160  05F2  0020               	movlb	0	; select bank0
  6161  05F3  00CD               	movwf	??_BME280_readTemperature+9
  6162  05F4  0021               	movlb	1	; select bank1
  6163  05F5  0825               	movf	(_cal_data+1)^(0+128),w
  6164  05F6  0020               	movlb	0	; select bank0
  6165  05F7  00CE               	movwf	??_BME280_readTemperature+10
  6166  05F8  01CF               	clrf	??_BME280_readTemperature+11
  6167  05F9  01D0               	clrf	??_BME280_readTemperature+12
  6168  05FA  09CD               	comf	??_BME280_readTemperature+9,f
  6169  05FB  09CE               	comf	??_BME280_readTemperature+10,f
  6170  05FC  09CF               	comf	??_BME280_readTemperature+11,f
  6171  05FD  09D0               	comf	??_BME280_readTemperature+12,f
  6172  05FE  0ACD               	incf	??_BME280_readTemperature+9,f
  6173  05FF  1903               	skipnz
  6174  0600  0ACE               	incf	??_BME280_readTemperature+10,f
  6175  0601  1903               	skipnz
  6176  0602  0ACF               	incf	??_BME280_readTemperature+11,f
  6177  0603  1903               	skipnz
  6178  0604  0AD0               	incf	??_BME280_readTemperature+12,f
  6179  0605  0021               	movlb	1	; select bank1
  6180  0606  0854               	movf	BME280_readTemperature@adc_T^(0+128),w
  6181  0607  0020               	movlb	0	; select bank0
  6182  0608  00D1               	movwf	??_BME280_readTemperature+13
  6183  0609  0021               	movlb	1	; select bank1
  6184  060A  0855               	movf	(BME280_readTemperature@adc_T+1)^(0+128),w
  6185  060B  0020               	movlb	0	; select bank0
  6186  060C  00D2               	movwf	??_BME280_readTemperature+14
  6187  060D  0021               	movlb	1	; select bank1
  6188  060E  0856               	movf	(BME280_readTemperature@adc_T+2)^(0+128),w
  6189  060F  0020               	movlb	0	; select bank0
  6190  0610  00D3               	movwf	??_BME280_readTemperature+15
  6191  0611  0021               	movlb	1	; select bank1
  6192  0612  0857               	movf	(BME280_readTemperature@adc_T+3)^(0+128),w
  6193  0613  0020               	movlb	0	; select bank0
  6194  0614  00D4               	movwf	??_BME280_readTemperature+16
  6195  0615  3004               	movlw	4
  6196  0616  00D5               	movwf	??_BME280_readTemperature+17
  6197  0617                     u2905:	
  6198  0617  37D4               	asrf	??_BME280_readTemperature+16,f
  6199  0618  0CD3               	rrf	??_BME280_readTemperature+15,f
  6200  0619  0CD2               	rrf	??_BME280_readTemperature+14,f
  6201  061A  0CD1               	rrf	??_BME280_readTemperature+13,f
  6202  061B  0BD5               	decfsz	??_BME280_readTemperature+17,f
  6203  061C  2E17               	goto	u2905
  6204  061D  0851               	movf	??_BME280_readTemperature+13,w
  6205  061E  07CD               	addwf	??_BME280_readTemperature+9,f
  6206  061F  0852               	movf	??_BME280_readTemperature+14,w
  6207  0620  3DCE               	addwfc	??_BME280_readTemperature+10,f
  6208  0621  0853               	movf	??_BME280_readTemperature+15,w
  6209  0622  3DCF               	addwfc	??_BME280_readTemperature+11,f
  6210  0623  0854               	movf	??_BME280_readTemperature+16,w
  6211  0624  3DD0               	addwfc	??_BME280_readTemperature+12,f
  6212  0625  0850               	movf	??_BME280_readTemperature+12,w
  6213  0626  00A6               	movwf	___lmul@multiplier+3
  6214  0627  084F               	movf	??_BME280_readTemperature+11,w
  6215  0628  00A5               	movwf	___lmul@multiplier+2
  6216  0629  084E               	movf	??_BME280_readTemperature+10,w
  6217  062A  00A4               	movwf	___lmul@multiplier+1
  6218  062B  084D               	movf	??_BME280_readTemperature+9,w
  6219  062C  00A3               	movwf	___lmul@multiplier
  6220  062D  3197  27A0  3185   	fcall	___lmul
  6221  0630  0020               	movlb	0	; select bank0
  6222  0631  0823               	movf	?___lmul,w
  6223  0632  00D6               	movwf	??_BME280_readTemperature+18
  6224  0633  0824               	movf	?___lmul+1,w
  6225  0634  00D7               	movwf	??_BME280_readTemperature+19
  6226  0635  0825               	movf	?___lmul+2,w
  6227  0636  00D8               	movwf	??_BME280_readTemperature+20
  6228  0637  0826               	movf	?___lmul+3,w
  6229  0638  00D9               	movwf	??_BME280_readTemperature+21
  6230  0639  300C               	movlw	12
  6231  063A  00DA               	movwf	??_BME280_readTemperature+22
  6232  063B                     u2915:	
  6233  063B  37D9               	asrf	??_BME280_readTemperature+21,f
  6234  063C  0CD8               	rrf	??_BME280_readTemperature+20,f
  6235  063D  0CD7               	rrf	??_BME280_readTemperature+19,f
  6236  063E  0CD6               	rrf	??_BME280_readTemperature+18,f
  6237  063F  0BDA               	decfsz	??_BME280_readTemperature+22,f
  6238  0640  2E3B               	goto	u2915
  6239  0641  0859               	movf	??_BME280_readTemperature+21,w
  6240  0642  0021               	movlb	1	; select bank1
  6241  0643  00D0               	movwf	(_BME280_readTemperature$1420+3)^(0+128)
  6242  0644  0020               	movlb	0	; select bank0
  6243  0645  0858               	movf	??_BME280_readTemperature+20,w
  6244  0646  0021               	movlb	1	; select bank1
  6245  0647  00CF               	movwf	(_BME280_readTemperature$1420+2)^(0+128)
  6246  0648  0020               	movlb	0	; select bank0
  6247  0649  0857               	movf	??_BME280_readTemperature+19,w
  6248  064A  0021               	movlb	1	; select bank1
  6249  064B  00CE               	movwf	(_BME280_readTemperature$1420+1)^(0+128)
  6250  064C  0020               	movlb	0	; select bank0
  6251  064D  0856               	movf	??_BME280_readTemperature+18,w
  6252  064E  0021               	movlb	1	; select bank1
  6253  064F  00CD               	movwf	_BME280_readTemperature$1420^(0+128)
  6254                           
  6255                           ;bme280.c: 193: var2 = (((((adc_T>>4) - ((int32_t)cal_data.dig_T1)) *
  6256                           ;bme280.c: 195: ((adc_T>>4) - ((int32_t)cal_data.dig_T1))) >> 12) *
  6257                           ;bme280.c: 197: ((int32_t)cal_data.dig_T3)) >> 14;
  6258  0650  0850               	movf	(_BME280_readTemperature$1420+3)^(0+128),w
  6259  0651  0020               	movlb	0	; select bank0
  6260  0652  00A6               	movwf	___lmul@multiplier+3
  6261  0653  0021               	movlb	1	; select bank1
  6262  0654  084F               	movf	(_BME280_readTemperature$1420+2)^(0+128),w
  6263  0655  0020               	movlb	0	; select bank0
  6264  0656  00A5               	movwf	___lmul@multiplier+2
  6265  0657  0021               	movlb	1	; select bank1
  6266  0658  084E               	movf	(_BME280_readTemperature$1420+1)^(0+128),w
  6267  0659  0020               	movlb	0	; select bank0
  6268  065A  00A4               	movwf	___lmul@multiplier+1
  6269  065B  0021               	movlb	1	; select bank1
  6270  065C  084D               	movf	_BME280_readTemperature$1420^(0+128),w
  6271  065D  0020               	movlb	0	; select bank0
  6272  065E  00A3               	movwf	___lmul@multiplier
  6273  065F  0021               	movlb	1	; select bank1
  6274  0660  0828               	movf	(_cal_data^(0+128)+4),w
  6275  0661  0020               	movlb	0	; select bank0
  6276  0662  00A7               	movwf	___lmul@multiplicand
  6277  0663  0021               	movlb	1	; select bank1
  6278  0664  0829               	movf	((_cal_data+1)^(0+128)+4),w
  6279  0665  0020               	movlb	0	; select bank0
  6280  0666  00A8               	movwf	___lmul@multiplicand+1
  6281  0667  0D89               	rlf	9,f
  6282  0668  3B89               	subwfb	9,f
  6283  0669  0989               	comf	9,f
  6284  066A  00A9               	movwf	___lmul@multiplicand+2
  6285  066B  00AA               	movwf	___lmul@multiplicand+3
  6286  066C  3197  27A0  3185   	fcall	___lmul
  6287  066F  0020               	movlb	0	; select bank0
  6288  0670  0823               	movf	?___lmul,w
  6289  0671  00C4               	movwf	??_BME280_readTemperature
  6290  0672  0824               	movf	?___lmul+1,w
  6291  0673  00C5               	movwf	??_BME280_readTemperature+1
  6292  0674  0825               	movf	?___lmul+2,w
  6293  0675  00C6               	movwf	??_BME280_readTemperature+2
  6294  0676  0826               	movf	?___lmul+3,w
  6295  0677  00C7               	movwf	??_BME280_readTemperature+3
  6296  0678  300E               	movlw	14
  6297  0679  00C8               	movwf	??_BME280_readTemperature+4
  6298  067A                     u2925:	
  6299  067A  37C7               	asrf	??_BME280_readTemperature+3,f
  6300  067B  0CC6               	rrf	??_BME280_readTemperature+2,f
  6301  067C  0CC5               	rrf	??_BME280_readTemperature+1,f
  6302  067D  0CC4               	rrf	??_BME280_readTemperature,f
  6303  067E  0BC8               	decfsz	??_BME280_readTemperature+4,f
  6304  067F  2E7A               	goto	u2925
  6305  0680  0847               	movf	??_BME280_readTemperature+3,w
  6306  0681  0021               	movlb	1	; select bank1
  6307  0682  00CC               	movwf	(BME280_readTemperature@var2+3)^(0+128)
  6308  0683  0020               	movlb	0	; select bank0
  6309  0684  0846               	movf	??_BME280_readTemperature+2,w
  6310  0685  0021               	movlb	1	; select bank1
  6311  0686  00CB               	movwf	(BME280_readTemperature@var2+2)^(0+128)
  6312  0687  0020               	movlb	0	; select bank0
  6313  0688  0845               	movf	??_BME280_readTemperature+1,w
  6314  0689  0021               	movlb	1	; select bank1
  6315  068A  00CA               	movwf	(BME280_readTemperature@var2+1)^(0+128)
  6316  068B  0020               	movlb	0	; select bank0
  6317  068C  0844               	movf	??_BME280_readTemperature,w
  6318  068D  0021               	movlb	1	; select bank1
  6319  068E  00C9               	movwf	BME280_readTemperature@var2^(0+128)
  6320                           
  6321                           ;bme280.c: 199: t_fine = var1 + var2;
  6322  068F  0845               	movf	BME280_readTemperature@var1^(0+128),w
  6323  0690  0749               	addwf	BME280_readTemperature@var2^(0+128),w
  6324  0691  0020               	movlb	0	; select bank0
  6325  0692  00C4               	movwf	??_BME280_readTemperature
  6326  0693  0021               	movlb	1	; select bank1
  6327  0694  0846               	movf	(BME280_readTemperature@var1+1)^(0+128),w
  6328  0695  3D4A               	addwfc	(BME280_readTemperature@var2+1)^(0+128),w
  6329  0696  0020               	movlb	0	; select bank0
  6330  0697  00C5               	movwf	??_BME280_readTemperature+1
  6331  0698  0021               	movlb	1	; select bank1
  6332  0699  0847               	movf	(BME280_readTemperature@var1+2)^(0+128),w
  6333  069A  3D4B               	addwfc	(BME280_readTemperature@var2+2)^(0+128),w
  6334  069B  0020               	movlb	0	; select bank0
  6335  069C  00C6               	movwf	??_BME280_readTemperature+2
  6336  069D  0021               	movlb	1	; select bank1
  6337  069E  0848               	movf	(BME280_readTemperature@var1+3)^(0+128),w
  6338  069F  3D4C               	addwfc	(BME280_readTemperature@var2+3)^(0+128),w
  6339  06A0  0020               	movlb	0	; select bank0
  6340  06A1  00C7               	movwf	??_BME280_readTemperature+3
  6341  06A2  0847               	movf	??_BME280_readTemperature+3,w
  6342  06A3  00EB               	movwf	_t_fine+3
  6343  06A4  0846               	movf	??_BME280_readTemperature+2,w
  6344  06A5  00EA               	movwf	_t_fine+2
  6345  06A6  0845               	movf	??_BME280_readTemperature+1,w
  6346  06A7  00E9               	movwf	_t_fine+1
  6347  06A8  0844               	movf	??_BME280_readTemperature,w
  6348  06A9  00E8               	movwf	_t_fine
  6349                           
  6350                           ;bme280.c: 202: temperature = (t_fine * 5 + 128) >> 8;
  6351  06AA  3080               	movlw	128
  6352  06AB  00C4               	movwf	??_BME280_readTemperature
  6353  06AC  3000               	movlw	0
  6354  06AD  00C5               	movwf	??_BME280_readTemperature+1
  6355  06AE  3000               	movlw	0
  6356  06AF  00C6               	movwf	??_BME280_readTemperature+2
  6357  06B0  3000               	movlw	0
  6358  06B1  00C7               	movwf	??_BME280_readTemperature+3
  6359  06B2  3000               	movlw	0
  6360  06B3  00AA               	movwf	___lmul@multiplicand+3
  6361  06B4  3000               	movlw	0
  6362  06B5  00A9               	movwf	___lmul@multiplicand+2
  6363  06B6  3000               	movlw	0
  6364  06B7  00A8               	movwf	___lmul@multiplicand+1
  6365  06B8  3005               	movlw	5
  6366  06B9  00A7               	movwf	___lmul@multiplicand
  6367  06BA  086B               	movf	_t_fine+3,w
  6368  06BB  00A6               	movwf	___lmul@multiplier+3
  6369  06BC  086A               	movf	_t_fine+2,w
  6370  06BD  00A5               	movwf	___lmul@multiplier+2
  6371  06BE  0869               	movf	_t_fine+1,w
  6372  06BF  00A4               	movwf	___lmul@multiplier+1
  6373  06C0  0868               	movf	_t_fine,w
  6374  06C1  00A3               	movwf	___lmul@multiplier
  6375  06C2  3197  27A0  3185   	fcall	___lmul
  6376  06C5  0020               	movlb	0	; select bank0
  6377  06C6  0823               	movf	?___lmul,w
  6378  06C7  07C4               	addwf	??_BME280_readTemperature,f
  6379  06C8  0824               	movf	?___lmul+1,w
  6380  06C9  3DC5               	addwfc	??_BME280_readTemperature+1,f
  6381  06CA  0825               	movf	?___lmul+2,w
  6382  06CB  3DC6               	addwfc	??_BME280_readTemperature+2,f
  6383  06CC  0826               	movf	?___lmul+3,w
  6384  06CD  3DC7               	addwfc	??_BME280_readTemperature+3,f
  6385  06CE  3008               	movlw	8
  6386  06CF  00C8               	movwf	??_BME280_readTemperature+4
  6387  06D0                     u2935:	
  6388  06D0  37C7               	asrf	??_BME280_readTemperature+3,f
  6389  06D1  0CC6               	rrf	??_BME280_readTemperature+2,f
  6390  06D2  0CC5               	rrf	??_BME280_readTemperature+1,f
  6391  06D3  0CC4               	rrf	??_BME280_readTemperature,f
  6392  06D4  0BC8               	decfsz	??_BME280_readTemperature+4,f
  6393  06D5  2ED0               	goto	u2935
  6394  06D6  0847               	movf	??_BME280_readTemperature+3,w
  6395  06D7  00B2               	movwf	___altoft@c+3
  6396  06D8  0846               	movf	??_BME280_readTemperature+2,w
  6397  06D9  00B1               	movwf	___altoft@c+2
  6398  06DA  0845               	movf	??_BME280_readTemperature+1,w
  6399  06DB  00B0               	movwf	___altoft@c+1
  6400  06DC  0844               	movf	??_BME280_readTemperature,w
  6401  06DD  00AF               	movwf	___altoft@c
  6402  06DE  3187  27C3  3185   	fcall	___altoft
  6403  06E1  0020               	movlb	0	; select bank0
  6404  06E2  082F               	movf	?___altoft,w
  6405  06E3  0021               	movlb	1	; select bank1
  6406  06E4  00D1               	movwf	BME280_readTemperature@temperature^(0+128)
  6407  06E5  0020               	movlb	0	; select bank0
  6408  06E6  0830               	movf	?___altoft+1,w
  6409  06E7  0021               	movlb	1	; select bank1
  6410  06E8  00D2               	movwf	(BME280_readTemperature@temperature+1)^(0+128)
  6411  06E9  0020               	movlb	0	; select bank0
  6412  06EA  0831               	movf	?___altoft+2,w
  6413  06EB  0021               	movlb	1	; select bank1
  6414  06EC  00D3               	movwf	(BME280_readTemperature@temperature+2)^(0+128)
  6415                           
  6416                           ;bme280.c: 204: temperature = temperature / 100;
  6417  06ED  3000               	movlw	0
  6418  06EE  0020               	movlb	0	; select bank0
  6419  06EF  00B1               	movwf	___ftdiv@f2
  6420  06F0  30C8               	movlw	200
  6421  06F1  00B2               	movwf	___ftdiv@f2+1
  6422  06F2  3042               	movlw	66
  6423  06F3  00B3               	movwf	___ftdiv@f2+2
  6424  06F4  0021               	movlb	1	; select bank1
  6425  06F5  0851               	movf	BME280_readTemperature@temperature^(0+128),w
  6426  06F6  0020               	movlb	0	; select bank0
  6427  06F7  00B4               	movwf	___ftdiv@f1
  6428  06F8  0021               	movlb	1	; select bank1
  6429  06F9  0852               	movf	(BME280_readTemperature@temperature+1)^(0+128),w
  6430  06FA  0020               	movlb	0	; select bank0
  6431  06FB  00B5               	movwf	___ftdiv@f1+1
  6432  06FC  0021               	movlb	1	; select bank1
  6433  06FD  0853               	movf	(BME280_readTemperature@temperature+2)^(0+128),w
  6434  06FE  0020               	movlb	0	; select bank0
  6435  06FF  00B6               	movwf	___ftdiv@f1+2
  6436  0700  3187  271A         	fcall	___ftdiv
  6437  0702  0020               	movlb	0	; select bank0
  6438  0703  0831               	movf	?___ftdiv,w
  6439  0704  0021               	movlb	1	; select bank1
  6440  0705  00D1               	movwf	BME280_readTemperature@temperature^(0+128)
  6441  0706  0020               	movlb	0	; select bank0
  6442  0707  0832               	movf	?___ftdiv+1,w
  6443  0708  0021               	movlb	1	; select bank1
  6444  0709  00D2               	movwf	(BME280_readTemperature@temperature+1)^(0+128)
  6445  070A  0020               	movlb	0	; select bank0
  6446  070B  0833               	movf	?___ftdiv+2,w
  6447  070C  0021               	movlb	1	; select bank1
  6448  070D  00D3               	movwf	(BME280_readTemperature@temperature+2)^(0+128)
  6449                           
  6450                           ;bme280.c: 206: return temperature ;
  6451  070E  0851               	movf	BME280_readTemperature@temperature^(0+128),w
  6452  070F  0020               	movlb	0	; select bank0
  6453  0710  00C1               	movwf	?_BME280_readTemperature
  6454  0711  0021               	movlb	1	; select bank1
  6455  0712  0852               	movf	(BME280_readTemperature@temperature+1)^(0+128),w
  6456  0713  0020               	movlb	0	; select bank0
  6457  0714  00C2               	movwf	?_BME280_readTemperature+1
  6458  0715  0021               	movlb	1	; select bank1
  6459  0716  0853               	movf	(BME280_readTemperature@temperature+2)^(0+128),w
  6460  0717  0020               	movlb	0	; select bank0
  6461  0718  00C3               	movwf	?_BME280_readTemperature+2
  6462  0719  0008               	return
  6463  071A                     __end_of_BME280_readTemperature:	
  6464                           
  6465                           	psect	text22
  6466  0046                     __ptext22:	
  6467 ;; *************** function _BME280_readPressure *****************
  6468 ;; Defined at:
  6469 ;;		line 249 in file "bme280.c"
  6470 ;; Parameters:    Size  Location     Type
  6471 ;;		None
  6472 ;; Auto vars:     Size  Location     Type
  6473 ;;  var1            4   16[BANK1 ] long 
  6474 ;;  p               4   12[BANK1 ] unsigned long 
  6475 ;;  var2            4    8[BANK1 ] long 
  6476 ;;  adc_P           4    0[BANK1 ] long 
  6477 ;; Return value:  Size  Location     Type
  6478 ;;                  3   33[BANK0 ] float 
  6479 ;; Registers used:
  6480 ;;		wreg, status,2, status,0, pclath, cstack
  6481 ;; Tracked objects:
  6482 ;;		On entry : 0/0
  6483 ;;		On exit  : 0/0
  6484 ;;		Unchanged: 0/0
  6485 ;; Data sizes:     COMMON   BANK0   BANK1   BANK2   BANK3   BANK4   BANK5   BANK6   BANK7   BANK8   BANK9  BANK10  BANK1
      +1  BANK12
  6486 ;;      Params:         0       3       0       0       0       0       0       0       0       0       0       0       
      +0       0
  6487 ;;      Locals:         0       0      20       0       0       0       0       0       0       0       0       0       
      +0       0
  6488 ;;      Temps:          0      17       0       0       0       0       0       0       0       0       0       0       
      +0       0
  6489 ;;      Totals:         0      20      20       0       0       0       0       0       0       0       0       0       
      +0       0
  6490 ;;Total ram usage:       40 bytes
  6491 ;; Hardware stack levels used:    1
  6492 ;; Hardware stack levels required when called:    8
  6493 ;; This function calls:
  6494 ;;		_BME280_read24
  6495 ;;		___ftdiv
  6496 ;;		___lldiv
  6497 ;;		___lltoft
  6498 ;;		___lmul
  6499 ;; This function is called by:
  6500 ;;		_main
  6501 ;; This function uses a non-reentrant model
  6502 ;;
  6503                           
  6504                           
  6505                           ;psect for function _BME280_readPressure
  6506  0046                     _BME280_readPressure:	
  6507                           
  6508                           ;bme280.c: 251: int32_t adc_P = BME280_read24(0xF7);
  6509                           
  6510                           ;incstack = 0
  6511                           ; Regs used in _BME280_readPressure: [wreg+status,2+status,0+pclath+cstack]
  6512  0046  30F7               	movlw	247
  6513  0047  318B  2367  3180   	fcall	_BME280_read24
  6514  004A  0020               	movlb	0	; select bank0
  6515  004B  082C               	movf	?_BME280_read24+3,w
  6516  004C  0021               	movlb	1	; select bank1
  6517  004D  00C8               	movwf	(BME280_readPressure@adc_P+3)^(0+128)
  6518  004E  0020               	movlb	0	; select bank0
  6519  004F  082B               	movf	?_BME280_read24+2,w
  6520  0050  0021               	movlb	1	; select bank1
  6521  0051  00C7               	movwf	(BME280_readPressure@adc_P+2)^(0+128)
  6522  0052  0020               	movlb	0	; select bank0
  6523  0053  082A               	movf	?_BME280_read24+1,w
  6524  0054  0021               	movlb	1	; select bank1
  6525  0055  00C6               	movwf	(BME280_readPressure@adc_P+1)^(0+128)
  6526  0056  0020               	movlb	0	; select bank0
  6527  0057  0829               	movf	?_BME280_read24,w
  6528  0058  0021               	movlb	1	; select bank1
  6529  0059  00C5               	movwf	BME280_readPressure@adc_P^(0+128)
  6530                           
  6531                           ;bme280.c: 252: int32_t var1,var2 ;
  6532                           ;bme280.c: 253: uint32_t p ;
  6533                           ;bme280.c: 257: var1 = (((int32_t)t_fine)>>1) - (int32_t)64000;
  6534  005A  0020               	movlb	0	; select bank0
  6535  005B  0868               	movf	_t_fine,w
  6536  005C  00C4               	movwf	??_BME280_readPressure
  6537  005D  0869               	movf	_t_fine+1,w
  6538  005E  00C5               	movwf	??_BME280_readPressure+1
  6539  005F  086A               	movf	_t_fine+2,w
  6540  0060  00C6               	movwf	??_BME280_readPressure+2
  6541  0061  086B               	movf	_t_fine+3,w
  6542  0062  00C7               	movwf	??_BME280_readPressure+3
  6543  0063  3001               	movlw	1
  6544  0064  00C8               	movwf	??_BME280_readPressure+4
  6545  0065                     u3065:	
  6546  0065  37C7               	asrf	??_BME280_readPressure+3,f
  6547  0066  0CC6               	rrf	??_BME280_readPressure+2,f
  6548  0067  0CC5               	rrf	??_BME280_readPressure+1,f
  6549  0068  0CC4               	rrf	??_BME280_readPressure,f
  6550  0069  0BC8               	decfsz	??_BME280_readPressure+4,f
  6551  006A  2865               	goto	u3065
  6552  006B  3000               	movlw	0
  6553  006C  0744               	addwf	??_BME280_readPressure,w
  6554  006D  0021               	movlb	1	; select bank1
  6555  006E  00D5               	movwf	BME280_readPressure@var1^(0+128)
  6556  006F  3006               	movlw	6
  6557  0070  0020               	movlb	0	; select bank0
  6558  0071  3D45               	addwfc	??_BME280_readPressure+1,w
  6559  0072  0021               	movlb	1	; select bank1
  6560  0073  00D6               	movwf	(BME280_readPressure@var1+1)^(0+128)
  6561  0074  30FF               	movlw	255
  6562  0075  0020               	movlb	0	; select bank0
  6563  0076  3D46               	addwfc	??_BME280_readPressure+2,w
  6564  0077  0021               	movlb	1	; select bank1
  6565  0078  00D7               	movwf	(BME280_readPressure@var1+2)^(0+128)
  6566  0079  30FF               	movlw	255
  6567  007A  0020               	movlb	0	; select bank0
  6568  007B  3D47               	addwfc	??_BME280_readPressure+3,w
  6569  007C  0021               	movlb	1	; select bank1
  6570  007D  00D8               	movwf	(BME280_readPressure@var1+3)^(0+128)
  6571                           
  6572                           ;bme280.c: 258: var2 = (((var1>>2) * (var1>>2)) >> 11 ) * ((int32_t)cal_data.dig_P6);
  6573  007E  0855               	movf	BME280_readPressure@var1^(0+128),w
  6574  007F  0020               	movlb	0	; select bank0
  6575  0080  00C4               	movwf	??_BME280_readPressure
  6576  0081  0021               	movlb	1	; select bank1
  6577  0082  0856               	movf	(BME280_readPressure@var1+1)^(0+128),w
  6578  0083  0020               	movlb	0	; select bank0
  6579  0084  00C5               	movwf	??_BME280_readPressure+1
  6580  0085  0021               	movlb	1	; select bank1
  6581  0086  0857               	movf	(BME280_readPressure@var1+2)^(0+128),w
  6582  0087  0020               	movlb	0	; select bank0
  6583  0088  00C6               	movwf	??_BME280_readPressure+2
  6584  0089  0021               	movlb	1	; select bank1
  6585  008A  0858               	movf	(BME280_readPressure@var1+3)^(0+128),w
  6586  008B  0020               	movlb	0	; select bank0
  6587  008C  00C7               	movwf	??_BME280_readPressure+3
  6588  008D  3002               	movlw	2
  6589  008E  00C8               	movwf	??_BME280_readPressure+4
  6590  008F                     u3075:	
  6591  008F  37C7               	asrf	??_BME280_readPressure+3,f
  6592  0090  0CC6               	rrf	??_BME280_readPressure+2,f
  6593  0091  0CC5               	rrf	??_BME280_readPressure+1,f
  6594  0092  0CC4               	rrf	??_BME280_readPressure,f
  6595  0093  0BC8               	decfsz	??_BME280_readPressure+4,f
  6596  0094  288F               	goto	u3075
  6597  0095  0847               	movf	??_BME280_readPressure+3,w
  6598  0096  00AA               	movwf	___lmul@multiplicand+3
  6599  0097  0846               	movf	??_BME280_readPressure+2,w
  6600  0098  00A9               	movwf	___lmul@multiplicand+2
  6601  0099  0845               	movf	??_BME280_readPressure+1,w
  6602  009A  00A8               	movwf	___lmul@multiplicand+1
  6603  009B  0844               	movf	??_BME280_readPressure,w
  6604  009C  00A7               	movwf	___lmul@multiplicand
  6605  009D  0021               	movlb	1	; select bank1
  6606  009E  0855               	movf	BME280_readPressure@var1^(0+128),w
  6607  009F  0020               	movlb	0	; select bank0
  6608  00A0  00C9               	movwf	??_BME280_readPressure+5
  6609  00A1  0021               	movlb	1	; select bank1
  6610  00A2  0856               	movf	(BME280_readPressure@var1+1)^(0+128),w
  6611  00A3  0020               	movlb	0	; select bank0
  6612  00A4  00CA               	movwf	??_BME280_readPressure+6
  6613  00A5  0021               	movlb	1	; select bank1
  6614  00A6  0857               	movf	(BME280_readPressure@var1+2)^(0+128),w
  6615  00A7  0020               	movlb	0	; select bank0
  6616  00A8  00CB               	movwf	??_BME280_readPressure+7
  6617  00A9  0021               	movlb	1	; select bank1
  6618  00AA  0858               	movf	(BME280_readPressure@var1+3)^(0+128),w
  6619  00AB  0020               	movlb	0	; select bank0
  6620  00AC  00CC               	movwf	??_BME280_readPressure+8
  6621  00AD  3002               	movlw	2
  6622  00AE  00CD               	movwf	??_BME280_readPressure+9
  6623  00AF                     u3085:	
  6624  00AF  37CC               	asrf	??_BME280_readPressure+8,f
  6625  00B0  0CCB               	rrf	??_BME280_readPressure+7,f
  6626  00B1  0CCA               	rrf	??_BME280_readPressure+6,f
  6627  00B2  0CC9               	rrf	??_BME280_readPressure+5,f
  6628  00B3  0BCD               	decfsz	??_BME280_readPressure+9,f
  6629  00B4  28AF               	goto	u3085
  6630  00B5  084C               	movf	??_BME280_readPressure+8,w
  6631  00B6  00A6               	movwf	___lmul@multiplier+3
  6632  00B7  084B               	movf	??_BME280_readPressure+7,w
  6633  00B8  00A5               	movwf	___lmul@multiplier+2
  6634  00B9  084A               	movf	??_BME280_readPressure+6,w
  6635  00BA  00A4               	movwf	___lmul@multiplier+1
  6636  00BB  0849               	movf	??_BME280_readPressure+5,w
  6637  00BC  00A3               	movwf	___lmul@multiplier
  6638  00BD  3197  27A0  3180   	fcall	___lmul
  6639  00C0  0020               	movlb	0	; select bank0
  6640  00C1  0823               	movf	?___lmul,w
  6641  00C2  00CE               	movwf	??_BME280_readPressure+10
  6642  00C3  0824               	movf	?___lmul+1,w
  6643  00C4  00CF               	movwf	??_BME280_readPressure+11
  6644  00C5  0825               	movf	?___lmul+2,w
  6645  00C6  00D0               	movwf	??_BME280_readPressure+12
  6646  00C7  0826               	movf	?___lmul+3,w
  6647  00C8  00D1               	movwf	??_BME280_readPressure+13
  6648  00C9  300B               	movlw	11
  6649  00CA  00D2               	movwf	??_BME280_readPressure+14
  6650  00CB                     u3095:	
  6651  00CB  37D1               	asrf	??_BME280_readPressure+13,f
  6652  00CC  0CD0               	rrf	??_BME280_readPressure+12,f
  6653  00CD  0CCF               	rrf	??_BME280_readPressure+11,f
  6654  00CE  0CCE               	rrf	??_BME280_readPressure+10,f
  6655  00CF  0BD2               	decfsz	??_BME280_readPressure+14,f
  6656  00D0  28CB               	goto	u3095
  6657  00D1  0851               	movf	??_BME280_readPressure+13,w
  6658  00D2  0021               	movlb	1	; select bank1
  6659  00D3  00CC               	movwf	(_BME280_readPressure$1426+3)^(0+128)
  6660  00D4  0020               	movlb	0	; select bank0
  6661  00D5  0850               	movf	??_BME280_readPressure+12,w
  6662  00D6  0021               	movlb	1	; select bank1
  6663  00D7  00CB               	movwf	(_BME280_readPressure$1426+2)^(0+128)
  6664  00D8  0020               	movlb	0	; select bank0
  6665  00D9  084F               	movf	??_BME280_readPressure+11,w
  6666  00DA  0021               	movlb	1	; select bank1
  6667  00DB  00CA               	movwf	(_BME280_readPressure$1426+1)^(0+128)
  6668  00DC  0020               	movlb	0	; select bank0
  6669  00DD  084E               	movf	??_BME280_readPressure+10,w
  6670  00DE  0021               	movlb	1	; select bank1
  6671  00DF  00C9               	movwf	_BME280_readPressure$1426^(0+128)
  6672                           
  6673                           ;bme280.c: 258: var2 = (((var1>>2) * (var1>>2)) >> 11 ) * ((int32_t)cal_data.dig_P6);
  6674  00E0  084C               	movf	(_BME280_readPressure$1426+3)^(0+128),w
  6675  00E1  0020               	movlb	0	; select bank0
  6676  00E2  00A6               	movwf	___lmul@multiplier+3
  6677  00E3  0021               	movlb	1	; select bank1
  6678  00E4  084B               	movf	(_BME280_readPressure$1426+2)^(0+128),w
  6679  00E5  0020               	movlb	0	; select bank0
  6680  00E6  00A5               	movwf	___lmul@multiplier+2
  6681  00E7  0021               	movlb	1	; select bank1
  6682  00E8  084A               	movf	(_BME280_readPressure$1426+1)^(0+128),w
  6683  00E9  0020               	movlb	0	; select bank0
  6684  00EA  00A4               	movwf	___lmul@multiplier+1
  6685  00EB  0021               	movlb	1	; select bank1
  6686  00EC  0849               	movf	_BME280_readPressure$1426^(0+128),w
  6687  00ED  0020               	movlb	0	; select bank0
  6688  00EE  00A3               	movwf	___lmul@multiplier
  6689  00EF  0021               	movlb	1	; select bank1
  6690  00F0  0834               	movf	(_cal_data^(0+128)+16),w
  6691  00F1  0020               	movlb	0	; select bank0
  6692  00F2  00A7               	movwf	___lmul@multiplicand
  6693  00F3  0021               	movlb	1	; select bank1
  6694  00F4  0835               	movf	((_cal_data+1)^(0+128)+16),w
  6695  00F5  0020               	movlb	0	; select bank0
  6696  00F6  00A8               	movwf	___lmul@multiplicand+1
  6697  00F7  0D89               	rlf	9,f
  6698  00F8  3B89               	subwfb	9,f
  6699  00F9  0989               	comf	9,f
  6700  00FA  00A9               	movwf	___lmul@multiplicand+2
  6701  00FB  00AA               	movwf	___lmul@multiplicand+3
  6702  00FC  3197  27A0  3180   	fcall	___lmul
  6703  00FF  0020               	movlb	0	; select bank0
  6704  0100  0826               	movf	?___lmul+3,w
  6705  0101  0021               	movlb	1	; select bank1
  6706  0102  00D0               	movwf	(BME280_readPressure@var2+3)^(0+128)
  6707  0103  0020               	movlb	0	; select bank0
  6708  0104  0825               	movf	?___lmul+2,w
  6709  0105  0021               	movlb	1	; select bank1
  6710  0106  00CF               	movwf	(BME280_readPressure@var2+2)^(0+128)
  6711  0107  0020               	movlb	0	; select bank0
  6712  0108  0824               	movf	?___lmul+1,w
  6713  0109  0021               	movlb	1	; select bank1
  6714  010A  00CE               	movwf	(BME280_readPressure@var2+1)^(0+128)
  6715  010B  0020               	movlb	0	; select bank0
  6716  010C  0823               	movf	?___lmul,w
  6717  010D  0021               	movlb	1	; select bank1
  6718  010E  00CD               	movwf	BME280_readPressure@var2^(0+128)
  6719                           
  6720                           ;bme280.c: 259: var2 = var2 + ((var1*((int32_t)cal_data.dig_P5))<<1);
  6721  010F  084D               	movf	BME280_readPressure@var2^(0+128),w
  6722  0110  0020               	movlb	0	; select bank0
  6723  0111  00C4               	movwf	??_BME280_readPressure
  6724  0112  0021               	movlb	1	; select bank1
  6725  0113  084E               	movf	(BME280_readPressure@var2+1)^(0+128),w
  6726  0114  0020               	movlb	0	; select bank0
  6727  0115  00C5               	movwf	??_BME280_readPressure+1
  6728  0116  0021               	movlb	1	; select bank1
  6729  0117  084F               	movf	(BME280_readPressure@var2+2)^(0+128),w
  6730  0118  0020               	movlb	0	; select bank0
  6731  0119  00C6               	movwf	??_BME280_readPressure+2
  6732  011A  0021               	movlb	1	; select bank1
  6733  011B  0850               	movf	(BME280_readPressure@var2+3)^(0+128),w
  6734  011C  0020               	movlb	0	; select bank0
  6735  011D  00C7               	movwf	??_BME280_readPressure+3
  6736  011E  0021               	movlb	1	; select bank1
  6737  011F  0832               	movf	(_cal_data^(0+128)+14),w
  6738  0120  0020               	movlb	0	; select bank0
  6739  0121  00A3               	movwf	___lmul@multiplier
  6740  0122  0021               	movlb	1	; select bank1
  6741  0123  0833               	movf	((_cal_data+1)^(0+128)+14),w
  6742  0124  0020               	movlb	0	; select bank0
  6743  0125  00A4               	movwf	___lmul@multiplier+1
  6744  0126  0D89               	rlf	9,f
  6745  0127  3B89               	subwfb	9,f
  6746  0128  0989               	comf	9,f
  6747  0129  00A5               	movwf	___lmul@multiplier+2
  6748  012A  00A6               	movwf	___lmul@multiplier+3
  6749  012B  0021               	movlb	1	; select bank1
  6750  012C  0858               	movf	(BME280_readPressure@var1+3)^(0+128),w
  6751  012D  0020               	movlb	0	; select bank0
  6752  012E  00AA               	movwf	___lmul@multiplicand+3
  6753  012F  0021               	movlb	1	; select bank1
  6754  0130  0857               	movf	(BME280_readPressure@var1+2)^(0+128),w
  6755  0131  0020               	movlb	0	; select bank0
  6756  0132  00A9               	movwf	___lmul@multiplicand+2
  6757  0133  0021               	movlb	1	; select bank1
  6758  0134  0856               	movf	(BME280_readPressure@var1+1)^(0+128),w
  6759  0135  0020               	movlb	0	; select bank0
  6760  0136  00A8               	movwf	___lmul@multiplicand+1
  6761  0137  0021               	movlb	1	; select bank1
  6762  0138  0855               	movf	BME280_readPressure@var1^(0+128),w
  6763  0139  0020               	movlb	0	; select bank0
  6764  013A  00A7               	movwf	___lmul@multiplicand
  6765  013B  3197  27A0  3180   	fcall	___lmul
  6766  013E  0020               	movlb	0	; select bank0
  6767  013F  0823               	movf	?___lmul,w
  6768  0140  00C8               	movwf	??_BME280_readPressure+4
  6769  0141  0824               	movf	?___lmul+1,w
  6770  0142  00C9               	movwf	??_BME280_readPressure+5
  6771  0143  0825               	movf	?___lmul+2,w
  6772  0144  00CA               	movwf	??_BME280_readPressure+6
  6773  0145  0826               	movf	?___lmul+3,w
  6774  0146  00CB               	movwf	??_BME280_readPressure+7
  6775  0147  3001               	movlw	1
  6776  0148                     u3105:	
  6777  0148  35C8               	lslf	??_BME280_readPressure+4,f
  6778  0149  0DC9               	rlf	??_BME280_readPressure+5,f
  6779  014A  0DCA               	rlf	??_BME280_readPressure+6,f
  6780  014B  0DCB               	rlf	??_BME280_readPressure+7,f
  6781  014C  0B89               	decfsz	9,f
  6782  014D  2948               	goto	u3105
  6783  014E  0848               	movf	??_BME280_readPressure+4,w
  6784  014F  07C4               	addwf	??_BME280_readPressure,f
  6785  0150  0849               	movf	??_BME280_readPressure+5,w
  6786  0151  3DC5               	addwfc	??_BME280_readPressure+1,f
  6787  0152  084A               	movf	??_BME280_readPressure+6,w
  6788  0153  3DC6               	addwfc	??_BME280_readPressure+2,f
  6789  0154  084B               	movf	??_BME280_readPressure+7,w
  6790  0155  3DC7               	addwfc	??_BME280_readPressure+3,f
  6791  0156  0847               	movf	??_BME280_readPressure+3,w
  6792  0157  0021               	movlb	1	; select bank1
  6793  0158  00D0               	movwf	(BME280_readPressure@var2+3)^(0+128)
  6794  0159  0020               	movlb	0	; select bank0
  6795  015A  0846               	movf	??_BME280_readPressure+2,w
  6796  015B  0021               	movlb	1	; select bank1
  6797  015C  00CF               	movwf	(BME280_readPressure@var2+2)^(0+128)
  6798  015D  0020               	movlb	0	; select bank0
  6799  015E  0845               	movf	??_BME280_readPressure+1,w
  6800  015F  0021               	movlb	1	; select bank1
  6801  0160  00CE               	movwf	(BME280_readPressure@var2+1)^(0+128)
  6802  0161  0020               	movlb	0	; select bank0
  6803  0162  0844               	movf	??_BME280_readPressure,w
  6804  0163  0021               	movlb	1	; select bank1
  6805  0164  00CD               	movwf	BME280_readPressure@var2^(0+128)
  6806                           
  6807                           ;bme280.c: 260: var2 = (var2>>2)+(((int32_t)cal_data.dig_P4)<<16);
  6808  0165  0830               	movf	(_cal_data^(0+128)+12),w
  6809  0166  0020               	movlb	0	; select bank0
  6810  0167  00C4               	movwf	??_BME280_readPressure
  6811  0168  0021               	movlb	1	; select bank1
  6812  0169  0831               	movf	((_cal_data+1)^(0+128)+12),w
  6813  016A  0020               	movlb	0	; select bank0
  6814  016B  00C5               	movwf	??_BME280_readPressure+1
  6815  016C  01C6               	clrf	??_BME280_readPressure+2
  6816  016D  01C7               	clrf	??_BME280_readPressure+3
  6817  016E  3010               	movlw	16
  6818  016F                     u3115:	
  6819  016F  35C4               	lslf	??_BME280_readPressure,f
  6820  0170  0DC5               	rlf	??_BME280_readPressure+1,f
  6821  0171  0DC6               	rlf	??_BME280_readPressure+2,f
  6822  0172  0DC7               	rlf	??_BME280_readPressure+3,f
  6823  0173  0B89               	decfsz	9,f
  6824  0174  296F               	goto	u3115
  6825  0175  0021               	movlb	1	; select bank1
  6826  0176  084D               	movf	BME280_readPressure@var2^(0+128),w
  6827  0177  0020               	movlb	0	; select bank0
  6828  0178  00C8               	movwf	??_BME280_readPressure+4
  6829  0179  0021               	movlb	1	; select bank1
  6830  017A  084E               	movf	(BME280_readPressure@var2+1)^(0+128),w
  6831  017B  0020               	movlb	0	; select bank0
  6832  017C  00C9               	movwf	??_BME280_readPressure+5
  6833  017D  0021               	movlb	1	; select bank1
  6834  017E  084F               	movf	(BME280_readPressure@var2+2)^(0+128),w
  6835  017F  0020               	movlb	0	; select bank0
  6836  0180  00CA               	movwf	??_BME280_readPressure+6
  6837  0181  0021               	movlb	1	; select bank1
  6838  0182  0850               	movf	(BME280_readPressure@var2+3)^(0+128),w
  6839  0183  0020               	movlb	0	; select bank0
  6840  0184  00CB               	movwf	??_BME280_readPressure+7
  6841  0185  3002               	movlw	2
  6842  0186  00CC               	movwf	??_BME280_readPressure+8
  6843  0187                     u3125:	
  6844  0187  37CB               	asrf	??_BME280_readPressure+7,f
  6845  0188  0CCA               	rrf	??_BME280_readPressure+6,f
  6846  0189  0CC9               	rrf	??_BME280_readPressure+5,f
  6847  018A  0CC8               	rrf	??_BME280_readPressure+4,f
  6848  018B  0BCC               	decfsz	??_BME280_readPressure+8,f
  6849  018C  2987               	goto	u3125
  6850  018D  0848               	movf	??_BME280_readPressure+4,w
  6851  018E  07C4               	addwf	??_BME280_readPressure,f
  6852  018F  0849               	movf	??_BME280_readPressure+5,w
  6853  0190  3DC5               	addwfc	??_BME280_readPressure+1,f
  6854  0191  084A               	movf	??_BME280_readPressure+6,w
  6855  0192  3DC6               	addwfc	??_BME280_readPressure+2,f
  6856  0193  084B               	movf	??_BME280_readPressure+7,w
  6857  0194  3DC7               	addwfc	??_BME280_readPressure+3,f
  6858  0195  0847               	movf	??_BME280_readPressure+3,w
  6859  0196  0021               	movlb	1	; select bank1
  6860  0197  00D0               	movwf	(BME280_readPressure@var2+3)^(0+128)
  6861  0198  0020               	movlb	0	; select bank0
  6862  0199  0846               	movf	??_BME280_readPressure+2,w
  6863  019A  0021               	movlb	1	; select bank1
  6864  019B  00CF               	movwf	(BME280_readPressure@var2+2)^(0+128)
  6865  019C  0020               	movlb	0	; select bank0
  6866  019D  0845               	movf	??_BME280_readPressure+1,w
  6867  019E  0021               	movlb	1	; select bank1
  6868  019F  00CE               	movwf	(BME280_readPressure@var2+1)^(0+128)
  6869  01A0  0020               	movlb	0	; select bank0
  6870  01A1  0844               	movf	??_BME280_readPressure,w
  6871  01A2  0021               	movlb	1	; select bank1
  6872  01A3  00CD               	movwf	BME280_readPressure@var2^(0+128)
  6873                           
  6874                           ;bme280.c: 261: var1 = (((cal_data.dig_P3 * (((var1>>2) * (var1>>2)) >> 13 )) >> 3) + ((
      +                          ((int32_t)cal_data.dig_P2) * var1)>>1))>>18;
  6875  01A4  0855               	movf	BME280_readPressure@var1^(0+128),w
  6876  01A5  0020               	movlb	0	; select bank0
  6877  01A6  00C4               	movwf	??_BME280_readPressure
  6878  01A7  0021               	movlb	1	; select bank1
  6879  01A8  0856               	movf	(BME280_readPressure@var1+1)^(0+128),w
  6880  01A9  0020               	movlb	0	; select bank0
  6881  01AA  00C5               	movwf	??_BME280_readPressure+1
  6882  01AB  0021               	movlb	1	; select bank1
  6883  01AC  0857               	movf	(BME280_readPressure@var1+2)^(0+128),w
  6884  01AD  0020               	movlb	0	; select bank0
  6885  01AE  00C6               	movwf	??_BME280_readPressure+2
  6886  01AF  0021               	movlb	1	; select bank1
  6887  01B0  0858               	movf	(BME280_readPressure@var1+3)^(0+128),w
  6888  01B1  0020               	movlb	0	; select bank0
  6889  01B2  00C7               	movwf	??_BME280_readPressure+3
  6890  01B3  3002               	movlw	2
  6891  01B4  00C8               	movwf	??_BME280_readPressure+4
  6892  01B5                     u3135:	
  6893  01B5  37C7               	asrf	??_BME280_readPressure+3,f
  6894  01B6  0CC6               	rrf	??_BME280_readPressure+2,f
  6895  01B7  0CC5               	rrf	??_BME280_readPressure+1,f
  6896  01B8  0CC4               	rrf	??_BME280_readPressure,f
  6897  01B9  0BC8               	decfsz	??_BME280_readPressure+4,f
  6898  01BA  29B5               	goto	u3135
  6899  01BB  0847               	movf	??_BME280_readPressure+3,w
  6900  01BC  00AA               	movwf	___lmul@multiplicand+3
  6901  01BD  0846               	movf	??_BME280_readPressure+2,w
  6902  01BE  00A9               	movwf	___lmul@multiplicand+2
  6903  01BF  0845               	movf	??_BME280_readPressure+1,w
  6904  01C0  00A8               	movwf	___lmul@multiplicand+1
  6905  01C1  0844               	movf	??_BME280_readPressure,w
  6906  01C2  00A7               	movwf	___lmul@multiplicand
  6907  01C3  0021               	movlb	1	; select bank1
  6908  01C4  0855               	movf	BME280_readPressure@var1^(0+128),w
  6909  01C5  0020               	movlb	0	; select bank0
  6910  01C6  00C9               	movwf	??_BME280_readPressure+5
  6911  01C7  0021               	movlb	1	; select bank1
  6912  01C8  0856               	movf	(BME280_readPressure@var1+1)^(0+128),w
  6913  01C9  0020               	movlb	0	; select bank0
  6914  01CA  00CA               	movwf	??_BME280_readPressure+6
  6915  01CB  0021               	movlb	1	; select bank1
  6916  01CC  0857               	movf	(BME280_readPressure@var1+2)^(0+128),w
  6917  01CD  0020               	movlb	0	; select bank0
  6918  01CE  00CB               	movwf	??_BME280_readPressure+7
  6919  01CF  0021               	movlb	1	; select bank1
  6920  01D0  0858               	movf	(BME280_readPressure@var1+3)^(0+128),w
  6921  01D1  0020               	movlb	0	; select bank0
  6922  01D2  00CC               	movwf	??_BME280_readPressure+8
  6923  01D3  3002               	movlw	2
  6924  01D4  00CD               	movwf	??_BME280_readPressure+9
  6925  01D5                     u3145:	
  6926  01D5  37CC               	asrf	??_BME280_readPressure+8,f
  6927  01D6  0CCB               	rrf	??_BME280_readPressure+7,f
  6928  01D7  0CCA               	rrf	??_BME280_readPressure+6,f
  6929  01D8  0CC9               	rrf	??_BME280_readPressure+5,f
  6930  01D9  0BCD               	decfsz	??_BME280_readPressure+9,f
  6931  01DA  29D5               	goto	u3145
  6932  01DB  084C               	movf	??_BME280_readPressure+8,w
  6933  01DC  00A6               	movwf	___lmul@multiplier+3
  6934  01DD  084B               	movf	??_BME280_readPressure+7,w
  6935  01DE  00A5               	movwf	___lmul@multiplier+2
  6936  01DF  084A               	movf	??_BME280_readPressure+6,w
  6937  01E0  00A4               	movwf	___lmul@multiplier+1
  6938  01E1  0849               	movf	??_BME280_readPressure+5,w
  6939  01E2  00A3               	movwf	___lmul@multiplier
  6940  01E3  3197  27A0  3180   	fcall	___lmul
  6941  01E6  0020               	movlb	0	; select bank0
  6942  01E7  0823               	movf	?___lmul,w
  6943  01E8  00CE               	movwf	??_BME280_readPressure+10
  6944  01E9  0824               	movf	?___lmul+1,w
  6945  01EA  00CF               	movwf	??_BME280_readPressure+11
  6946  01EB  0825               	movf	?___lmul+2,w
  6947  01EC  00D0               	movwf	??_BME280_readPressure+12
  6948  01ED  0826               	movf	?___lmul+3,w
  6949  01EE  00D1               	movwf	??_BME280_readPressure+13
  6950  01EF  300D               	movlw	13
  6951  01F0  00D2               	movwf	??_BME280_readPressure+14
  6952  01F1                     u3155:	
  6953  01F1  37D1               	asrf	??_BME280_readPressure+13,f
  6954  01F2  0CD0               	rrf	??_BME280_readPressure+12,f
  6955  01F3  0CCF               	rrf	??_BME280_readPressure+11,f
  6956  01F4  0CCE               	rrf	??_BME280_readPressure+10,f
  6957  01F5  0BD2               	decfsz	??_BME280_readPressure+14,f
  6958  01F6  29F1               	goto	u3155
  6959  01F7  0851               	movf	??_BME280_readPressure+13,w
  6960  01F8  0021               	movlb	1	; select bank1
  6961  01F9  00CC               	movwf	(_BME280_readPressure$1426+3)^(0+128)
  6962  01FA  0020               	movlb	0	; select bank0
  6963  01FB  0850               	movf	??_BME280_readPressure+12,w
  6964  01FC  0021               	movlb	1	; select bank1
  6965  01FD  00CB               	movwf	(_BME280_readPressure$1426+2)^(0+128)
  6966  01FE  0020               	movlb	0	; select bank0
  6967  01FF  084F               	movf	??_BME280_readPressure+11,w
  6968  0200  0021               	movlb	1	; select bank1
  6969  0201  00CA               	movwf	(_BME280_readPressure$1426+1)^(0+128)
  6970  0202  0020               	movlb	0	; select bank0
  6971  0203  084E               	movf	??_BME280_readPressure+10,w
  6972  0204  0021               	movlb	1	; select bank1
  6973  0205  00C9               	movwf	_BME280_readPressure$1426^(0+128)
  6974                           
  6975                           ;bme280.c: 261: var1 = (((cal_data.dig_P3 * (((var1>>2) * (var1>>2)) >> 13 )) >> 3) + ((
      +                          ((int32_t)cal_data.dig_P2) * var1)>>1))>>18;
  6976  0206  082C               	movf	(_cal_data^(0+128)+8),w
  6977  0207  0020               	movlb	0	; select bank0
  6978  0208  00A3               	movwf	___lmul@multiplier
  6979  0209  0021               	movlb	1	; select bank1
  6980  020A  082D               	movf	((_cal_data+1)^(0+128)+8),w
  6981  020B  0020               	movlb	0	; select bank0
  6982  020C  00A4               	movwf	___lmul@multiplier+1
  6983  020D  0D89               	rlf	9,f
  6984  020E  3B89               	subwfb	9,f
  6985  020F  0989               	comf	9,f
  6986  0210  00A5               	movwf	___lmul@multiplier+2
  6987  0211  00A6               	movwf	___lmul@multiplier+3
  6988  0212  0021               	movlb	1	; select bank1
  6989  0213  0858               	movf	(BME280_readPressure@var1+3)^(0+128),w
  6990  0214  0020               	movlb	0	; select bank0
  6991  0215  00AA               	movwf	___lmul@multiplicand+3
  6992  0216  0021               	movlb	1	; select bank1
  6993  0217  0857               	movf	(BME280_readPressure@var1+2)^(0+128),w
  6994  0218  0020               	movlb	0	; select bank0
  6995  0219  00A9               	movwf	___lmul@multiplicand+2
  6996  021A  0021               	movlb	1	; select bank1
  6997  021B  0856               	movf	(BME280_readPressure@var1+1)^(0+128),w
  6998  021C  0020               	movlb	0	; select bank0
  6999  021D  00A8               	movwf	___lmul@multiplicand+1
  7000  021E  0021               	movlb	1	; select bank1
  7001  021F  0855               	movf	BME280_readPressure@var1^(0+128),w
  7002  0220  0020               	movlb	0	; select bank0
  7003  0221  00A7               	movwf	___lmul@multiplicand
  7004  0222  3197  27A0  3180   	fcall	___lmul
  7005  0225  0020               	movlb	0	; select bank0
  7006  0226  0823               	movf	?___lmul,w
  7007  0227  00C4               	movwf	??_BME280_readPressure
  7008  0228  0824               	movf	?___lmul+1,w
  7009  0229  00C5               	movwf	??_BME280_readPressure+1
  7010  022A  0825               	movf	?___lmul+2,w
  7011  022B  00C6               	movwf	??_BME280_readPressure+2
  7012  022C  0826               	movf	?___lmul+3,w
  7013  022D  00C7               	movwf	??_BME280_readPressure+3
  7014  022E  3001               	movlw	1
  7015  022F  00C8               	movwf	??_BME280_readPressure+4
  7016  0230                     u3165:	
  7017  0230  37C7               	asrf	??_BME280_readPressure+3,f
  7018  0231  0CC6               	rrf	??_BME280_readPressure+2,f
  7019  0232  0CC5               	rrf	??_BME280_readPressure+1,f
  7020  0233  0CC4               	rrf	??_BME280_readPressure,f
  7021  0234  0BC8               	decfsz	??_BME280_readPressure+4,f
  7022  0235  2A30               	goto	u3165
  7023  0236  0021               	movlb	1	; select bank1
  7024  0237  082E               	movf	(_cal_data^(0+128)+10),w
  7025  0238  0020               	movlb	0	; select bank0
  7026  0239  00A3               	movwf	___lmul@multiplier
  7027  023A  0021               	movlb	1	; select bank1
  7028  023B  082F               	movf	((_cal_data+1)^(0+128)+10),w
  7029  023C  0020               	movlb	0	; select bank0
  7030  023D  00A4               	movwf	___lmul@multiplier+1
  7031  023E  0D89               	rlf	9,f
  7032  023F  3B89               	subwfb	9,f
  7033  0240  0989               	comf	9,f
  7034  0241  00A5               	movwf	___lmul@multiplier+2
  7035  0242  00A6               	movwf	___lmul@multiplier+3
  7036  0243  0021               	movlb	1	; select bank1
  7037  0244  084C               	movf	(_BME280_readPressure$1426+3)^(0+128),w
  7038  0245  0020               	movlb	0	; select bank0
  7039  0246  00AA               	movwf	___lmul@multiplicand+3
  7040  0247  0021               	movlb	1	; select bank1
  7041  0248  084B               	movf	(_BME280_readPressure$1426+2)^(0+128),w
  7042  0249  0020               	movlb	0	; select bank0
  7043  024A  00A9               	movwf	___lmul@multiplicand+2
  7044  024B  0021               	movlb	1	; select bank1
  7045  024C  084A               	movf	(_BME280_readPressure$1426+1)^(0+128),w
  7046  024D  0020               	movlb	0	; select bank0
  7047  024E  00A8               	movwf	___lmul@multiplicand+1
  7048  024F  0021               	movlb	1	; select bank1
  7049  0250  0849               	movf	_BME280_readPressure$1426^(0+128),w
  7050  0251  0020               	movlb	0	; select bank0
  7051  0252  00A7               	movwf	___lmul@multiplicand
  7052  0253  3197  27A0  3180   	fcall	___lmul
  7053  0256  0020               	movlb	0	; select bank0
  7054  0257  0823               	movf	?___lmul,w
  7055  0258  00C9               	movwf	??_BME280_readPressure+5
  7056  0259  0824               	movf	?___lmul+1,w
  7057  025A  00CA               	movwf	??_BME280_readPressure+6
  7058  025B  0825               	movf	?___lmul+2,w
  7059  025C  00CB               	movwf	??_BME280_readPressure+7
  7060  025D  0826               	movf	?___lmul+3,w
  7061  025E  00CC               	movwf	??_BME280_readPressure+8
  7062  025F  3003               	movlw	3
  7063  0260  00CD               	movwf	??_BME280_readPressure+9
  7064  0261                     u3175:	
  7065  0261  37CC               	asrf	??_BME280_readPressure+8,f
  7066  0262  0CCB               	rrf	??_BME280_readPressure+7,f
  7067  0263  0CCA               	rrf	??_BME280_readPressure+6,f
  7068  0264  0CC9               	rrf	??_BME280_readPressure+5,f
  7069  0265  0BCD               	decfsz	??_BME280_readPressure+9,f
  7070  0266  2A61               	goto	u3175
  7071  0267  0849               	movf	??_BME280_readPressure+5,w
  7072  0268  07C4               	addwf	??_BME280_readPressure,f
  7073  0269  084A               	movf	??_BME280_readPressure+6,w
  7074  026A  3DC5               	addwfc	??_BME280_readPressure+1,f
  7075  026B  084B               	movf	??_BME280_readPressure+7,w
  7076  026C  3DC6               	addwfc	??_BME280_readPressure+2,f
  7077  026D  084C               	movf	??_BME280_readPressure+8,w
  7078  026E  3DC7               	addwfc	??_BME280_readPressure+3,f
  7079  026F  3012               	movlw	18
  7080  0270  00CE               	movwf	??_BME280_readPressure+10
  7081  0271                     u3185:	
  7082  0271  37C7               	asrf	??_BME280_readPressure+3,f
  7083  0272  0CC6               	rrf	??_BME280_readPressure+2,f
  7084  0273  0CC5               	rrf	??_BME280_readPressure+1,f
  7085  0274  0CC4               	rrf	??_BME280_readPressure,f
  7086  0275  0BCE               	decfsz	??_BME280_readPressure+10,f
  7087  0276  2A71               	goto	u3185
  7088  0277  0847               	movf	??_BME280_readPressure+3,w
  7089  0278  0021               	movlb	1	; select bank1
  7090  0279  00D8               	movwf	(BME280_readPressure@var1+3)^(0+128)
  7091  027A  0020               	movlb	0	; select bank0
  7092  027B  0846               	movf	??_BME280_readPressure+2,w
  7093  027C  0021               	movlb	1	; select bank1
  7094  027D  00D7               	movwf	(BME280_readPressure@var1+2)^(0+128)
  7095  027E  0020               	movlb	0	; select bank0
  7096  027F  0845               	movf	??_BME280_readPressure+1,w
  7097  0280  0021               	movlb	1	; select bank1
  7098  0281  00D6               	movwf	(BME280_readPressure@var1+1)^(0+128)
  7099  0282  0020               	movlb	0	; select bank0
  7100  0283  0844               	movf	??_BME280_readPressure,w
  7101  0284  0021               	movlb	1	; select bank1
  7102  0285  00D5               	movwf	BME280_readPressure@var1^(0+128)
  7103                           
  7104                           ;bme280.c: 262: var1 =((((32768+var1))*((int32_t)cal_data.dig_P1))>>15);
  7105  0286  3000               	movlw	0
  7106  0287  0755               	addwf	BME280_readPressure@var1^(0+128),w
  7107  0288  0020               	movlb	0	; select bank0
  7108  0289  00A3               	movwf	___lmul@multiplier
  7109  028A  3080               	movlw	128
  7110  028B  0021               	movlb	1	; select bank1
  7111  028C  3D56               	addwfc	(BME280_readPressure@var1+1)^(0+128),w
  7112  028D  0020               	movlb	0	; select bank0
  7113  028E  00A4               	movwf	___lmul@multiplier+1
  7114  028F  3000               	movlw	0
  7115  0290  0021               	movlb	1	; select bank1
  7116  0291  3D57               	addwfc	(BME280_readPressure@var1+2)^(0+128),w
  7117  0292  0020               	movlb	0	; select bank0
  7118  0293  00A5               	movwf	___lmul@multiplier+2
  7119  0294  3000               	movlw	0
  7120  0295  0021               	movlb	1	; select bank1
  7121  0296  3D58               	addwfc	(BME280_readPressure@var1+3)^(0+128),w
  7122  0297  0020               	movlb	0	; select bank0
  7123  0298  00A6               	movwf	___lmul@multiplier+3
  7124  0299  0021               	movlb	1	; select bank1
  7125  029A  082A               	movf	(_cal_data^(0+128)+6),w
  7126  029B  0020               	movlb	0	; select bank0
  7127  029C  00A7               	movwf	___lmul@multiplicand
  7128  029D  0021               	movlb	1	; select bank1
  7129  029E  082B               	movf	((_cal_data+1)^(0+128)+6),w
  7130  029F  0020               	movlb	0	; select bank0
  7131  02A0  00A8               	movwf	___lmul@multiplicand+1
  7132  02A1  01A9               	clrf	___lmul@multiplicand+2
  7133  02A2  01AA               	clrf	___lmul@multiplicand+3
  7134  02A3  3197  27A0  3180   	fcall	___lmul
  7135  02A6  0020               	movlb	0	; select bank0
  7136  02A7  0823               	movf	?___lmul,w
  7137  02A8  00C4               	movwf	??_BME280_readPressure
  7138  02A9  0824               	movf	?___lmul+1,w
  7139  02AA  00C5               	movwf	??_BME280_readPressure+1
  7140  02AB  0825               	movf	?___lmul+2,w
  7141  02AC  00C6               	movwf	??_BME280_readPressure+2
  7142  02AD  0826               	movf	?___lmul+3,w
  7143  02AE  00C7               	movwf	??_BME280_readPressure+3
  7144  02AF  300F               	movlw	15
  7145  02B0  00C8               	movwf	??_BME280_readPressure+4
  7146  02B1                     u3195:	
  7147  02B1  37C7               	asrf	??_BME280_readPressure+3,f
  7148  02B2  0CC6               	rrf	??_BME280_readPressure+2,f
  7149  02B3  0CC5               	rrf	??_BME280_readPressure+1,f
  7150  02B4  0CC4               	rrf	??_BME280_readPressure,f
  7151  02B5  0BC8               	decfsz	??_BME280_readPressure+4,f
  7152  02B6  2AB1               	goto	u3195
  7153  02B7  0847               	movf	??_BME280_readPressure+3,w
  7154  02B8  0021               	movlb	1	; select bank1
  7155  02B9  00D8               	movwf	(BME280_readPressure@var1+3)^(0+128)
  7156  02BA  0020               	movlb	0	; select bank0
  7157  02BB  0846               	movf	??_BME280_readPressure+2,w
  7158  02BC  0021               	movlb	1	; select bank1
  7159  02BD  00D7               	movwf	(BME280_readPressure@var1+2)^(0+128)
  7160  02BE  0020               	movlb	0	; select bank0
  7161  02BF  0845               	movf	??_BME280_readPressure+1,w
  7162  02C0  0021               	movlb	1	; select bank1
  7163  02C1  00D6               	movwf	(BME280_readPressure@var1+1)^(0+128)
  7164  02C2  0020               	movlb	0	; select bank0
  7165  02C3  0844               	movf	??_BME280_readPressure,w
  7166  02C4  0021               	movlb	1	; select bank1
  7167  02C5  00D5               	movwf	BME280_readPressure@var1^(0+128)
  7168                           
  7169                           ;bme280.c: 263: if (var1 == 0) {
  7170  02C6  0858               	movf	(BME280_readPressure@var1+3)^(0+128),w
  7171  02C7  0457               	iorwf	(BME280_readPressure@var1+2)^(0+128),w
  7172  02C8  0456               	iorwf	(BME280_readPressure@var1+1)^(0+128),w
  7173  02C9  0455               	iorwf	BME280_readPressure@var1^(0+128),w
  7174  02CA  1D03               	skipz
  7175  02CB  2AD4               	goto	l2529
  7176                           
  7177                           ;bme280.c: 264: return 0;
  7178  02CC  3000               	movlw	0
  7179  02CD  0020               	movlb	0	; select bank0
  7180  02CE  00C1               	movwf	?_BME280_readPressure
  7181  02CF  3000               	movlw	0
  7182  02D0  00C2               	movwf	?_BME280_readPressure+1
  7183  02D1  3000               	movlw	0
  7184  02D2  00C3               	movwf	?_BME280_readPressure+2
  7185  02D3  0008               	return
  7186  02D4                     l2529:	
  7187                           
  7188                           ;bme280.c: 265: }
  7189                           ;bme280.c: 266: p = (((uint32_t)(((int32_t)1048576)-adc_P)-(var2>>12)))*3125;
  7190  02D4  0021               	movlb	1	; select bank1
  7191  02D5  0845               	movf	BME280_readPressure@adc_P^(0+128),w
  7192  02D6  0020               	movlb	0	; select bank0
  7193  02D7  00C4               	movwf	??_BME280_readPressure
  7194  02D8  0021               	movlb	1	; select bank1
  7195  02D9  0846               	movf	(BME280_readPressure@adc_P+1)^(0+128),w
  7196  02DA  0020               	movlb	0	; select bank0
  7197  02DB  00C5               	movwf	??_BME280_readPressure+1
  7198  02DC  0021               	movlb	1	; select bank1
  7199  02DD  0847               	movf	(BME280_readPressure@adc_P+2)^(0+128),w
  7200  02DE  0020               	movlb	0	; select bank0
  7201  02DF  00C6               	movwf	??_BME280_readPressure+2
  7202  02E0  0021               	movlb	1	; select bank1
  7203  02E1  0848               	movf	(BME280_readPressure@adc_P+3)^(0+128),w
  7204  02E2  0020               	movlb	0	; select bank0
  7205  02E3  00C7               	movwf	??_BME280_readPressure+3
  7206  02E4  0021               	movlb	1	; select bank1
  7207  02E5  084D               	movf	BME280_readPressure@var2^(0+128),w
  7208  02E6  0020               	movlb	0	; select bank0
  7209  02E7  00C8               	movwf	??_BME280_readPressure+4
  7210  02E8  0021               	movlb	1	; select bank1
  7211  02E9  084E               	movf	(BME280_readPressure@var2+1)^(0+128),w
  7212  02EA  0020               	movlb	0	; select bank0
  7213  02EB  00C9               	movwf	??_BME280_readPressure+5
  7214  02EC  0021               	movlb	1	; select bank1
  7215  02ED  084F               	movf	(BME280_readPressure@var2+2)^(0+128),w
  7216  02EE  0020               	movlb	0	; select bank0
  7217  02EF  00CA               	movwf	??_BME280_readPressure+6
  7218  02F0  0021               	movlb	1	; select bank1
  7219  02F1  0850               	movf	(BME280_readPressure@var2+3)^(0+128),w
  7220  02F2  0020               	movlb	0	; select bank0
  7221  02F3  00CB               	movwf	??_BME280_readPressure+7
  7222  02F4  300C               	movlw	12
  7223  02F5  00CC               	movwf	??_BME280_readPressure+8
  7224  02F6                     u3215:	
  7225  02F6  37CB               	asrf	??_BME280_readPressure+7,f
  7226  02F7  0CCA               	rrf	??_BME280_readPressure+6,f
  7227  02F8  0CC9               	rrf	??_BME280_readPressure+5,f
  7228  02F9  0CC8               	rrf	??_BME280_readPressure+4,f
  7229  02FA  0BCC               	decfsz	??_BME280_readPressure+8,f
  7230  02FB  2AF6               	goto	u3215
  7231  02FC  0848               	movf	??_BME280_readPressure+4,w
  7232  02FD  07C4               	addwf	??_BME280_readPressure,f
  7233  02FE  0849               	movf	??_BME280_readPressure+5,w
  7234  02FF  3DC5               	addwfc	??_BME280_readPressure+1,f
  7235  0300  084A               	movf	??_BME280_readPressure+6,w
  7236  0301  3DC6               	addwfc	??_BME280_readPressure+2,f
  7237  0302  084B               	movf	??_BME280_readPressure+7,w
  7238  0303  3DC7               	addwfc	??_BME280_readPressure+3,f
  7239  0304  09C4               	comf	??_BME280_readPressure,f
  7240  0305  09C5               	comf	??_BME280_readPressure+1,f
  7241  0306  09C6               	comf	??_BME280_readPressure+2,f
  7242  0307  09C7               	comf	??_BME280_readPressure+3,f
  7243  0308  0AC4               	incf	??_BME280_readPressure,f
  7244  0309  1903               	skipnz
  7245  030A  0AC5               	incf	??_BME280_readPressure+1,f
  7246  030B  1903               	skipnz
  7247  030C  0AC6               	incf	??_BME280_readPressure+2,f
  7248  030D  1903               	skipnz
  7249  030E  0AC7               	incf	??_BME280_readPressure+3,f
  7250  030F  3000               	movlw	0
  7251  0310  0744               	addwf	??_BME280_readPressure,w
  7252  0311  00A3               	movwf	___lmul@multiplier
  7253  0312  3000               	movlw	0
  7254  0313  3D45               	addwfc	??_BME280_readPressure+1,w
  7255  0314  00A4               	movwf	___lmul@multiplier+1
  7256  0315  3010               	movlw	16
  7257  0316  3D46               	addwfc	??_BME280_readPressure+2,w
  7258  0317  00A5               	movwf	___lmul@multiplier+2
  7259  0318  3000               	movlw	0
  7260  0319  3D47               	addwfc	??_BME280_readPressure+3,w
  7261  031A  00A6               	movwf	___lmul@multiplier+3
  7262  031B  3000               	movlw	0
  7263  031C  00AA               	movwf	___lmul@multiplicand+3
  7264  031D  3000               	movlw	0
  7265  031E  00A9               	movwf	___lmul@multiplicand+2
  7266  031F  300C               	movlw	12
  7267  0320  00A8               	movwf	___lmul@multiplicand+1
  7268  0321  3035               	movlw	53
  7269  0322  00A7               	movwf	___lmul@multiplicand
  7270  0323  3197  27A0  3180   	fcall	___lmul
  7271  0326  0020               	movlb	0	; select bank0
  7272  0327  0826               	movf	?___lmul+3,w
  7273  0328  0021               	movlb	1	; select bank1
  7274  0329  00D4               	movwf	(BME280_readPressure@p+3)^(0+128)
  7275  032A  0020               	movlb	0	; select bank0
  7276  032B  0825               	movf	?___lmul+2,w
  7277  032C  0021               	movlb	1	; select bank1
  7278  032D  00D3               	movwf	(BME280_readPressure@p+2)^(0+128)
  7279  032E  0020               	movlb	0	; select bank0
  7280  032F  0824               	movf	?___lmul+1,w
  7281  0330  0021               	movlb	1	; select bank1
  7282  0331  00D2               	movwf	(BME280_readPressure@p+1)^(0+128)
  7283  0332  0020               	movlb	0	; select bank0
  7284  0333  0823               	movf	?___lmul,w
  7285  0334  0021               	movlb	1	; select bank1
  7286  0335  00D1               	movwf	BME280_readPressure@p^(0+128)
  7287                           
  7288                           ;bme280.c: 267: if (p < 0x80000000) {
  7289  0336  3080               	movlw	128
  7290  0337  0254               	subwf	(BME280_readPressure@p+3)^(0+128),w
  7291  0338  1803               	btfsc	3,0
  7292  0339  2B6D               	goto	l2535
  7293                           
  7294                           ;bme280.c: 268: p = (p << 1) / ((uint32_t)var1);
  7295  033A  0858               	movf	(BME280_readPressure@var1+3)^(0+128),w
  7296  033B  0020               	movlb	0	; select bank0
  7297  033C  00A6               	movwf	___lldiv@divisor+3
  7298  033D  0021               	movlb	1	; select bank1
  7299  033E  0857               	movf	(BME280_readPressure@var1+2)^(0+128),w
  7300  033F  0020               	movlb	0	; select bank0
  7301  0340  00A5               	movwf	___lldiv@divisor+2
  7302  0341  0021               	movlb	1	; select bank1
  7303  0342  0856               	movf	(BME280_readPressure@var1+1)^(0+128),w
  7304  0343  0020               	movlb	0	; select bank0
  7305  0344  00A4               	movwf	___lldiv@divisor+1
  7306  0345  0021               	movlb	1	; select bank1
  7307  0346  0855               	movf	BME280_readPressure@var1^(0+128),w
  7308  0347  0020               	movlb	0	; select bank0
  7309  0348  00A3               	movwf	___lldiv@divisor
  7310  0349  0021               	movlb	1	; select bank1
  7311  034A  3551               	lslf	BME280_readPressure@p^(0+128),w
  7312  034B  0020               	movlb	0	; select bank0
  7313  034C  00A7               	movwf	___lldiv@dividend
  7314  034D  0021               	movlb	1	; select bank1
  7315  034E  0D52               	rlf	(BME280_readPressure@p+1)^(0+128),w
  7316  034F  0020               	movlb	0	; select bank0
  7317  0350  00A8               	movwf	___lldiv@dividend+1
  7318  0351  0021               	movlb	1	; select bank1
  7319  0352  0D53               	rlf	(BME280_readPressure@p+2)^(0+128),w
  7320  0353  0020               	movlb	0	; select bank0
  7321  0354  00A9               	movwf	___lldiv@dividend+2
  7322  0355  0021               	movlb	1	; select bank1
  7323  0356  0D54               	rlf	(BME280_readPressure@p+3)^(0+128),w
  7324  0357  0020               	movlb	0	; select bank0
  7325  0358  00AA               	movwf	___lldiv@dividend+3
  7326  0359  3189  2101  3180   	fcall	___lldiv
  7327  035C  0020               	movlb	0	; select bank0
  7328  035D  0826               	movf	?___lldiv+3,w
  7329  035E  0021               	movlb	1	; select bank1
  7330  035F  00D4               	movwf	(BME280_readPressure@p+3)^(0+128)
  7331  0360  0020               	movlb	0	; select bank0
  7332  0361  0825               	movf	?___lldiv+2,w
  7333  0362  0021               	movlb	1	; select bank1
  7334  0363  00D3               	movwf	(BME280_readPressure@p+2)^(0+128)
  7335  0364  0020               	movlb	0	; select bank0
  7336  0365  0824               	movf	?___lldiv+1,w
  7337  0366  0021               	movlb	1	; select bank1
  7338  0367  00D2               	movwf	(BME280_readPressure@p+1)^(0+128)
  7339  0368  0020               	movlb	0	; select bank0
  7340  0369  0823               	movf	?___lldiv,w
  7341  036A  0021               	movlb	1	; select bank1
  7342  036B  00D1               	movwf	BME280_readPressure@p^(0+128)
  7343                           
  7344                           ;bme280.c: 269: } else {
  7345  036C  2B9F               	goto	l345
  7346  036D                     l2535:	
  7347                           
  7348                           ;bme280.c: 270: p = (p / (uint32_t)var1) * 2;
  7349  036D  0858               	movf	(BME280_readPressure@var1+3)^(0+128),w
  7350  036E  0020               	movlb	0	; select bank0
  7351  036F  00A6               	movwf	___lldiv@divisor+3
  7352  0370  0021               	movlb	1	; select bank1
  7353  0371  0857               	movf	(BME280_readPressure@var1+2)^(0+128),w
  7354  0372  0020               	movlb	0	; select bank0
  7355  0373  00A5               	movwf	___lldiv@divisor+2
  7356  0374  0021               	movlb	1	; select bank1
  7357  0375  0856               	movf	(BME280_readPressure@var1+1)^(0+128),w
  7358  0376  0020               	movlb	0	; select bank0
  7359  0377  00A4               	movwf	___lldiv@divisor+1
  7360  0378  0021               	movlb	1	; select bank1
  7361  0379  0855               	movf	BME280_readPressure@var1^(0+128),w
  7362  037A  0020               	movlb	0	; select bank0
  7363  037B  00A3               	movwf	___lldiv@divisor
  7364  037C  0021               	movlb	1	; select bank1
  7365  037D  0854               	movf	(BME280_readPressure@p+3)^(0+128),w
  7366  037E  0020               	movlb	0	; select bank0
  7367  037F  00AA               	movwf	___lldiv@dividend+3
  7368  0380  0021               	movlb	1	; select bank1
  7369  0381  0853               	movf	(BME280_readPressure@p+2)^(0+128),w
  7370  0382  0020               	movlb	0	; select bank0
  7371  0383  00A9               	movwf	___lldiv@dividend+2
  7372  0384  0021               	movlb	1	; select bank1
  7373  0385  0852               	movf	(BME280_readPressure@p+1)^(0+128),w
  7374  0386  0020               	movlb	0	; select bank0
  7375  0387  00A8               	movwf	___lldiv@dividend+1
  7376  0388  0021               	movlb	1	; select bank1
  7377  0389  0851               	movf	BME280_readPressure@p^(0+128),w
  7378  038A  0020               	movlb	0	; select bank0
  7379  038B  00A7               	movwf	___lldiv@dividend
  7380  038C  3189  2101  3180   	fcall	___lldiv
  7381  038F  0020               	movlb	0	; select bank0
  7382  0390  3523               	lslf	?___lldiv,w
  7383  0391  0021               	movlb	1	; select bank1
  7384  0392  00D1               	movwf	BME280_readPressure@p^(0+128)
  7385  0393  0020               	movlb	0	; select bank0
  7386  0394  0D24               	rlf	?___lldiv+1,w
  7387  0395  0021               	movlb	1	; select bank1
  7388  0396  00D2               	movwf	(BME280_readPressure@p+1)^(0+128)
  7389  0397  0020               	movlb	0	; select bank0
  7390  0398  0D25               	rlf	?___lldiv+2,w
  7391  0399  0021               	movlb	1	; select bank1
  7392  039A  00D3               	movwf	(BME280_readPressure@p+2)^(0+128)
  7393  039B  0020               	movlb	0	; select bank0
  7394  039C  0D26               	rlf	?___lldiv+3,w
  7395  039D  0021               	movlb	1	; select bank1
  7396  039E  00D4               	movwf	(BME280_readPressure@p+3)^(0+128)
  7397  039F                     l345:	
  7398                           
  7399                           ;bme280.c: 271: }
  7400                           ;bme280.c: 272: var1 = (((int32_t)cal_data.dig_P9) * ((int32_t)(((p>>3) * (p>>3))>>13)))
      +                          >>12;
  7401  039F  0851               	movf	BME280_readPressure@p^(0+128),w
  7402  03A0  0020               	movlb	0	; select bank0
  7403  03A1  00C4               	movwf	??_BME280_readPressure
  7404  03A2  0021               	movlb	1	; select bank1
  7405  03A3  0852               	movf	(BME280_readPressure@p+1)^(0+128),w
  7406  03A4  0020               	movlb	0	; select bank0
  7407  03A5  00C5               	movwf	??_BME280_readPressure+1
  7408  03A6  0021               	movlb	1	; select bank1
  7409  03A7  0853               	movf	(BME280_readPressure@p+2)^(0+128),w
  7410  03A8  0020               	movlb	0	; select bank0
  7411  03A9  00C6               	movwf	??_BME280_readPressure+2
  7412  03AA  0021               	movlb	1	; select bank1
  7413  03AB  0854               	movf	(BME280_readPressure@p+3)^(0+128),w
  7414  03AC  0020               	movlb	0	; select bank0
  7415  03AD  00C7               	movwf	??_BME280_readPressure+3
  7416  03AE  3003               	movlw	3
  7417  03AF                     u3235:	
  7418  03AF  36C7               	lsrf	??_BME280_readPressure+3,f
  7419  03B0  0CC6               	rrf	??_BME280_readPressure+2,f
  7420  03B1  0CC5               	rrf	??_BME280_readPressure+1,f
  7421  03B2  0CC4               	rrf	??_BME280_readPressure,f
  7422  03B3  0B89               	decfsz	9,f
  7423  03B4  2BAF               	goto	u3235
  7424  03B5  0847               	movf	??_BME280_readPressure+3,w
  7425  03B6  00AA               	movwf	___lmul@multiplicand+3
  7426  03B7  0846               	movf	??_BME280_readPressure+2,w
  7427  03B8  00A9               	movwf	___lmul@multiplicand+2
  7428  03B9  0845               	movf	??_BME280_readPressure+1,w
  7429  03BA  00A8               	movwf	___lmul@multiplicand+1
  7430  03BB  0844               	movf	??_BME280_readPressure,w
  7431  03BC  00A7               	movwf	___lmul@multiplicand
  7432  03BD  0021               	movlb	1	; select bank1
  7433  03BE  0851               	movf	BME280_readPressure@p^(0+128),w
  7434  03BF  0020               	movlb	0	; select bank0
  7435  03C0  00C8               	movwf	??_BME280_readPressure+4
  7436  03C1  0021               	movlb	1	; select bank1
  7437  03C2  0852               	movf	(BME280_readPressure@p+1)^(0+128),w
  7438  03C3  0020               	movlb	0	; select bank0
  7439  03C4  00C9               	movwf	??_BME280_readPressure+5
  7440  03C5  0021               	movlb	1	; select bank1
  7441  03C6  0853               	movf	(BME280_readPressure@p+2)^(0+128),w
  7442  03C7  0020               	movlb	0	; select bank0
  7443  03C8  00CA               	movwf	??_BME280_readPressure+6
  7444  03C9  0021               	movlb	1	; select bank1
  7445  03CA  0854               	movf	(BME280_readPressure@p+3)^(0+128),w
  7446  03CB  0020               	movlb	0	; select bank0
  7447  03CC  00CB               	movwf	??_BME280_readPressure+7
  7448  03CD  3003               	movlw	3
  7449  03CE                     u3245:	
  7450  03CE  36CB               	lsrf	??_BME280_readPressure+7,f
  7451  03CF  0CCA               	rrf	??_BME280_readPressure+6,f
  7452  03D0  0CC9               	rrf	??_BME280_readPressure+5,f
  7453  03D1  0CC8               	rrf	??_BME280_readPressure+4,f
  7454  03D2  0B89               	decfsz	9,f
  7455  03D3  2BCE               	goto	u3245
  7456  03D4  084B               	movf	??_BME280_readPressure+7,w
  7457  03D5  00A6               	movwf	___lmul@multiplier+3
  7458  03D6  084A               	movf	??_BME280_readPressure+6,w
  7459  03D7  00A5               	movwf	___lmul@multiplier+2
  7460  03D8  0849               	movf	??_BME280_readPressure+5,w
  7461  03D9  00A4               	movwf	___lmul@multiplier+1
  7462  03DA  0848               	movf	??_BME280_readPressure+4,w
  7463  03DB  00A3               	movwf	___lmul@multiplier
  7464  03DC  3197  27A0  3180   	fcall	___lmul
  7465  03DF  0020               	movlb	0	; select bank0
  7466  03E0  0823               	movf	?___lmul,w
  7467  03E1  00CC               	movwf	??_BME280_readPressure+8
  7468  03E2  0824               	movf	?___lmul+1,w
  7469  03E3  00CD               	movwf	??_BME280_readPressure+9
  7470  03E4  0825               	movf	?___lmul+2,w
  7471  03E5  00CE               	movwf	??_BME280_readPressure+10
  7472  03E6  0826               	movf	?___lmul+3,w
  7473  03E7  00CF               	movwf	??_BME280_readPressure+11
  7474  03E8  300D               	movlw	13
  7475  03E9                     u3255:	
  7476  03E9  36CF               	lsrf	??_BME280_readPressure+11,f
  7477  03EA  0CCE               	rrf	??_BME280_readPressure+10,f
  7478  03EB  0CCD               	rrf	??_BME280_readPressure+9,f
  7479  03EC  0CCC               	rrf	??_BME280_readPressure+8,f
  7480  03ED  0B89               	decfsz	9,f
  7481  03EE  2BE9               	goto	u3255
  7482  03EF  084F               	movf	??_BME280_readPressure+11,w
  7483  03F0  0021               	movlb	1	; select bank1
  7484  03F1  00CC               	movwf	(_BME280_readPressure$1426+3)^(0+128)
  7485  03F2  0020               	movlb	0	; select bank0
  7486  03F3  084E               	movf	??_BME280_readPressure+10,w
  7487  03F4  0021               	movlb	1	; select bank1
  7488  03F5  00CB               	movwf	(_BME280_readPressure$1426+2)^(0+128)
  7489  03F6  0020               	movlb	0	; select bank0
  7490  03F7  084D               	movf	??_BME280_readPressure+9,w
  7491  03F8  0021               	movlb	1	; select bank1
  7492  03F9  00CA               	movwf	(_BME280_readPressure$1426+1)^(0+128)
  7493  03FA  0020               	movlb	0	; select bank0
  7494  03FB  084C               	movf	??_BME280_readPressure+8,w
  7495  03FC  0021               	movlb	1	; select bank1
  7496  03FD  00C9               	movwf	_BME280_readPressure$1426^(0+128)
  7497                           
  7498                           ;bme280.c: 271: }
  7499                           ;bme280.c: 272: var1 = (((int32_t)cal_data.dig_P9) * ((int32_t)(((p>>3) * (p>>3))>>13)))
      +                          >>12;
  7500  03FE  083A               	movf	(_cal_data^(0+128)+22),w
  7501  03FF  0020               	movlb	0	; select bank0
  7502  0400  00A3               	movwf	___lmul@multiplier
  7503  0401  0021               	movlb	1	; select bank1
  7504  0402  083B               	movf	((_cal_data+1)^(0+128)+22),w
  7505  0403  0020               	movlb	0	; select bank0
  7506  0404  00A4               	movwf	___lmul@multiplier+1
  7507  0405  0D89               	rlf	9,f
  7508  0406  3B89               	subwfb	9,f
  7509  0407  0989               	comf	9,f
  7510  0408  00A5               	movwf	___lmul@multiplier+2
  7511  0409  00A6               	movwf	___lmul@multiplier+3
  7512  040A  0021               	movlb	1	; select bank1
  7513  040B  084C               	movf	(_BME280_readPressure$1426+3)^(0+128),w
  7514  040C  0020               	movlb	0	; select bank0
  7515  040D  00AA               	movwf	___lmul@multiplicand+3
  7516  040E  0021               	movlb	1	; select bank1
  7517  040F  084B               	movf	(_BME280_readPressure$1426+2)^(0+128),w
  7518  0410  0020               	movlb	0	; select bank0
  7519  0411  00A9               	movwf	___lmul@multiplicand+2
  7520  0412  0021               	movlb	1	; select bank1
  7521  0413  084A               	movf	(_BME280_readPressure$1426+1)^(0+128),w
  7522  0414  0020               	movlb	0	; select bank0
  7523  0415  00A8               	movwf	___lmul@multiplicand+1
  7524  0416  0021               	movlb	1	; select bank1
  7525  0417  0849               	movf	_BME280_readPressure$1426^(0+128),w
  7526  0418  0020               	movlb	0	; select bank0
  7527  0419  00A7               	movwf	___lmul@multiplicand
  7528  041A  3197  27A0  3180   	fcall	___lmul
  7529  041D  0020               	movlb	0	; select bank0
  7530  041E  0823               	movf	?___lmul,w
  7531  041F  00C4               	movwf	??_BME280_readPressure
  7532  0420  0824               	movf	?___lmul+1,w
  7533  0421  00C5               	movwf	??_BME280_readPressure+1
  7534  0422  0825               	movf	?___lmul+2,w
  7535  0423  00C6               	movwf	??_BME280_readPressure+2
  7536  0424  0826               	movf	?___lmul+3,w
  7537  0425  00C7               	movwf	??_BME280_readPressure+3
  7538  0426  300C               	movlw	12
  7539  0427  00C8               	movwf	??_BME280_readPressure+4
  7540  0428                     u3265:	
  7541  0428  37C7               	asrf	??_BME280_readPressure+3,f
  7542  0429  0CC6               	rrf	??_BME280_readPressure+2,f
  7543  042A  0CC5               	rrf	??_BME280_readPressure+1,f
  7544  042B  0CC4               	rrf	??_BME280_readPressure,f
  7545  042C  0BC8               	decfsz	??_BME280_readPressure+4,f
  7546  042D  2C28               	goto	u3265
  7547  042E  0847               	movf	??_BME280_readPressure+3,w
  7548  042F  0021               	movlb	1	; select bank1
  7549  0430  00D8               	movwf	(BME280_readPressure@var1+3)^(0+128)
  7550  0431  0020               	movlb	0	; select bank0
  7551  0432  0846               	movf	??_BME280_readPressure+2,w
  7552  0433  0021               	movlb	1	; select bank1
  7553  0434  00D7               	movwf	(BME280_readPressure@var1+2)^(0+128)
  7554  0435  0020               	movlb	0	; select bank0
  7555  0436  0845               	movf	??_BME280_readPressure+1,w
  7556  0437  0021               	movlb	1	; select bank1
  7557  0438  00D6               	movwf	(BME280_readPressure@var1+1)^(0+128)
  7558  0439  0020               	movlb	0	; select bank0
  7559  043A  0844               	movf	??_BME280_readPressure,w
  7560  043B  0021               	movlb	1	; select bank1
  7561  043C  00D5               	movwf	BME280_readPressure@var1^(0+128)
  7562                           
  7563                           ;bme280.c: 273: var2 = (((int32_t)(p>>2)) * ((int32_t)cal_data.dig_P8))>>13;
  7564  043D  0851               	movf	BME280_readPressure@p^(0+128),w
  7565  043E  0020               	movlb	0	; select bank0
  7566  043F  00C4               	movwf	??_BME280_readPressure
  7567  0440  0021               	movlb	1	; select bank1
  7568  0441  0852               	movf	(BME280_readPressure@p+1)^(0+128),w
  7569  0442  0020               	movlb	0	; select bank0
  7570  0443  00C5               	movwf	??_BME280_readPressure+1
  7571  0444  0021               	movlb	1	; select bank1
  7572  0445  0853               	movf	(BME280_readPressure@p+2)^(0+128),w
  7573  0446  0020               	movlb	0	; select bank0
  7574  0447  00C6               	movwf	??_BME280_readPressure+2
  7575  0448  0021               	movlb	1	; select bank1
  7576  0449  0854               	movf	(BME280_readPressure@p+3)^(0+128),w
  7577  044A  0020               	movlb	0	; select bank0
  7578  044B  00C7               	movwf	??_BME280_readPressure+3
  7579  044C  3002               	movlw	2
  7580  044D                     u3275:	
  7581  044D  36C7               	lsrf	??_BME280_readPressure+3,f
  7582  044E  0CC6               	rrf	??_BME280_readPressure+2,f
  7583  044F  0CC5               	rrf	??_BME280_readPressure+1,f
  7584  0450  0CC4               	rrf	??_BME280_readPressure,f
  7585  0451  0B89               	decfsz	9,f
  7586  0452  2C4D               	goto	u3275
  7587  0453  0847               	movf	??_BME280_readPressure+3,w
  7588  0454  00A6               	movwf	___lmul@multiplier+3
  7589  0455  0846               	movf	??_BME280_readPressure+2,w
  7590  0456  00A5               	movwf	___lmul@multiplier+2
  7591  0457  0845               	movf	??_BME280_readPressure+1,w
  7592  0458  00A4               	movwf	___lmul@multiplier+1
  7593  0459  0844               	movf	??_BME280_readPressure,w
  7594  045A  00A3               	movwf	___lmul@multiplier
  7595  045B  0021               	movlb	1	; select bank1
  7596  045C  0838               	movf	(_cal_data^(0+128)+20),w
  7597  045D  0020               	movlb	0	; select bank0
  7598  045E  00A7               	movwf	___lmul@multiplicand
  7599  045F  0021               	movlb	1	; select bank1
  7600  0460  0839               	movf	((_cal_data+1)^(0+128)+20),w
  7601  0461  0020               	movlb	0	; select bank0
  7602  0462  00A8               	movwf	___lmul@multiplicand+1
  7603  0463  0D89               	rlf	9,f
  7604  0464  3B89               	subwfb	9,f
  7605  0465  0989               	comf	9,f
  7606  0466  00A9               	movwf	___lmul@multiplicand+2
  7607  0467  00AA               	movwf	___lmul@multiplicand+3
  7608  0468  3197  27A0  3180   	fcall	___lmul
  7609  046B  0020               	movlb	0	; select bank0
  7610  046C  0823               	movf	?___lmul,w
  7611  046D  00C8               	movwf	??_BME280_readPressure+4
  7612  046E  0824               	movf	?___lmul+1,w
  7613  046F  00C9               	movwf	??_BME280_readPressure+5
  7614  0470  0825               	movf	?___lmul+2,w
  7615  0471  00CA               	movwf	??_BME280_readPressure+6
  7616  0472  0826               	movf	?___lmul+3,w
  7617  0473  00CB               	movwf	??_BME280_readPressure+7
  7618  0474  300D               	movlw	13
  7619  0475  00CC               	movwf	??_BME280_readPressure+8
  7620  0476                     u3285:	
  7621  0476  37CB               	asrf	??_BME280_readPressure+7,f
  7622  0477  0CCA               	rrf	??_BME280_readPressure+6,f
  7623  0478  0CC9               	rrf	??_BME280_readPressure+5,f
  7624  0479  0CC8               	rrf	??_BME280_readPressure+4,f
  7625  047A  0BCC               	decfsz	??_BME280_readPressure+8,f
  7626  047B  2C76               	goto	u3285
  7627  047C  084B               	movf	??_BME280_readPressure+7,w
  7628  047D  0021               	movlb	1	; select bank1
  7629  047E  00D0               	movwf	(BME280_readPressure@var2+3)^(0+128)
  7630  047F  0020               	movlb	0	; select bank0
  7631  0480  084A               	movf	??_BME280_readPressure+6,w
  7632  0481  0021               	movlb	1	; select bank1
  7633  0482  00CF               	movwf	(BME280_readPressure@var2+2)^(0+128)
  7634  0483  0020               	movlb	0	; select bank0
  7635  0484  0849               	movf	??_BME280_readPressure+5,w
  7636  0485  0021               	movlb	1	; select bank1
  7637  0486  00CE               	movwf	(BME280_readPressure@var2+1)^(0+128)
  7638  0487  0020               	movlb	0	; select bank0
  7639  0488  0848               	movf	??_BME280_readPressure+4,w
  7640  0489  0021               	movlb	1	; select bank1
  7641  048A  00CD               	movwf	BME280_readPressure@var2^(0+128)
  7642                           
  7643                           ;bme280.c: 274: p = (uint32_t)((int32_t)p + ((var1 + var2 + cal_data.dig_P7) >> 4));
  7644  048B  0851               	movf	BME280_readPressure@p^(0+128),w
  7645  048C  0020               	movlb	0	; select bank0
  7646  048D  00C4               	movwf	??_BME280_readPressure
  7647  048E  0021               	movlb	1	; select bank1
  7648  048F  0852               	movf	(BME280_readPressure@p+1)^(0+128),w
  7649  0490  0020               	movlb	0	; select bank0
  7650  0491  00C5               	movwf	??_BME280_readPressure+1
  7651  0492  0021               	movlb	1	; select bank1
  7652  0493  0853               	movf	(BME280_readPressure@p+2)^(0+128),w
  7653  0494  0020               	movlb	0	; select bank0
  7654  0495  00C6               	movwf	??_BME280_readPressure+2
  7655  0496  0021               	movlb	1	; select bank1
  7656  0497  0854               	movf	(BME280_readPressure@p+3)^(0+128),w
  7657  0498  0020               	movlb	0	; select bank0
  7658  0499  00C7               	movwf	??_BME280_readPressure+3
  7659  049A  0021               	movlb	1	; select bank1
  7660  049B  084D               	movf	BME280_readPressure@var2^(0+128),w
  7661  049C  0020               	movlb	0	; select bank0
  7662  049D  00C8               	movwf	??_BME280_readPressure+4
  7663  049E  0021               	movlb	1	; select bank1
  7664  049F  084E               	movf	(BME280_readPressure@var2+1)^(0+128),w
  7665  04A0  0020               	movlb	0	; select bank0
  7666  04A1  00C9               	movwf	??_BME280_readPressure+5
  7667  04A2  0021               	movlb	1	; select bank1
  7668  04A3  084F               	movf	(BME280_readPressure@var2+2)^(0+128),w
  7669  04A4  0020               	movlb	0	; select bank0
  7670  04A5  00CA               	movwf	??_BME280_readPressure+6
  7671  04A6  0021               	movlb	1	; select bank1
  7672  04A7  0850               	movf	(BME280_readPressure@var2+3)^(0+128),w
  7673  04A8  0020               	movlb	0	; select bank0
  7674  04A9  00CB               	movwf	??_BME280_readPressure+7
  7675  04AA  0021               	movlb	1	; select bank1
  7676  04AB  0855               	movf	BME280_readPressure@var1^(0+128),w
  7677  04AC  0020               	movlb	0	; select bank0
  7678  04AD  00CC               	movwf	??_BME280_readPressure+8
  7679  04AE  0021               	movlb	1	; select bank1
  7680  04AF  0856               	movf	(BME280_readPressure@var1+1)^(0+128),w
  7681  04B0  0020               	movlb	0	; select bank0
  7682  04B1  00CD               	movwf	??_BME280_readPressure+9
  7683  04B2  0021               	movlb	1	; select bank1
  7684  04B3  0857               	movf	(BME280_readPressure@var1+2)^(0+128),w
  7685  04B4  0020               	movlb	0	; select bank0
  7686  04B5  00CE               	movwf	??_BME280_readPressure+10
  7687  04B6  0021               	movlb	1	; select bank1
  7688  04B7  0858               	movf	(BME280_readPressure@var1+3)^(0+128),w
  7689  04B8  0020               	movlb	0	; select bank0
  7690  04B9  00CF               	movwf	??_BME280_readPressure+11
  7691  04BA  0021               	movlb	1	; select bank1
  7692  04BB  0836               	movf	(_cal_data^(0+128)+18),w
  7693  04BC  0020               	movlb	0	; select bank0
  7694  04BD  00D0               	movwf	??_BME280_readPressure+12
  7695  04BE  0021               	movlb	1	; select bank1
  7696  04BF  0837               	movf	((_cal_data+1)^(0+128)+18),w
  7697  04C0  0020               	movlb	0	; select bank0
  7698  04C1  00D1               	movwf	??_BME280_readPressure+13
  7699  04C2  3000               	movlw	0
  7700  04C3  1BD1               	btfsc	??_BME280_readPressure+13,7
  7701  04C4  30FF               	movlw	255
  7702  04C5  00D2               	movwf	??_BME280_readPressure+14
  7703  04C6  00D3               	movwf	??_BME280_readPressure+15
  7704  04C7  0850               	movf	??_BME280_readPressure+12,w
  7705  04C8  07CC               	addwf	??_BME280_readPressure+8,f
  7706  04C9  0851               	movf	??_BME280_readPressure+13,w
  7707  04CA  3DCD               	addwfc	??_BME280_readPressure+9,f
  7708  04CB  0852               	movf	??_BME280_readPressure+14,w
  7709  04CC  3DCE               	addwfc	??_BME280_readPressure+10,f
  7710  04CD  0853               	movf	??_BME280_readPressure+15,w
  7711  04CE  3DCF               	addwfc	??_BME280_readPressure+11,f
  7712  04CF  084C               	movf	??_BME280_readPressure+8,w
  7713  04D0  07C8               	addwf	??_BME280_readPressure+4,f
  7714  04D1  084D               	movf	??_BME280_readPressure+9,w
  7715  04D2  3DC9               	addwfc	??_BME280_readPressure+5,f
  7716  04D3  084E               	movf	??_BME280_readPressure+10,w
  7717  04D4  3DCA               	addwfc	??_BME280_readPressure+6,f
  7718  04D5  084F               	movf	??_BME280_readPressure+11,w
  7719  04D6  3DCB               	addwfc	??_BME280_readPressure+7,f
  7720  04D7  3004               	movlw	4
  7721  04D8  00D4               	movwf	??_BME280_readPressure+16
  7722  04D9                     u3295:	
  7723  04D9  37CB               	asrf	??_BME280_readPressure+7,f
  7724  04DA  0CCA               	rrf	??_BME280_readPressure+6,f
  7725  04DB  0CC9               	rrf	??_BME280_readPressure+5,f
  7726  04DC  0CC8               	rrf	??_BME280_readPressure+4,f
  7727  04DD  0BD4               	decfsz	??_BME280_readPressure+16,f
  7728  04DE  2CD9               	goto	u3295
  7729  04DF  0848               	movf	??_BME280_readPressure+4,w
  7730  04E0  07C4               	addwf	??_BME280_readPressure,f
  7731  04E1  0849               	movf	??_BME280_readPressure+5,w
  7732  04E2  3DC5               	addwfc	??_BME280_readPressure+1,f
  7733  04E3  084A               	movf	??_BME280_readPressure+6,w
  7734  04E4  3DC6               	addwfc	??_BME280_readPressure+2,f
  7735  04E5  084B               	movf	??_BME280_readPressure+7,w
  7736  04E6  3DC7               	addwfc	??_BME280_readPressure+3,f
  7737  04E7  0847               	movf	??_BME280_readPressure+3,w
  7738  04E8  0021               	movlb	1	; select bank1
  7739  04E9  00D4               	movwf	(BME280_readPressure@p+3)^(0+128)
  7740  04EA  0020               	movlb	0	; select bank0
  7741  04EB  0846               	movf	??_BME280_readPressure+2,w
  7742  04EC  0021               	movlb	1	; select bank1
  7743  04ED  00D3               	movwf	(BME280_readPressure@p+2)^(0+128)
  7744  04EE  0020               	movlb	0	; select bank0
  7745  04EF  0845               	movf	??_BME280_readPressure+1,w
  7746  04F0  0021               	movlb	1	; select bank1
  7747  04F1  00D2               	movwf	(BME280_readPressure@p+1)^(0+128)
  7748  04F2  0020               	movlb	0	; select bank0
  7749  04F3  0844               	movf	??_BME280_readPressure,w
  7750  04F4  0021               	movlb	1	; select bank1
  7751  04F5  00D1               	movwf	BME280_readPressure@p^(0+128)
  7752                           
  7753                           ;bme280.c: 275: return (p/100.0);
  7754  04F6  3000               	movlw	0
  7755  04F7  0020               	movlb	0	; select bank0
  7756  04F8  00B1               	movwf	___ftdiv@f2
  7757  04F9  30C8               	movlw	200
  7758  04FA  00B2               	movwf	___ftdiv@f2+1
  7759  04FB  3042               	movlw	66
  7760  04FC  00B3               	movwf	___ftdiv@f2+2
  7761  04FD  0021               	movlb	1	; select bank1
  7762  04FE  0854               	movf	(BME280_readPressure@p+3)^(0+128),w
  7763  04FF  0020               	movlb	0	; select bank0
  7764  0500  00AE               	movwf	___lltoft@c+3
  7765  0501  0021               	movlb	1	; select bank1
  7766  0502  0853               	movf	(BME280_readPressure@p+2)^(0+128),w
  7767  0503  0020               	movlb	0	; select bank0
  7768  0504  00AD               	movwf	___lltoft@c+2
  7769  0505  0021               	movlb	1	; select bank1
  7770  0506  0852               	movf	(BME280_readPressure@p+1)^(0+128),w
  7771  0507  0020               	movlb	0	; select bank0
  7772  0508  00AC               	movwf	___lltoft@c+1
  7773  0509  0021               	movlb	1	; select bank1
  7774  050A  0851               	movf	BME280_readPressure@p^(0+128),w
  7775  050B  0020               	movlb	0	; select bank0
  7776  050C  00AB               	movwf	___lltoft@c
  7777  050D  3197  2747  3180   	fcall	___lltoft
  7778  0510  0020               	movlb	0	; select bank0
  7779  0511  082B               	movf	?___lltoft,w
  7780  0512  00B4               	movwf	___ftdiv@f1
  7781  0513  082C               	movf	?___lltoft+1,w
  7782  0514  00B5               	movwf	___ftdiv@f1+1
  7783  0515  082D               	movf	?___lltoft+2,w
  7784  0516  00B6               	movwf	___ftdiv@f1+2
  7785  0517  3187  271A         	fcall	___ftdiv
  7786  0519  0020               	movlb	0	; select bank0
  7787  051A  0831               	movf	?___ftdiv,w
  7788  051B  00C1               	movwf	?_BME280_readPressure
  7789  051C  0832               	movf	?___ftdiv+1,w
  7790  051D  00C2               	movwf	?_BME280_readPressure+1
  7791  051E  0833               	movf	?___ftdiv+2,w
  7792  051F  00C3               	movwf	?_BME280_readPressure+2
  7793  0520  0008               	return
  7794  0521                     __end_of_BME280_readPressure:	
  7795                           
  7796                           	psect	text23
  7797  1747                     __ptext23:	
  7798 ;; *************** function ___lltoft *****************
  7799 ;; Defined at:
  7800 ;;		line 35 in file "/opt/microchip/xc8/v1.45/sources/common/lltoft.c"
  7801 ;; Parameters:    Size  Location     Type
  7802 ;;  c               4   11[BANK0 ] unsigned long 
  7803 ;; Auto vars:     Size  Location     Type
  7804 ;;  exp             1   16[BANK0 ] unsigned char 
  7805 ;; Return value:  Size  Location     Type
  7806 ;;                  3   11[BANK0 ] float 
  7807 ;; Registers used:
  7808 ;;		wreg, status,2, status,0, pclath, cstack
  7809 ;; Tracked objects:
  7810 ;;		On entry : 0/0
  7811 ;;		On exit  : 0/0
  7812 ;;		Unchanged: 0/0
  7813 ;; Data sizes:     COMMON   BANK0   BANK1   BANK2   BANK3   BANK4   BANK5   BANK6   BANK7   BANK8   BANK9  BANK10  BANK1
      +1  BANK12
  7814 ;;      Params:         0       4       0       0       0       0       0       0       0       0       0       0       
      +0       0
  7815 ;;      Locals:         0       1       0       0       0       0       0       0       0       0       0       0       
      +0       0
  7816 ;;      Temps:          0       1       0       0       0       0       0       0       0       0       0       0       
      +0       0
  7817 ;;      Totals:         0       6       0       0       0       0       0       0       0       0       0       0       
      +0       0
  7818 ;;Total ram usage:        6 bytes
  7819 ;; Hardware stack levels used:    1
  7820 ;; Hardware stack levels required when called:    6
  7821 ;; This function calls:
  7822 ;;		___ftpack
  7823 ;; This function is called by:
  7824 ;;		_BME280_readPressure
  7825 ;; This function uses a non-reentrant model
  7826 ;;
  7827                           
  7828                           
  7829                           ;psect for function ___lltoft
  7830  1747                     ___lltoft:	
  7831                           
  7832                           ;incstack = 0
  7833                           ; Regs used in ___lltoft: [wreg+status,2+status,0+pclath+cstack]
  7834  1747  308E               	movlw	142
  7835  1748  0020               	movlb	0	; select bank0
  7836  1749  00AF               	movwf	??___lltoft
  7837  174A  082F               	movf	??___lltoft,w
  7838  174B  00B0               	movwf	___lltoft@exp
  7839  174C                     l2405:	
  7840  174C  30FF               	movlw	255
  7841  174D  052E               	andwf	___lltoft@c+3,w
  7842  174E  1903               	btfsc	3,2
  7843  174F  2F5C               	goto	l2407
  7844  1750  3001               	movlw	1
  7845  1751                     u2825:	
  7846  1751  36AE               	lsrf	___lltoft@c+3,f
  7847  1752  0CAD               	rrf	___lltoft@c+2,f
  7848  1753  0CAC               	rrf	___lltoft@c+1,f
  7849  1754  0CAB               	rrf	___lltoft@c,f
  7850  1755  0B89               	decfsz	9,f
  7851  1756  2F51               	goto	u2825
  7852  1757  3001               	movlw	1
  7853  1758  00AF               	movwf	??___lltoft
  7854  1759  082F               	movf	??___lltoft,w
  7855  175A  07B0               	addwf	___lltoft@exp,f
  7856  175B  2F4C               	goto	l2405
  7857  175C                     l2407:	
  7858  175C  082B               	movf	___lltoft@c,w
  7859  175D  00A3               	movwf	___ftpack@arg
  7860  175E  082C               	movf	___lltoft@c+1,w
  7861  175F  00A4               	movwf	___ftpack@arg+1
  7862  1760  082D               	movf	___lltoft@c+2,w
  7863  1761  00A5               	movwf	___ftpack@arg+2
  7864  1762  0830               	movf	___lltoft@exp,w
  7865  1763  00AF               	movwf	??___lltoft
  7866  1764  082F               	movf	??___lltoft,w
  7867  1765  00A6               	movwf	___ftpack@exp
  7868  1766  01A7               	clrf	___ftpack@sign
  7869  1767  318A  220D         	fcall	___ftpack
  7870  1769  0020               	movlb	0	; select bank0
  7871  176A  0823               	movf	?___ftpack,w
  7872  176B  00AB               	movwf	?___lltoft
  7873  176C  0824               	movf	?___ftpack+1,w
  7874  176D  00AC               	movwf	?___lltoft+1
  7875  176E  0825               	movf	?___ftpack+2,w
  7876  176F  00AD               	movwf	?___lltoft+2
  7877  1770  0008               	return
  7878  1771                     __end_of___lltoft:	
  7879                           
  7880                           	psect	text24
  7881  0901                     __ptext24:	
  7882 ;; *************** function ___lldiv *****************
  7883 ;; Defined at:
  7884 ;;		line 6 in file "/opt/microchip/xc8/v1.45/sources/common/lldiv.c"
  7885 ;; Parameters:    Size  Location     Type
  7886 ;;  divisor         4    3[BANK0 ] unsigned long 
  7887 ;;  dividend        4    7[BANK0 ] unsigned long 
  7888 ;; Auto vars:     Size  Location     Type
  7889 ;;  quotient        4   12[BANK0 ] unsigned long 
  7890 ;;  counter         1   16[BANK0 ] unsigned char 
  7891 ;; Return value:  Size  Location     Type
  7892 ;;                  4    3[BANK0 ] unsigned long 
  7893 ;; Registers used:
  7894 ;;		wreg, status,2, status,0
  7895 ;; Tracked objects:
  7896 ;;		On entry : 0/0
  7897 ;;		On exit  : 0/0
  7898 ;;		Unchanged: 0/0
  7899 ;; Data sizes:     COMMON   BANK0   BANK1   BANK2   BANK3   BANK4   BANK5   BANK6   BANK7   BANK8   BANK9  BANK10  BANK1
      +1  BANK12
  7900 ;;      Params:         0       8       0       0       0       0       0       0       0       0       0       0       
      +0       0
  7901 ;;      Locals:         0       5       0       0       0       0       0       0       0       0       0       0       
      +0       0
  7902 ;;      Temps:          0       1       0       0       0       0       0       0       0       0       0       0       
      +0       0
  7903 ;;      Totals:         0      14       0       0       0       0       0       0       0       0       0       0       
      +0       0
  7904 ;;Total ram usage:       14 bytes
  7905 ;; Hardware stack levels used:    1
  7906 ;; Hardware stack levels required when called:    5
  7907 ;; This function calls:
  7908 ;;		Nothing
  7909 ;; This function is called by:
  7910 ;;		_I2C_Master_Init
  7911 ;;		_BME280_readPressure
  7912 ;; This function uses a non-reentrant model
  7913 ;;
  7914                           
  7915                           
  7916                           ;psect for function ___lldiv
  7917  0901                     ___lldiv:	
  7918                           
  7919                           ;incstack = 0
  7920                           ; Regs used in ___lldiv: [wreg+status,2+status,0]
  7921  0901  3000               	movlw	0
  7922  0902  0020               	movlb	0	; select bank0
  7923  0903  00AF               	movwf	___lldiv@quotient+3
  7924  0904  3000               	movlw	0
  7925  0905  00AE               	movwf	___lldiv@quotient+2
  7926  0906  3000               	movlw	0
  7927  0907  00AD               	movwf	___lldiv@quotient+1
  7928  0908  3000               	movlw	0
  7929  0909  00AC               	movwf	___lldiv@quotient
  7930  090A  0826               	movf	___lldiv@divisor+3,w
  7931  090B  0425               	iorwf	___lldiv@divisor+2,w
  7932  090C  0424               	iorwf	___lldiv@divisor+1,w
  7933  090D  0423               	iorwf	___lldiv@divisor,w
  7934  090E  1903               	skipnz
  7935  090F  294B               	goto	l2173
  7936  0910  01B0               	clrf	___lldiv@counter
  7937  0911  0AB0               	incf	___lldiv@counter,f
  7938  0912                     l2159:	
  7939  0912  1BA6               	btfsc	___lldiv@divisor+3,7
  7940  0913  2920               	goto	l2161
  7941  0914  3001               	movlw	1
  7942  0915                     u2465:	
  7943  0915  35A3               	lslf	___lldiv@divisor,f
  7944  0916  0DA4               	rlf	___lldiv@divisor+1,f
  7945  0917  0DA5               	rlf	___lldiv@divisor+2,f
  7946  0918  0DA6               	rlf	___lldiv@divisor+3,f
  7947  0919  0B89               	decfsz	9,f
  7948  091A  2915               	goto	u2465
  7949  091B  3001               	movlw	1
  7950  091C  00AB               	movwf	??___lldiv
  7951  091D  082B               	movf	??___lldiv,w
  7952  091E  07B0               	addwf	___lldiv@counter,f
  7953  091F  2912               	goto	l2159
  7954  0920                     l2161:	
  7955  0920  3001               	movlw	1
  7956  0921                     u2485:	
  7957  0921  35AC               	lslf	___lldiv@quotient,f
  7958  0922  0DAD               	rlf	___lldiv@quotient+1,f
  7959  0923  0DAE               	rlf	___lldiv@quotient+2,f
  7960  0924  0DAF               	rlf	___lldiv@quotient+3,f
  7961  0925  0B89               	decfsz	9,f
  7962  0926  2921               	goto	u2485
  7963  0927  0826               	movf	___lldiv@divisor+3,w
  7964  0928  022A               	subwf	___lldiv@dividend+3,w
  7965  0929  1D03               	skipz
  7966  092A  2935               	goto	u2495
  7967  092B  0825               	movf	___lldiv@divisor+2,w
  7968  092C  0229               	subwf	___lldiv@dividend+2,w
  7969  092D  1D03               	skipz
  7970  092E  2935               	goto	u2495
  7971  092F  0824               	movf	___lldiv@divisor+1,w
  7972  0930  0228               	subwf	___lldiv@dividend+1,w
  7973  0931  1D03               	skipz
  7974  0932  2935               	goto	u2495
  7975  0933  0823               	movf	___lldiv@divisor,w
  7976  0934  0227               	subwf	___lldiv@dividend,w
  7977  0935                     u2495:	
  7978  0935  1C03               	skipc
  7979  0936  2940               	goto	l2169
  7980  0937  0823               	movf	___lldiv@divisor,w
  7981  0938  02A7               	subwf	___lldiv@dividend,f
  7982  0939  0824               	movf	___lldiv@divisor+1,w
  7983  093A  3BA8               	subwfb	___lldiv@dividend+1,f
  7984  093B  0825               	movf	___lldiv@divisor+2,w
  7985  093C  3BA9               	subwfb	___lldiv@dividend+2,f
  7986  093D  0826               	movf	___lldiv@divisor+3,w
  7987  093E  3BAA               	subwfb	___lldiv@dividend+3,f
  7988  093F  142C               	bsf	___lldiv@quotient,0
  7989  0940                     l2169:	
  7990  0940  3001               	movlw	1
  7991  0941                     u2505:	
  7992  0941  36A6               	lsrf	___lldiv@divisor+3,f
  7993  0942  0CA5               	rrf	___lldiv@divisor+2,f
  7994  0943  0CA4               	rrf	___lldiv@divisor+1,f
  7995  0944  0CA3               	rrf	___lldiv@divisor,f
  7996  0945  0B89               	decfsz	9,f
  7997  0946  2941               	goto	u2505
  7998  0947  3001               	movlw	1
  7999  0948  02B0               	subwf	___lldiv@counter,f
  8000  0949  1D03               	btfss	3,2
  8001  094A  2920               	goto	l2161
  8002  094B                     l2173:	
  8003  094B  082F               	movf	___lldiv@quotient+3,w
  8004  094C  00A6               	movwf	?___lldiv+3
  8005  094D  082E               	movf	___lldiv@quotient+2,w
  8006  094E  00A5               	movwf	?___lldiv+2
  8007  094F  082D               	movf	___lldiv@quotient+1,w
  8008  0950  00A4               	movwf	?___lldiv+1
  8009  0951  082C               	movf	___lldiv@quotient,w
  8010  0952  00A3               	movwf	?___lldiv
  8011  0953  0008               	return
  8012  0954                     __end_of___lldiv:	
  8013                           
  8014                           	psect	text25
  8015  0B67                     __ptext25:	
  8016 ;; *************** function _BME280_read24 *****************
  8017 ;; Defined at:
  8018 ;;		line 49 in file "bme280.c"
  8019 ;; Parameters:    Size  Location     Type
  8020 ;;  reg             1    wreg     unsigned char 
  8021 ;; Auto vars:     Size  Location     Type
  8022 ;;  reg             1   17[BANK0 ] unsigned char 
  8023 ;;  temp            4   18[BANK0 ] unsigned long 
  8024 ;; Return value:  Size  Location     Type
  8025 ;;                  4    9[BANK0 ] unsigned long 
  8026 ;; Registers used:
  8027 ;;		wreg, status,2, status,0, pclath, cstack
  8028 ;; Tracked objects:
  8029 ;;		On entry : 0/0
  8030 ;;		On exit  : 0/0
  8031 ;;		Unchanged: 0/0
  8032 ;; Data sizes:     COMMON   BANK0   BANK1   BANK2   BANK3   BANK4   BANK5   BANK6   BANK7   BANK8   BANK9  BANK10  BANK1
      +1  BANK12
  8033 ;;      Params:         0       4       0       0       0       0       0       0       0       0       0       0       
      +0       0
  8034 ;;      Locals:         0       5       0       0       0       0       0       0       0       0       0       0       
      +0       0
  8035 ;;      Temps:          0       4       0       0       0       0       0       0       0       0       0       0       
      +0       0
  8036 ;;      Totals:         0      13       0       0       0       0       0       0       0       0       0       0       
      +0       0
  8037 ;;Total ram usage:       13 bytes
  8038 ;; Hardware stack levels used:    1
  8039 ;; Hardware stack levels required when called:    7
  8040 ;; This function calls:
  8041 ;;		_I2C_Master_Read
  8042 ;;		_I2C_Master_Start
  8043 ;;		_I2C_Master_Stop
  8044 ;;		_I2C_Master_Wait
  8045 ;;		_I2C_Master_Write
  8046 ;; This function is called by:
  8047 ;;		_BME280_readTemperature
  8048 ;;		_BME280_readPressure
  8049 ;; This function uses a non-reentrant model
  8050 ;;
  8051                           
  8052                           
  8053                           ;psect for function _BME280_read24
  8054  0B67                     _BME280_read24:	
  8055                           
  8056                           ;incstack = 0
  8057                           ; Regs used in _BME280_read24: [wreg+status,2+status,0+pclath+cstack]
  8058                           ;BME280_read24@reg stored from wreg
  8059  0B67  0020               	movlb	0	; select bank0
  8060  0B68  00B1               	movwf	BME280_read24@reg
  8061                           
  8062                           ;bme280.c: 51: uint32_t temp ;
  8063                           ;bme280.c: 52: I2C_Master_Start();
  8064  0B69  3195  25FC  318B   	fcall	_I2C_Master_Start
  8065                           
  8066                           ;bme280.c: 53: I2C_Master_Write(0xEC);
  8067  0B6C  30EC               	movlw	236
  8068  0B6D  0020               	movlb	0	; select bank0
  8069  0B6E  00A3               	movwf	I2C_Master_Write@d
  8070  0B6F  3000               	movlw	0
  8071  0B70  00A4               	movwf	I2C_Master_Write@d+1
  8072  0B71  3196  2612  318B   	fcall	_I2C_Master_Write
  8073                           
  8074                           ;bme280.c: 54: I2C_Master_Wait();
  8075  0B74  3196  2621  318B   	fcall	_I2C_Master_Wait
  8076                           
  8077                           ;bme280.c: 55: I2C_Master_Write(reg);
  8078  0B77  0020               	movlb	0	; select bank0
  8079  0B78  0831               	movf	BME280_read24@reg,w
  8080  0B79  00AD               	movwf	??_BME280_read24
  8081  0B7A  01AE               	clrf	??_BME280_read24+1
  8082  0B7B  082D               	movf	??_BME280_read24,w
  8083  0B7C  00A3               	movwf	I2C_Master_Write@d
  8084  0B7D  082E               	movf	??_BME280_read24+1,w
  8085  0B7E  00A4               	movwf	I2C_Master_Write@d+1
  8086  0B7F  3196  2612  318B   	fcall	_I2C_Master_Write
  8087                           
  8088                           ;bme280.c: 56: I2C_Master_Wait();
  8089  0B82  3196  2621  318B   	fcall	_I2C_Master_Wait
  8090                           
  8091                           ;bme280.c: 57: I2C_Master_Stop();
  8092  0B85  3196  2601  318B   	fcall	_I2C_Master_Stop
  8093                           
  8094                           ;bme280.c: 58: I2C_Master_Start();
  8095  0B88  3195  25FC  318B   	fcall	_I2C_Master_Start
  8096                           
  8097                           ;bme280.c: 59: I2C_Master_Write(0xED);
  8098  0B8B  30ED               	movlw	237
  8099  0B8C  0020               	movlb	0	; select bank0
  8100  0B8D  00A3               	movwf	I2C_Master_Write@d
  8101  0B8E  3000               	movlw	0
  8102  0B8F  00A4               	movwf	I2C_Master_Write@d+1
  8103  0B90  3196  2612  318B   	fcall	_I2C_Master_Write
  8104                           
  8105                           ;bme280.c: 60: I2C_Master_Wait();
  8106  0B93  3196  2621  318B   	fcall	_I2C_Master_Wait
  8107                           
  8108                           ;bme280.c: 61: temp = I2C_Master_Read(1);
  8109  0B96  3001               	movlw	1
  8110  0B97  0020               	movlb	0	; select bank0
  8111  0B98  00A3               	movwf	I2C_Master_Read@a
  8112  0B99  3000               	movlw	0
  8113  0B9A  00A4               	movwf	I2C_Master_Read@a+1
  8114  0B9B  3196  26FB  318B   	fcall	_I2C_Master_Read
  8115  0B9E  0020               	movlb	0	; select bank0
  8116  0B9F  0823               	movf	?_I2C_Master_Read,w
  8117  0BA0  00B2               	movwf	BME280_read24@temp
  8118  0BA1  0824               	movf	?_I2C_Master_Read+1,w
  8119  0BA2  00B3               	movwf	BME280_read24@temp+1
  8120  0BA3  01B4               	clrf	BME280_read24@temp+2
  8121  0BA4  01B5               	clrf	BME280_read24@temp+3
  8122                           
  8123                           ;bme280.c: 62: temp<<=8;
  8124  0BA5  3008               	movlw	8
  8125  0BA6                     u2555:	
  8126  0BA6  35B2               	lslf	BME280_read24@temp,f
  8127  0BA7  0DB3               	rlf	BME280_read24@temp+1,f
  8128  0BA8  0DB4               	rlf	BME280_read24@temp+2,f
  8129  0BA9  0DB5               	rlf	BME280_read24@temp+3,f
  8130  0BAA  0B89               	decfsz	9,f
  8131  0BAB  2BA6               	goto	u2555
  8132                           
  8133                           ;bme280.c: 63: I2C_Master_Wait();
  8134  0BAC  3196  2621  318B   	fcall	_I2C_Master_Wait
  8135                           
  8136                           ;bme280.c: 64: temp |= I2C_Master_Read(1);
  8137  0BAF  3001               	movlw	1
  8138  0BB0  0020               	movlb	0	; select bank0
  8139  0BB1  00A3               	movwf	I2C_Master_Read@a
  8140  0BB2  3000               	movlw	0
  8141  0BB3  00A4               	movwf	I2C_Master_Read@a+1
  8142  0BB4  3196  26FB  318B   	fcall	_I2C_Master_Read
  8143  0BB7  0020               	movlb	0	; select bank0
  8144  0BB8  0823               	movf	?_I2C_Master_Read,w
  8145  0BB9  00AD               	movwf	??_BME280_read24
  8146  0BBA  0824               	movf	?_I2C_Master_Read+1,w
  8147  0BBB  00AE               	movwf	??_BME280_read24+1
  8148  0BBC  01AF               	clrf	??_BME280_read24+2
  8149  0BBD  01B0               	clrf	??_BME280_read24+3
  8150  0BBE  082D               	movf	??_BME280_read24,w
  8151  0BBF  04B2               	iorwf	BME280_read24@temp,f
  8152  0BC0  082E               	movf	??_BME280_read24+1,w
  8153  0BC1  04B3               	iorwf	BME280_read24@temp+1,f
  8154  0BC2  082F               	movf	??_BME280_read24+2,w
  8155  0BC3  04B4               	iorwf	BME280_read24@temp+2,f
  8156  0BC4  0830               	movf	??_BME280_read24+3,w
  8157  0BC5  04B5               	iorwf	BME280_read24@temp+3,f
  8158                           
  8159                           ;bme280.c: 65: temp<<=8;
  8160  0BC6  3008               	movlw	8
  8161  0BC7                     u2565:	
  8162  0BC7  35B2               	lslf	BME280_read24@temp,f
  8163  0BC8  0DB3               	rlf	BME280_read24@temp+1,f
  8164  0BC9  0DB4               	rlf	BME280_read24@temp+2,f
  8165  0BCA  0DB5               	rlf	BME280_read24@temp+3,f
  8166  0BCB  0B89               	decfsz	9,f
  8167  0BCC  2BC7               	goto	u2565
  8168                           
  8169                           ;bme280.c: 66: I2C_Master_Wait();
  8170  0BCD  3196  2621  318B   	fcall	_I2C_Master_Wait
  8171                           
  8172                           ;bme280.c: 67: temp |= I2C_Master_Read(0);
  8173  0BD0  3000               	movlw	0
  8174  0BD1  0020               	movlb	0	; select bank0
  8175  0BD2  00A3               	movwf	I2C_Master_Read@a
  8176  0BD3  00A4               	movwf	I2C_Master_Read@a+1
  8177  0BD4  3196  26FB  318B   	fcall	_I2C_Master_Read
  8178  0BD7  0020               	movlb	0	; select bank0
  8179  0BD8  0823               	movf	?_I2C_Master_Read,w
  8180  0BD9  00AD               	movwf	??_BME280_read24
  8181  0BDA  0824               	movf	?_I2C_Master_Read+1,w
  8182  0BDB  00AE               	movwf	??_BME280_read24+1
  8183  0BDC  01AF               	clrf	??_BME280_read24+2
  8184  0BDD  01B0               	clrf	??_BME280_read24+3
  8185  0BDE  082D               	movf	??_BME280_read24,w
  8186  0BDF  04B2               	iorwf	BME280_read24@temp,f
  8187  0BE0  082E               	movf	??_BME280_read24+1,w
  8188  0BE1  04B3               	iorwf	BME280_read24@temp+1,f
  8189  0BE2  082F               	movf	??_BME280_read24+2,w
  8190  0BE3  04B4               	iorwf	BME280_read24@temp+2,f
  8191  0BE4  0830               	movf	??_BME280_read24+3,w
  8192  0BE5  04B5               	iorwf	BME280_read24@temp+3,f
  8193                           
  8194                           ;bme280.c: 69: I2C_Master_Stop();
  8195  0BE6  3196  2601         	fcall	_I2C_Master_Stop
  8196                           
  8197                           ;bme280.c: 71: return temp;
  8198  0BE8  0020               	movlb	0	; select bank0
  8199  0BE9  0835               	movf	BME280_read24@temp+3,w
  8200  0BEA  00AC               	movwf	?_BME280_read24+3
  8201  0BEB  0834               	movf	BME280_read24@temp+2,w
  8202  0BEC  00AB               	movwf	?_BME280_read24+2
  8203  0BED  0833               	movf	BME280_read24@temp+1,w
  8204  0BEE  00AA               	movwf	?_BME280_read24+1
  8205  0BEF  0832               	movf	BME280_read24@temp,w
  8206  0BF0  00A9               	movwf	?_BME280_read24
  8207  0BF1  0008               	return
  8208  0BF2                     __end_of_BME280_read24:	
  8209                           
  8210                           	psect	text26
  8211  0CF0                     __ptext26:	
  8212 ;; *************** function _BME280_readHumidity *****************
  8213 ;; Defined at:
  8214 ;;		line 215 in file "bme280.c"
  8215 ;; Parameters:    Size  Location     Type
  8216 ;;		None
  8217 ;; Auto vars:     Size  Location     Type
  8218 ;;  v_x1_u32r       4   27[BANK1 ] long 
  8219 ;;  adc_H           4    0[BANK1 ] long 
  8220 ;;  h               3   20[BANK1 ] float 
  8221 ;; Return value:  Size  Location     Type
  8222 ;;                  3   33[BANK0 ] float 
  8223 ;; Registers used:
  8224 ;;		wreg, status,2, status,0, pclath, cstack
  8225 ;; Tracked objects:
  8226 ;;		On entry : 0/0
  8227 ;;		On exit  : 0/0
  8228 ;;		Unchanged: 0/0
  8229 ;; Data sizes:     COMMON   BANK0   BANK1   BANK2   BANK3   BANK4   BANK5   BANK6   BANK7   BANK8   BANK9  BANK10  BANK1
      +1  BANK12
  8230 ;;      Params:         0       3       0       0       0       0       0       0       0       0       0       0       
      +0       0
  8231 ;;      Locals:         0       0      31       0       0       0       0       0       0       0       0       0       
      +0       0
  8232 ;;      Temps:          0      17       0       0       0       0       0       0       0       0       0       0       
      +0       0
  8233 ;;      Totals:         0      20      31       0       0       0       0       0       0       0       0       0       
      +0       0
  8234 ;;Total ram usage:       51 bytes
  8235 ;; Hardware stack levels used:    1
  8236 ;; Hardware stack levels required when called:    8
  8237 ;; This function calls:
  8238 ;;		_BME280_read16
  8239 ;;		___altoft
  8240 ;;		___ftdiv
  8241 ;;		___lmul
  8242 ;; This function is called by:
  8243 ;;		_main
  8244 ;; This function uses a non-reentrant model
  8245 ;;
  8246                           
  8247                           
  8248                           ;psect for function _BME280_readHumidity
  8249  0CF0                     _BME280_readHumidity:	
  8250                           
  8251                           ;bme280.c: 217: int32_t adc_H = BME280_read16(0xFD);
  8252                           
  8253                           ;incstack = 0
  8254                           ; Regs used in _BME280_readHumidity: [wreg+status,2+status,0+pclath+cstack]
  8255  0CF0  30FD               	movlw	253
  8256  0CF1  3189  2154  318C   	fcall	_BME280_read16
  8257  0CF4  0020               	movlb	0	; select bank0
  8258  0CF5  0829               	movf	?_BME280_read16,w
  8259  0CF6  0021               	movlb	1	; select bank1
  8260  0CF7  00C5               	movwf	BME280_readHumidity@adc_H^(0+128)
  8261  0CF8  0020               	movlb	0	; select bank0
  8262  0CF9  082A               	movf	?_BME280_read16+1,w
  8263  0CFA  0021               	movlb	1	; select bank1
  8264  0CFB  00C6               	movwf	(BME280_readHumidity@adc_H^(0+128)+1)
  8265  0CFC  01C7               	clrf	(BME280_readHumidity@adc_H^(0+128)+2)
  8266  0CFD  01C8               	clrf	(BME280_readHumidity@adc_H^(0+128)+3)
  8267                           
  8268                           ;bme280.c: 219: int32_t v_x1_u32r;
  8269                           ;bme280.c: 221: v_x1_u32r = (t_fine - ((int32_t)76800));
  8270  0CFE  3000               	movlw	0
  8271  0CFF  0020               	movlb	0	; select bank0
  8272  0D00  0768               	addwf	_t_fine,w
  8273  0D01  0021               	movlb	1	; select bank1
  8274  0D02  00E0               	movwf	BME280_readHumidity@v_x1_u32r^(0+128)
  8275  0D03  30D4               	movlw	212
  8276  0D04  0020               	movlb	0	; select bank0
  8277  0D05  3D69               	addwfc	_t_fine+1,w
  8278  0D06  0021               	movlb	1	; select bank1
  8279  0D07  00E1               	movwf	(BME280_readHumidity@v_x1_u32r+1)^(0+128)
  8280  0D08  30FE               	movlw	254
  8281  0D09  0020               	movlb	0	; select bank0
  8282  0D0A  3D6A               	addwfc	_t_fine+2,w
  8283  0D0B  0021               	movlb	1	; select bank1
  8284  0D0C  00E2               	movwf	(BME280_readHumidity@v_x1_u32r+2)^(0+128)
  8285  0D0D  30FF               	movlw	255
  8286  0D0E  0020               	movlb	0	; select bank0
  8287  0D0F  3D6B               	addwfc	_t_fine+3,w
  8288  0D10  0021               	movlb	1	; select bank1
  8289  0D11  00E3               	movwf	(BME280_readHumidity@v_x1_u32r+3)^(0+128)
  8290                           
  8291                           ;bme280.c: 223: v_x1_u32r = (((((adc_H << 14) - (((int32_t)cal_data.dig_H4) << 20) -
  8292                           ;bme280.c: 225: (((int32_t)cal_data.dig_H5) * v_x1_u32r)) + ((int32_t)16384)) >> 15) *
  8293                           ;bme280.c: 227: (((((((v_x1_u32r * ((int32_t)cal_data.dig_H6)) >> 10) *
  8294                           ;bme280.c: 229: (((v_x1_u32r * ((int32_t)cal_data.dig_H3)) >> 11) + ((int32_t)32768))) >
      +                          > 10) +
  8295                           ;bme280.c: 231: ((int32_t)2097152)) * ((int32_t)cal_data.dig_H2) + 8192) >> 14));
  8296  0D12  0863               	movf	(BME280_readHumidity@v_x1_u32r+3)^(0+128),w
  8297  0D13  0020               	movlb	0	; select bank0
  8298  0D14  00AA               	movwf	___lmul@multiplicand+3
  8299  0D15  0021               	movlb	1	; select bank1
  8300  0D16  0862               	movf	(BME280_readHumidity@v_x1_u32r+2)^(0+128),w
  8301  0D17  0020               	movlb	0	; select bank0
  8302  0D18  00A9               	movwf	___lmul@multiplicand+2
  8303  0D19  0021               	movlb	1	; select bank1
  8304  0D1A  0861               	movf	(BME280_readHumidity@v_x1_u32r+1)^(0+128),w
  8305  0D1B  0020               	movlb	0	; select bank0
  8306  0D1C  00A8               	movwf	___lmul@multiplicand+1
  8307  0D1D  0021               	movlb	1	; select bank1
  8308  0D1E  0860               	movf	BME280_readHumidity@v_x1_u32r^(0+128),w
  8309  0D1F  0020               	movlb	0	; select bank0
  8310  0D20  00A7               	movwf	___lmul@multiplicand
  8311  0D21  0021               	movlb	1	; select bank1
  8312  0D22  0844               	movf	(_cal_data^(0+128)+32),w
  8313  0D23  0020               	movlb	0	; select bank0
  8314  0D24  00A3               	movwf	___lmul@multiplier
  8315  0D25  3980               	andlw	128
  8316  0D26  1D03               	skipz
  8317  0D27  30FF               	movlw	255
  8318  0D28  00A4               	movwf	___lmul@multiplier+1
  8319  0D29  00A5               	movwf	___lmul@multiplier+2
  8320  0D2A  00A6               	movwf	___lmul@multiplier+3
  8321  0D2B  3197  27A0  318C   	fcall	___lmul
  8322  0D2E  0020               	movlb	0	; select bank0
  8323  0D2F  0823               	movf	?___lmul,w
  8324  0D30  00C4               	movwf	??_BME280_readHumidity
  8325  0D31  0824               	movf	?___lmul+1,w
  8326  0D32  00C5               	movwf	??_BME280_readHumidity+1
  8327  0D33  0825               	movf	?___lmul+2,w
  8328  0D34  00C6               	movwf	??_BME280_readHumidity+2
  8329  0D35  0826               	movf	?___lmul+3,w
  8330  0D36  00C7               	movwf	??_BME280_readHumidity+3
  8331  0D37  300A               	movlw	10
  8332  0D38  00C8               	movwf	??_BME280_readHumidity+4
  8333  0D39                     u2945:	
  8334  0D39  37C7               	asrf	??_BME280_readHumidity+3,f
  8335  0D3A  0CC6               	rrf	??_BME280_readHumidity+2,f
  8336  0D3B  0CC5               	rrf	??_BME280_readHumidity+1,f
  8337  0D3C  0CC4               	rrf	??_BME280_readHumidity,f
  8338  0D3D  0BC8               	decfsz	??_BME280_readHumidity+4,f
  8339  0D3E  2D39               	goto	u2945
  8340  0D3F  0847               	movf	??_BME280_readHumidity+3,w
  8341  0D40  0021               	movlb	1	; select bank1
  8342  0D41  00DF               	movwf	(_BME280_readHumidity$1421+3)^(0+128)
  8343  0D42  0020               	movlb	0	; select bank0
  8344  0D43  0846               	movf	??_BME280_readHumidity+2,w
  8345  0D44  0021               	movlb	1	; select bank1
  8346  0D45  00DE               	movwf	(_BME280_readHumidity$1421+2)^(0+128)
  8347  0D46  0020               	movlb	0	; select bank0
  8348  0D47  0845               	movf	??_BME280_readHumidity+1,w
  8349  0D48  0021               	movlb	1	; select bank1
  8350  0D49  00DD               	movwf	(_BME280_readHumidity$1421+1)^(0+128)
  8351  0D4A  0020               	movlb	0	; select bank0
  8352  0D4B  0844               	movf	??_BME280_readHumidity,w
  8353  0D4C  0021               	movlb	1	; select bank1
  8354  0D4D  00DC               	movwf	_BME280_readHumidity$1421^(0+128)
  8355                           
  8356                           ;bme280.c: 223: v_x1_u32r = (((((adc_H << 14) - (((int32_t)cal_data.dig_H4) << 20) -
  8357                           ;bme280.c: 225: (((int32_t)cal_data.dig_H5) * v_x1_u32r)) + ((int32_t)16384)) >> 15) *
  8358                           ;bme280.c: 227: (((((((v_x1_u32r * ((int32_t)cal_data.dig_H6)) >> 10) *
  8359                           ;bme280.c: 229: (((v_x1_u32r * ((int32_t)cal_data.dig_H3)) >> 11) + ((int32_t)32768))) >
      +                          > 10) +
  8360                           ;bme280.c: 231: ((int32_t)2097152)) * ((int32_t)cal_data.dig_H2) + 8192) >> 14));
  8361  0D4E  0863               	movf	(BME280_readHumidity@v_x1_u32r+3)^(0+128),w
  8362  0D4F  0020               	movlb	0	; select bank0
  8363  0D50  00AA               	movwf	___lmul@multiplicand+3
  8364  0D51  0021               	movlb	1	; select bank1
  8365  0D52  0862               	movf	(BME280_readHumidity@v_x1_u32r+2)^(0+128),w
  8366  0D53  0020               	movlb	0	; select bank0
  8367  0D54  00A9               	movwf	___lmul@multiplicand+2
  8368  0D55  0021               	movlb	1	; select bank1
  8369  0D56  0861               	movf	(BME280_readHumidity@v_x1_u32r+1)^(0+128),w
  8370  0D57  0020               	movlb	0	; select bank0
  8371  0D58  00A8               	movwf	___lmul@multiplicand+1
  8372  0D59  0021               	movlb	1	; select bank1
  8373  0D5A  0860               	movf	BME280_readHumidity@v_x1_u32r^(0+128),w
  8374  0D5B  0020               	movlb	0	; select bank0
  8375  0D5C  00A7               	movwf	___lmul@multiplicand
  8376  0D5D  0021               	movlb	1	; select bank1
  8377  0D5E  083F               	movf	(_cal_data^(0+128)+27),w
  8378  0D5F  0020               	movlb	0	; select bank0
  8379  0D60  00C4               	movwf	??_BME280_readHumidity
  8380  0D61  01C5               	clrf	??_BME280_readHumidity+1
  8381  0D62  01C6               	clrf	??_BME280_readHumidity+2
  8382  0D63  01C7               	clrf	??_BME280_readHumidity+3
  8383  0D64  0847               	movf	??_BME280_readHumidity+3,w
  8384  0D65  00A6               	movwf	___lmul@multiplier+3
  8385  0D66  0846               	movf	??_BME280_readHumidity+2,w
  8386  0D67  00A5               	movwf	___lmul@multiplier+2
  8387  0D68  0845               	movf	??_BME280_readHumidity+1,w
  8388  0D69  00A4               	movwf	___lmul@multiplier+1
  8389  0D6A  0844               	movf	??_BME280_readHumidity,w
  8390  0D6B  00A3               	movwf	___lmul@multiplier
  8391  0D6C  3197  27A0  318C   	fcall	___lmul
  8392  0D6F  0020               	movlb	0	; select bank0
  8393  0D70  0823               	movf	?___lmul,w
  8394  0D71  00C8               	movwf	??_BME280_readHumidity+4
  8395  0D72  0824               	movf	?___lmul+1,w
  8396  0D73  00C9               	movwf	??_BME280_readHumidity+5
  8397  0D74  0825               	movf	?___lmul+2,w
  8398  0D75  00CA               	movwf	??_BME280_readHumidity+6
  8399  0D76  0826               	movf	?___lmul+3,w
  8400  0D77  00CB               	movwf	??_BME280_readHumidity+7
  8401  0D78  300B               	movlw	11
  8402  0D79  00CC               	movwf	??_BME280_readHumidity+8
  8403  0D7A                     u2955:	
  8404  0D7A  37CB               	asrf	??_BME280_readHumidity+7,f
  8405  0D7B  0CCA               	rrf	??_BME280_readHumidity+6,f
  8406  0D7C  0CC9               	rrf	??_BME280_readHumidity+5,f
  8407  0D7D  0CC8               	rrf	??_BME280_readHumidity+4,f
  8408  0D7E  0BCC               	decfsz	??_BME280_readHumidity+8,f
  8409  0D7F  2D7A               	goto	u2955
  8410  0D80  3000               	movlw	0
  8411  0D81  0748               	addwf	??_BME280_readHumidity+4,w
  8412  0D82  0021               	movlb	1	; select bank1
  8413  0D83  00C9               	movwf	_BME280_readHumidity$1422^(0+128)
  8414  0D84  3080               	movlw	128
  8415  0D85  0020               	movlb	0	; select bank0
  8416  0D86  3D49               	addwfc	??_BME280_readHumidity+5,w
  8417  0D87  0021               	movlb	1	; select bank1
  8418  0D88  00CA               	movwf	(_BME280_readHumidity$1422+1)^(0+128)
  8419  0D89  3000               	movlw	0
  8420  0D8A  0020               	movlb	0	; select bank0
  8421  0D8B  3D4A               	addwfc	??_BME280_readHumidity+6,w
  8422  0D8C  0021               	movlb	1	; select bank1
  8423  0D8D  00CB               	movwf	(_BME280_readHumidity$1422+2)^(0+128)
  8424  0D8E  3000               	movlw	0
  8425  0D8F  0020               	movlb	0	; select bank0
  8426  0D90  3D4B               	addwfc	??_BME280_readHumidity+7,w
  8427  0D91  0021               	movlb	1	; select bank1
  8428  0D92  00CC               	movwf	(_BME280_readHumidity$1422+3)^(0+128)
  8429                           
  8430                           ;bme280.c: 223: v_x1_u32r = (((((adc_H << 14) - (((int32_t)cal_data.dig_H4) << 20) -
  8431                           ;bme280.c: 225: (((int32_t)cal_data.dig_H5) * v_x1_u32r)) + ((int32_t)16384)) >> 15) *
  8432                           ;bme280.c: 227: (((((((v_x1_u32r * ((int32_t)cal_data.dig_H6)) >> 10) *
  8433                           ;bme280.c: 229: (((v_x1_u32r * ((int32_t)cal_data.dig_H3)) >> 11) + ((int32_t)32768))) >
      +                          > 10) +
  8434                           ;bme280.c: 231: ((int32_t)2097152)) * ((int32_t)cal_data.dig_H2) + 8192) >> 14));
  8435  0D93  085F               	movf	(_BME280_readHumidity$1421+3)^(0+128),w
  8436  0D94  0020               	movlb	0	; select bank0
  8437  0D95  00AA               	movwf	___lmul@multiplicand+3
  8438  0D96  0021               	movlb	1	; select bank1
  8439  0D97  085E               	movf	(_BME280_readHumidity$1421+2)^(0+128),w
  8440  0D98  0020               	movlb	0	; select bank0
  8441  0D99  00A9               	movwf	___lmul@multiplicand+2
  8442  0D9A  0021               	movlb	1	; select bank1
  8443  0D9B  085D               	movf	(_BME280_readHumidity$1421+1)^(0+128),w
  8444  0D9C  0020               	movlb	0	; select bank0
  8445  0D9D  00A8               	movwf	___lmul@multiplicand+1
  8446  0D9E  0021               	movlb	1	; select bank1
  8447  0D9F  085C               	movf	_BME280_readHumidity$1421^(0+128),w
  8448  0DA0  0020               	movlb	0	; select bank0
  8449  0DA1  00A7               	movwf	___lmul@multiplicand
  8450  0DA2  0021               	movlb	1	; select bank1
  8451  0DA3  084C               	movf	(_BME280_readHumidity$1422+3)^(0+128),w
  8452  0DA4  0020               	movlb	0	; select bank0
  8453  0DA5  00A6               	movwf	___lmul@multiplier+3
  8454  0DA6  0021               	movlb	1	; select bank1
  8455  0DA7  084B               	movf	(_BME280_readHumidity$1422+2)^(0+128),w
  8456  0DA8  0020               	movlb	0	; select bank0
  8457  0DA9  00A5               	movwf	___lmul@multiplier+2
  8458  0DAA  0021               	movlb	1	; select bank1
  8459  0DAB  084A               	movf	(_BME280_readHumidity$1422+1)^(0+128),w
  8460  0DAC  0020               	movlb	0	; select bank0
  8461  0DAD  00A4               	movwf	___lmul@multiplier+1
  8462  0DAE  0021               	movlb	1	; select bank1
  8463  0DAF  0849               	movf	_BME280_readHumidity$1422^(0+128),w
  8464  0DB0  0020               	movlb	0	; select bank0
  8465  0DB1  00A3               	movwf	___lmul@multiplier
  8466  0DB2  3197  27A0  318C   	fcall	___lmul
  8467  0DB5  0020               	movlb	0	; select bank0
  8468  0DB6  0823               	movf	?___lmul,w
  8469  0DB7  00C4               	movwf	??_BME280_readHumidity
  8470  0DB8  0824               	movf	?___lmul+1,w
  8471  0DB9  00C5               	movwf	??_BME280_readHumidity+1
  8472  0DBA  0825               	movf	?___lmul+2,w
  8473  0DBB  00C6               	movwf	??_BME280_readHumidity+2
  8474  0DBC  0826               	movf	?___lmul+3,w
  8475  0DBD  00C7               	movwf	??_BME280_readHumidity+3
  8476  0DBE  300A               	movlw	10
  8477  0DBF  00C8               	movwf	??_BME280_readHumidity+4
  8478  0DC0                     u2965:	
  8479  0DC0  37C7               	asrf	??_BME280_readHumidity+3,f
  8480  0DC1  0CC6               	rrf	??_BME280_readHumidity+2,f
  8481  0DC2  0CC5               	rrf	??_BME280_readHumidity+1,f
  8482  0DC3  0CC4               	rrf	??_BME280_readHumidity,f
  8483  0DC4  0BC8               	decfsz	??_BME280_readHumidity+4,f
  8484  0DC5  2DC0               	goto	u2965
  8485  0DC6  3000               	movlw	0
  8486  0DC7  0744               	addwf	??_BME280_readHumidity,w
  8487  0DC8  0021               	movlb	1	; select bank1
  8488  0DC9  00CD               	movwf	_BME280_readHumidity$1423^(0+128)
  8489  0DCA  3000               	movlw	0
  8490  0DCB  0020               	movlb	0	; select bank0
  8491  0DCC  3D45               	addwfc	??_BME280_readHumidity+1,w
  8492  0DCD  0021               	movlb	1	; select bank1
  8493  0DCE  00CE               	movwf	(_BME280_readHumidity$1423+1)^(0+128)
  8494  0DCF  3020               	movlw	32
  8495  0DD0  0020               	movlb	0	; select bank0
  8496  0DD1  3D46               	addwfc	??_BME280_readHumidity+2,w
  8497  0DD2  0021               	movlb	1	; select bank1
  8498  0DD3  00CF               	movwf	(_BME280_readHumidity$1423+2)^(0+128)
  8499  0DD4  3000               	movlw	0
  8500  0DD5  0020               	movlb	0	; select bank0
  8501  0DD6  3D47               	addwfc	??_BME280_readHumidity+3,w
  8502  0DD7  0021               	movlb	1	; select bank1
  8503  0DD8  00D0               	movwf	(_BME280_readHumidity$1423+3)^(0+128)
  8504                           
  8505                           ;bme280.c: 223: v_x1_u32r = (((((adc_H << 14) - (((int32_t)cal_data.dig_H4) << 20) -
  8506                           ;bme280.c: 225: (((int32_t)cal_data.dig_H5) * v_x1_u32r)) + ((int32_t)16384)) >> 15) *
  8507                           ;bme280.c: 227: (((((((v_x1_u32r * ((int32_t)cal_data.dig_H6)) >> 10) *
  8508                           ;bme280.c: 229: (((v_x1_u32r * ((int32_t)cal_data.dig_H3)) >> 11) + ((int32_t)32768))) >
      +                          > 10) +
  8509                           ;bme280.c: 231: ((int32_t)2097152)) * ((int32_t)cal_data.dig_H2) + 8192) >> 14));
  8510  0DD9  3000               	movlw	0
  8511  0DDA  0020               	movlb	0	; select bank0
  8512  0DDB  00C4               	movwf	??_BME280_readHumidity
  8513  0DDC  3040               	movlw	64
  8514  0DDD  00C5               	movwf	??_BME280_readHumidity+1
  8515  0DDE  3000               	movlw	0
  8516  0DDF  00C6               	movwf	??_BME280_readHumidity+2
  8517  0DE0  3000               	movlw	0
  8518  0DE1  00C7               	movwf	??_BME280_readHumidity+3
  8519  0DE2  0021               	movlb	1	; select bank1
  8520  0DE3  0863               	movf	(BME280_readHumidity@v_x1_u32r+3)^(0+128),w
  8521  0DE4  0020               	movlb	0	; select bank0
  8522  0DE5  00AA               	movwf	___lmul@multiplicand+3
  8523  0DE6  0021               	movlb	1	; select bank1
  8524  0DE7  0862               	movf	(BME280_readHumidity@v_x1_u32r+2)^(0+128),w
  8525  0DE8  0020               	movlb	0	; select bank0
  8526  0DE9  00A9               	movwf	___lmul@multiplicand+2
  8527  0DEA  0021               	movlb	1	; select bank1
  8528  0DEB  0861               	movf	(BME280_readHumidity@v_x1_u32r+1)^(0+128),w
  8529  0DEC  0020               	movlb	0	; select bank0
  8530  0DED  00A8               	movwf	___lmul@multiplicand+1
  8531  0DEE  0021               	movlb	1	; select bank1
  8532  0DEF  0860               	movf	BME280_readHumidity@v_x1_u32r^(0+128),w
  8533  0DF0  0020               	movlb	0	; select bank0
  8534  0DF1  00A7               	movwf	___lmul@multiplicand
  8535  0DF2  0021               	movlb	1	; select bank1
  8536  0DF3  0842               	movf	(_cal_data^(0+128)+30),w
  8537  0DF4  0020               	movlb	0	; select bank0
  8538  0DF5  00A3               	movwf	___lmul@multiplier
  8539  0DF6  0021               	movlb	1	; select bank1
  8540  0DF7  0843               	movf	((_cal_data+1)^(0+128)+30),w
  8541  0DF8  0020               	movlb	0	; select bank0
  8542  0DF9  00A4               	movwf	___lmul@multiplier+1
  8543  0DFA  0D89               	rlf	9,f
  8544  0DFB  3B89               	subwfb	9,f
  8545  0DFC  0989               	comf	9,f
  8546  0DFD  00A5               	movwf	___lmul@multiplier+2
  8547  0DFE  00A6               	movwf	___lmul@multiplier+3
  8548  0DFF  3197  27A0  318C   	fcall	___lmul
  8549  0E02  0020               	movlb	0	; select bank0
  8550  0E03  0923               	comf	?___lmul,w
  8551  0E04  00C8               	movwf	??_BME280_readHumidity+4
  8552  0E05  0924               	comf	?___lmul+1,w
  8553  0E06  00C9               	movwf	??_BME280_readHumidity+5
  8554  0E07  0925               	comf	?___lmul+2,w
  8555  0E08  00CA               	movwf	??_BME280_readHumidity+6
  8556  0E09  0926               	comf	?___lmul+3,w
  8557  0E0A  00CB               	movwf	??_BME280_readHumidity+7
  8558  0E0B  0AC8               	incf	??_BME280_readHumidity+4,f
  8559  0E0C  1903               	skipnz
  8560  0E0D  0AC9               	incf	??_BME280_readHumidity+5,f
  8561  0E0E  1903               	skipnz
  8562  0E0F  0ACA               	incf	??_BME280_readHumidity+6,f
  8563  0E10  1903               	skipnz
  8564  0E11  0ACB               	incf	??_BME280_readHumidity+7,f
  8565  0E12  0021               	movlb	1	; select bank1
  8566  0E13  0840               	movf	(_cal_data^(0+128)+28),w
  8567  0E14  0020               	movlb	0	; select bank0
  8568  0E15  00CC               	movwf	??_BME280_readHumidity+8
  8569  0E16  0021               	movlb	1	; select bank1
  8570  0E17  0841               	movf	((_cal_data+1)^(0+128)+28),w
  8571  0E18  0020               	movlb	0	; select bank0
  8572  0E19  00CD               	movwf	??_BME280_readHumidity+9
  8573  0E1A  01CE               	clrf	??_BME280_readHumidity+10
  8574  0E1B  01CF               	clrf	??_BME280_readHumidity+11
  8575  0E1C  3014               	movlw	20
  8576  0E1D                     u2975:	
  8577  0E1D  35CC               	lslf	??_BME280_readHumidity+8,f
  8578  0E1E  0DCD               	rlf	??_BME280_readHumidity+9,f
  8579  0E1F  0DCE               	rlf	??_BME280_readHumidity+10,f
  8580  0E20  0DCF               	rlf	??_BME280_readHumidity+11,f
  8581  0E21  0B89               	decfsz	9,f
  8582  0E22  2E1D               	goto	u2975
  8583  0E23  09CC               	comf	??_BME280_readHumidity+8,f
  8584  0E24  09CD               	comf	??_BME280_readHumidity+9,f
  8585  0E25  09CE               	comf	??_BME280_readHumidity+10,f
  8586  0E26  09CF               	comf	??_BME280_readHumidity+11,f
  8587  0E27  0ACC               	incf	??_BME280_readHumidity+8,f
  8588  0E28  1903               	skipnz
  8589  0E29  0ACD               	incf	??_BME280_readHumidity+9,f
  8590  0E2A  1903               	skipnz
  8591  0E2B  0ACE               	incf	??_BME280_readHumidity+10,f
  8592  0E2C  1903               	skipnz
  8593  0E2D  0ACF               	incf	??_BME280_readHumidity+11,f
  8594  0E2E  0021               	movlb	1	; select bank1
  8595  0E2F  0845               	movf	BME280_readHumidity@adc_H^(0+128),w
  8596  0E30  0020               	movlb	0	; select bank0
  8597  0E31  00D0               	movwf	??_BME280_readHumidity+12
  8598  0E32  0021               	movlb	1	; select bank1
  8599  0E33  0846               	movf	(BME280_readHumidity@adc_H+1)^(0+128),w
  8600  0E34  0020               	movlb	0	; select bank0
  8601  0E35  00D1               	movwf	??_BME280_readHumidity+13
  8602  0E36  0021               	movlb	1	; select bank1
  8603  0E37  0847               	movf	(BME280_readHumidity@adc_H+2)^(0+128),w
  8604  0E38  0020               	movlb	0	; select bank0
  8605  0E39  00D2               	movwf	??_BME280_readHumidity+14
  8606  0E3A  0021               	movlb	1	; select bank1
  8607  0E3B  0848               	movf	(BME280_readHumidity@adc_H+3)^(0+128),w
  8608  0E3C  0020               	movlb	0	; select bank0
  8609  0E3D  00D3               	movwf	??_BME280_readHumidity+15
  8610  0E3E  300E               	movlw	14
  8611  0E3F                     u2985:	
  8612  0E3F  35D0               	lslf	??_BME280_readHumidity+12,f
  8613  0E40  0DD1               	rlf	??_BME280_readHumidity+13,f
  8614  0E41  0DD2               	rlf	??_BME280_readHumidity+14,f
  8615  0E42  0DD3               	rlf	??_BME280_readHumidity+15,f
  8616  0E43  0B89               	decfsz	9,f
  8617  0E44  2E3F               	goto	u2985
  8618  0E45  0850               	movf	??_BME280_readHumidity+12,w
  8619  0E46  07CC               	addwf	??_BME280_readHumidity+8,f
  8620  0E47  0851               	movf	??_BME280_readHumidity+13,w
  8621  0E48  3DCD               	addwfc	??_BME280_readHumidity+9,f
  8622  0E49  0852               	movf	??_BME280_readHumidity+14,w
  8623  0E4A  3DCE               	addwfc	??_BME280_readHumidity+10,f
  8624  0E4B  0853               	movf	??_BME280_readHumidity+15,w
  8625  0E4C  3DCF               	addwfc	??_BME280_readHumidity+11,f
  8626  0E4D  084C               	movf	??_BME280_readHumidity+8,w
  8627  0E4E  07C8               	addwf	??_BME280_readHumidity+4,f
  8628  0E4F  084D               	movf	??_BME280_readHumidity+9,w
  8629  0E50  3DC9               	addwfc	??_BME280_readHumidity+5,f
  8630  0E51  084E               	movf	??_BME280_readHumidity+10,w
  8631  0E52  3DCA               	addwfc	??_BME280_readHumidity+6,f
  8632  0E53  084F               	movf	??_BME280_readHumidity+11,w
  8633  0E54  3DCB               	addwfc	??_BME280_readHumidity+7,f
  8634  0E55  0848               	movf	??_BME280_readHumidity+4,w
  8635  0E56  07C4               	addwf	??_BME280_readHumidity,f
  8636  0E57  0849               	movf	??_BME280_readHumidity+5,w
  8637  0E58  3DC5               	addwfc	??_BME280_readHumidity+1,f
  8638  0E59  084A               	movf	??_BME280_readHumidity+6,w
  8639  0E5A  3DC6               	addwfc	??_BME280_readHumidity+2,f
  8640  0E5B  084B               	movf	??_BME280_readHumidity+7,w
  8641  0E5C  3DC7               	addwfc	??_BME280_readHumidity+3,f
  8642  0E5D  300F               	movlw	15
  8643  0E5E  00D4               	movwf	??_BME280_readHumidity+16
  8644  0E5F                     u2995:	
  8645  0E5F  37C7               	asrf	??_BME280_readHumidity+3,f
  8646  0E60  0CC6               	rrf	??_BME280_readHumidity+2,f
  8647  0E61  0CC5               	rrf	??_BME280_readHumidity+1,f
  8648  0E62  0CC4               	rrf	??_BME280_readHumidity,f
  8649  0E63  0BD4               	decfsz	??_BME280_readHumidity+16,f
  8650  0E64  2E5F               	goto	u2995
  8651  0E65  0847               	movf	??_BME280_readHumidity+3,w
  8652  0E66  0021               	movlb	1	; select bank1
  8653  0E67  00D4               	movwf	(_BME280_readHumidity$1424+3)^(0+128)
  8654  0E68  0020               	movlb	0	; select bank0
  8655  0E69  0846               	movf	??_BME280_readHumidity+2,w
  8656  0E6A  0021               	movlb	1	; select bank1
  8657  0E6B  00D3               	movwf	(_BME280_readHumidity$1424+2)^(0+128)
  8658  0E6C  0020               	movlb	0	; select bank0
  8659  0E6D  0845               	movf	??_BME280_readHumidity+1,w
  8660  0E6E  0021               	movlb	1	; select bank1
  8661  0E6F  00D2               	movwf	(_BME280_readHumidity$1424+1)^(0+128)
  8662  0E70  0020               	movlb	0	; select bank0
  8663  0E71  0844               	movf	??_BME280_readHumidity,w
  8664  0E72  0021               	movlb	1	; select bank1
  8665  0E73  00D1               	movwf	_BME280_readHumidity$1424^(0+128)
  8666                           
  8667                           ;bme280.c: 223: v_x1_u32r = (((((adc_H << 14) - (((int32_t)cal_data.dig_H4) << 20) -
  8668                           ;bme280.c: 225: (((int32_t)cal_data.dig_H5) * v_x1_u32r)) + ((int32_t)16384)) >> 15) *
  8669                           ;bme280.c: 227: (((((((v_x1_u32r * ((int32_t)cal_data.dig_H6)) >> 10) *
  8670                           ;bme280.c: 229: (((v_x1_u32r * ((int32_t)cal_data.dig_H3)) >> 11) + ((int32_t)32768))) >
      +                          > 10) +
  8671                           ;bme280.c: 231: ((int32_t)2097152)) * ((int32_t)cal_data.dig_H2) + 8192) >> 14));
  8672  0E74  3000               	movlw	0
  8673  0E75  0020               	movlb	0	; select bank0
  8674  0E76  00C4               	movwf	??_BME280_readHumidity
  8675  0E77  3020               	movlw	32
  8676  0E78  00C5               	movwf	??_BME280_readHumidity+1
  8677  0E79  3000               	movlw	0
  8678  0E7A  00C6               	movwf	??_BME280_readHumidity+2
  8679  0E7B  3000               	movlw	0
  8680  0E7C  00C7               	movwf	??_BME280_readHumidity+3
  8681  0E7D  0021               	movlb	1	; select bank1
  8682  0E7E  083D               	movf	(_cal_data^(0+128)+25),w
  8683  0E7F  0020               	movlb	0	; select bank0
  8684  0E80  00A7               	movwf	___lmul@multiplicand
  8685  0E81  0021               	movlb	1	; select bank1
  8686  0E82  083E               	movf	((_cal_data+1)^(0+128)+25),w
  8687  0E83  0020               	movlb	0	; select bank0
  8688  0E84  00A8               	movwf	___lmul@multiplicand+1
  8689  0E85  0D89               	rlf	9,f
  8690  0E86  3B89               	subwfb	9,f
  8691  0E87  0989               	comf	9,f
  8692  0E88  00A9               	movwf	___lmul@multiplicand+2
  8693  0E89  00AA               	movwf	___lmul@multiplicand+3
  8694  0E8A  0021               	movlb	1	; select bank1
  8695  0E8B  0850               	movf	(_BME280_readHumidity$1423+3)^(0+128),w
  8696  0E8C  0020               	movlb	0	; select bank0
  8697  0E8D  00A6               	movwf	___lmul@multiplier+3
  8698  0E8E  0021               	movlb	1	; select bank1
  8699  0E8F  084F               	movf	(_BME280_readHumidity$1423+2)^(0+128),w
  8700  0E90  0020               	movlb	0	; select bank0
  8701  0E91  00A5               	movwf	___lmul@multiplier+2
  8702  0E92  0021               	movlb	1	; select bank1
  8703  0E93  084E               	movf	(_BME280_readHumidity$1423+1)^(0+128),w
  8704  0E94  0020               	movlb	0	; select bank0
  8705  0E95  00A4               	movwf	___lmul@multiplier+1
  8706  0E96  0021               	movlb	1	; select bank1
  8707  0E97  084D               	movf	_BME280_readHumidity$1423^(0+128),w
  8708  0E98  0020               	movlb	0	; select bank0
  8709  0E99  00A3               	movwf	___lmul@multiplier
  8710  0E9A  3197  27A0  318C   	fcall	___lmul
  8711  0E9D  0020               	movlb	0	; select bank0
  8712  0E9E  0823               	movf	?___lmul,w
  8713  0E9F  07C4               	addwf	??_BME280_readHumidity,f
  8714  0EA0  0824               	movf	?___lmul+1,w
  8715  0EA1  3DC5               	addwfc	??_BME280_readHumidity+1,f
  8716  0EA2  0825               	movf	?___lmul+2,w
  8717  0EA3  3DC6               	addwfc	??_BME280_readHumidity+2,f
  8718  0EA4  0826               	movf	?___lmul+3,w
  8719  0EA5  3DC7               	addwfc	??_BME280_readHumidity+3,f
  8720  0EA6  300E               	movlw	14
  8721  0EA7  00C8               	movwf	??_BME280_readHumidity+4
  8722  0EA8                     u3005:	
  8723  0EA8  37C7               	asrf	??_BME280_readHumidity+3,f
  8724  0EA9  0CC6               	rrf	??_BME280_readHumidity+2,f
  8725  0EAA  0CC5               	rrf	??_BME280_readHumidity+1,f
  8726  0EAB  0CC4               	rrf	??_BME280_readHumidity,f
  8727  0EAC  0BC8               	decfsz	??_BME280_readHumidity+4,f
  8728  0EAD  2EA8               	goto	u3005
  8729  0EAE  0847               	movf	??_BME280_readHumidity+3,w
  8730  0EAF  0021               	movlb	1	; select bank1
  8731  0EB0  00D8               	movwf	(_BME280_readHumidity$1425+3)^(0+128)
  8732  0EB1  0020               	movlb	0	; select bank0
  8733  0EB2  0846               	movf	??_BME280_readHumidity+2,w
  8734  0EB3  0021               	movlb	1	; select bank1
  8735  0EB4  00D7               	movwf	(_BME280_readHumidity$1425+2)^(0+128)
  8736  0EB5  0020               	movlb	0	; select bank0
  8737  0EB6  0845               	movf	??_BME280_readHumidity+1,w
  8738  0EB7  0021               	movlb	1	; select bank1
  8739  0EB8  00D6               	movwf	(_BME280_readHumidity$1425+1)^(0+128)
  8740  0EB9  0020               	movlb	0	; select bank0
  8741  0EBA  0844               	movf	??_BME280_readHumidity,w
  8742  0EBB  0021               	movlb	1	; select bank1
  8743  0EBC  00D5               	movwf	_BME280_readHumidity$1425^(0+128)
  8744                           
  8745                           ;bme280.c: 223: v_x1_u32r = (((((adc_H << 14) - (((int32_t)cal_data.dig_H4) << 20) -
  8746                           ;bme280.c: 225: (((int32_t)cal_data.dig_H5) * v_x1_u32r)) + ((int32_t)16384)) >> 15) *
  8747                           ;bme280.c: 227: (((((((v_x1_u32r * ((int32_t)cal_data.dig_H6)) >> 10) *
  8748                           ;bme280.c: 229: (((v_x1_u32r * ((int32_t)cal_data.dig_H3)) >> 11) + ((int32_t)32768))) >
      +                          > 10) +
  8749                           ;bme280.c: 231: ((int32_t)2097152)) * ((int32_t)cal_data.dig_H2) + 8192) >> 14));
  8750  0EBD  0854               	movf	(_BME280_readHumidity$1424+3)^(0+128),w
  8751  0EBE  0020               	movlb	0	; select bank0
  8752  0EBF  00A6               	movwf	___lmul@multiplier+3
  8753  0EC0  0021               	movlb	1	; select bank1
  8754  0EC1  0853               	movf	(_BME280_readHumidity$1424+2)^(0+128),w
  8755  0EC2  0020               	movlb	0	; select bank0
  8756  0EC3  00A5               	movwf	___lmul@multiplier+2
  8757  0EC4  0021               	movlb	1	; select bank1
  8758  0EC5  0852               	movf	(_BME280_readHumidity$1424+1)^(0+128),w
  8759  0EC6  0020               	movlb	0	; select bank0
  8760  0EC7  00A4               	movwf	___lmul@multiplier+1
  8761  0EC8  0021               	movlb	1	; select bank1
  8762  0EC9  0851               	movf	_BME280_readHumidity$1424^(0+128),w
  8763  0ECA  0020               	movlb	0	; select bank0
  8764  0ECB  00A3               	movwf	___lmul@multiplier
  8765  0ECC  0021               	movlb	1	; select bank1
  8766  0ECD  0858               	movf	(_BME280_readHumidity$1425+3)^(0+128),w
  8767  0ECE  0020               	movlb	0	; select bank0
  8768  0ECF  00AA               	movwf	___lmul@multiplicand+3
  8769  0ED0  0021               	movlb	1	; select bank1
  8770  0ED1  0857               	movf	(_BME280_readHumidity$1425+2)^(0+128),w
  8771  0ED2  0020               	movlb	0	; select bank0
  8772  0ED3  00A9               	movwf	___lmul@multiplicand+2
  8773  0ED4  0021               	movlb	1	; select bank1
  8774  0ED5  0856               	movf	(_BME280_readHumidity$1425+1)^(0+128),w
  8775  0ED6  0020               	movlb	0	; select bank0
  8776  0ED7  00A8               	movwf	___lmul@multiplicand+1
  8777  0ED8  0021               	movlb	1	; select bank1
  8778  0ED9  0855               	movf	_BME280_readHumidity$1425^(0+128),w
  8779  0EDA  0020               	movlb	0	; select bank0
  8780  0EDB  00A7               	movwf	___lmul@multiplicand
  8781  0EDC  3197  27A0  318C   	fcall	___lmul
  8782  0EDF  0020               	movlb	0	; select bank0
  8783  0EE0  0826               	movf	?___lmul+3,w
  8784  0EE1  0021               	movlb	1	; select bank1
  8785  0EE2  00E3               	movwf	(BME280_readHumidity@v_x1_u32r+3)^(0+128)
  8786  0EE3  0020               	movlb	0	; select bank0
  8787  0EE4  0825               	movf	?___lmul+2,w
  8788  0EE5  0021               	movlb	1	; select bank1
  8789  0EE6  00E2               	movwf	(BME280_readHumidity@v_x1_u32r+2)^(0+128)
  8790  0EE7  0020               	movlb	0	; select bank0
  8791  0EE8  0824               	movf	?___lmul+1,w
  8792  0EE9  0021               	movlb	1	; select bank1
  8793  0EEA  00E1               	movwf	(BME280_readHumidity@v_x1_u32r+1)^(0+128)
  8794  0EEB  0020               	movlb	0	; select bank0
  8795  0EEC  0823               	movf	?___lmul,w
  8796  0EED  0021               	movlb	1	; select bank1
  8797  0EEE  00E0               	movwf	BME280_readHumidity@v_x1_u32r^(0+128)
  8798                           
  8799                           ;bme280.c: 234: v_x1_u32r = (v_x1_u32r - (((((v_x1_u32r >> 15) * (v_x1_u32r >> 15)) >> 7
      +                          ) *
  8800                           ;bme280.c: 236: ((int32_t)cal_data.dig_H1)) >> 4));
  8801  0EEF  0860               	movf	BME280_readHumidity@v_x1_u32r^(0+128),w
  8802  0EF0  0020               	movlb	0	; select bank0
  8803  0EF1  00C4               	movwf	??_BME280_readHumidity
  8804  0EF2  0021               	movlb	1	; select bank1
  8805  0EF3  0861               	movf	(BME280_readHumidity@v_x1_u32r+1)^(0+128),w
  8806  0EF4  0020               	movlb	0	; select bank0
  8807  0EF5  00C5               	movwf	??_BME280_readHumidity+1
  8808  0EF6  0021               	movlb	1	; select bank1
  8809  0EF7  0862               	movf	(BME280_readHumidity@v_x1_u32r+2)^(0+128),w
  8810  0EF8  0020               	movlb	0	; select bank0
  8811  0EF9  00C6               	movwf	??_BME280_readHumidity+2
  8812  0EFA  0021               	movlb	1	; select bank1
  8813  0EFB  0863               	movf	(BME280_readHumidity@v_x1_u32r+3)^(0+128),w
  8814  0EFC  0020               	movlb	0	; select bank0
  8815  0EFD  00C7               	movwf	??_BME280_readHumidity+3
  8816  0EFE  300F               	movlw	15
  8817  0EFF  00C8               	movwf	??_BME280_readHumidity+4
  8818  0F00                     u3015:	
  8819  0F00  37C7               	asrf	??_BME280_readHumidity+3,f
  8820  0F01  0CC6               	rrf	??_BME280_readHumidity+2,f
  8821  0F02  0CC5               	rrf	??_BME280_readHumidity+1,f
  8822  0F03  0CC4               	rrf	??_BME280_readHumidity,f
  8823  0F04  0BC8               	decfsz	??_BME280_readHumidity+4,f
  8824  0F05  2F00               	goto	u3015
  8825  0F06  0847               	movf	??_BME280_readHumidity+3,w
  8826  0F07  00AA               	movwf	___lmul@multiplicand+3
  8827  0F08  0846               	movf	??_BME280_readHumidity+2,w
  8828  0F09  00A9               	movwf	___lmul@multiplicand+2
  8829  0F0A  0845               	movf	??_BME280_readHumidity+1,w
  8830  0F0B  00A8               	movwf	___lmul@multiplicand+1
  8831  0F0C  0844               	movf	??_BME280_readHumidity,w
  8832  0F0D  00A7               	movwf	___lmul@multiplicand
  8833  0F0E  0021               	movlb	1	; select bank1
  8834  0F0F  0860               	movf	BME280_readHumidity@v_x1_u32r^(0+128),w
  8835  0F10  0020               	movlb	0	; select bank0
  8836  0F11  00C9               	movwf	??_BME280_readHumidity+5
  8837  0F12  0021               	movlb	1	; select bank1
  8838  0F13  0861               	movf	(BME280_readHumidity@v_x1_u32r+1)^(0+128),w
  8839  0F14  0020               	movlb	0	; select bank0
  8840  0F15  00CA               	movwf	??_BME280_readHumidity+6
  8841  0F16  0021               	movlb	1	; select bank1
  8842  0F17  0862               	movf	(BME280_readHumidity@v_x1_u32r+2)^(0+128),w
  8843  0F18  0020               	movlb	0	; select bank0
  8844  0F19  00CB               	movwf	??_BME280_readHumidity+7
  8845  0F1A  0021               	movlb	1	; select bank1
  8846  0F1B  0863               	movf	(BME280_readHumidity@v_x1_u32r+3)^(0+128),w
  8847  0F1C  0020               	movlb	0	; select bank0
  8848  0F1D  00CC               	movwf	??_BME280_readHumidity+8
  8849  0F1E  300F               	movlw	15
  8850  0F1F  00CD               	movwf	??_BME280_readHumidity+9
  8851  0F20                     u3025:	
  8852  0F20  37CC               	asrf	??_BME280_readHumidity+8,f
  8853  0F21  0CCB               	rrf	??_BME280_readHumidity+7,f
  8854  0F22  0CCA               	rrf	??_BME280_readHumidity+6,f
  8855  0F23  0CC9               	rrf	??_BME280_readHumidity+5,f
  8856  0F24  0BCD               	decfsz	??_BME280_readHumidity+9,f
  8857  0F25  2F20               	goto	u3025
  8858  0F26  084C               	movf	??_BME280_readHumidity+8,w
  8859  0F27  00A6               	movwf	___lmul@multiplier+3
  8860  0F28  084B               	movf	??_BME280_readHumidity+7,w
  8861  0F29  00A5               	movwf	___lmul@multiplier+2
  8862  0F2A  084A               	movf	??_BME280_readHumidity+6,w
  8863  0F2B  00A4               	movwf	___lmul@multiplier+1
  8864  0F2C  0849               	movf	??_BME280_readHumidity+5,w
  8865  0F2D  00A3               	movwf	___lmul@multiplier
  8866  0F2E  3197  27A0  318C   	fcall	___lmul
  8867  0F31  0020               	movlb	0	; select bank0
  8868  0F32  0823               	movf	?___lmul,w
  8869  0F33  00CE               	movwf	??_BME280_readHumidity+10
  8870  0F34  0824               	movf	?___lmul+1,w
  8871  0F35  00CF               	movwf	??_BME280_readHumidity+11
  8872  0F36  0825               	movf	?___lmul+2,w
  8873  0F37  00D0               	movwf	??_BME280_readHumidity+12
  8874  0F38  0826               	movf	?___lmul+3,w
  8875  0F39  00D1               	movwf	??_BME280_readHumidity+13
  8876  0F3A  3007               	movlw	7
  8877  0F3B  00D2               	movwf	??_BME280_readHumidity+14
  8878  0F3C                     u3035:	
  8879  0F3C  37D1               	asrf	??_BME280_readHumidity+13,f
  8880  0F3D  0CD0               	rrf	??_BME280_readHumidity+12,f
  8881  0F3E  0CCF               	rrf	??_BME280_readHumidity+11,f
  8882  0F3F  0CCE               	rrf	??_BME280_readHumidity+10,f
  8883  0F40  0BD2               	decfsz	??_BME280_readHumidity+14,f
  8884  0F41  2F3C               	goto	u3035
  8885  0F42  0851               	movf	??_BME280_readHumidity+13,w
  8886  0F43  0021               	movlb	1	; select bank1
  8887  0F44  00DF               	movwf	(_BME280_readHumidity$1421+3)^(0+128)
  8888  0F45  0020               	movlb	0	; select bank0
  8889  0F46  0850               	movf	??_BME280_readHumidity+12,w
  8890  0F47  0021               	movlb	1	; select bank1
  8891  0F48  00DE               	movwf	(_BME280_readHumidity$1421+2)^(0+128)
  8892  0F49  0020               	movlb	0	; select bank0
  8893  0F4A  084F               	movf	??_BME280_readHumidity+11,w
  8894  0F4B  0021               	movlb	1	; select bank1
  8895  0F4C  00DD               	movwf	(_BME280_readHumidity$1421+1)^(0+128)
  8896  0F4D  0020               	movlb	0	; select bank0
  8897  0F4E  084E               	movf	??_BME280_readHumidity+10,w
  8898  0F4F  0021               	movlb	1	; select bank1
  8899  0F50  00DC               	movwf	_BME280_readHumidity$1421^(0+128)
  8900                           
  8901                           ;bme280.c: 234: v_x1_u32r = (v_x1_u32r - (((((v_x1_u32r >> 15) * (v_x1_u32r >> 15)) >> 7
      +                          ) *
  8902                           ;bme280.c: 236: ((int32_t)cal_data.dig_H1)) >> 4));
  8903  0F51  0860               	movf	BME280_readHumidity@v_x1_u32r^(0+128),w
  8904  0F52  0020               	movlb	0	; select bank0
  8905  0F53  00C4               	movwf	??_BME280_readHumidity
  8906  0F54  0021               	movlb	1	; select bank1
  8907  0F55  0861               	movf	(BME280_readHumidity@v_x1_u32r+1)^(0+128),w
  8908  0F56  0020               	movlb	0	; select bank0
  8909  0F57  00C5               	movwf	??_BME280_readHumidity+1
  8910  0F58  0021               	movlb	1	; select bank1
  8911  0F59  0862               	movf	(BME280_readHumidity@v_x1_u32r+2)^(0+128),w
  8912  0F5A  0020               	movlb	0	; select bank0
  8913  0F5B  00C6               	movwf	??_BME280_readHumidity+2
  8914  0F5C  0021               	movlb	1	; select bank1
  8915  0F5D  0863               	movf	(BME280_readHumidity@v_x1_u32r+3)^(0+128),w
  8916  0F5E  0020               	movlb	0	; select bank0
  8917  0F5F  00C7               	movwf	??_BME280_readHumidity+3
  8918  0F60  0021               	movlb	1	; select bank1
  8919  0F61  085F               	movf	(_BME280_readHumidity$1421+3)^(0+128),w
  8920  0F62  0020               	movlb	0	; select bank0
  8921  0F63  00A6               	movwf	___lmul@multiplier+3
  8922  0F64  0021               	movlb	1	; select bank1
  8923  0F65  085E               	movf	(_BME280_readHumidity$1421+2)^(0+128),w
  8924  0F66  0020               	movlb	0	; select bank0
  8925  0F67  00A5               	movwf	___lmul@multiplier+2
  8926  0F68  0021               	movlb	1	; select bank1
  8927  0F69  085D               	movf	(_BME280_readHumidity$1421+1)^(0+128),w
  8928  0F6A  0020               	movlb	0	; select bank0
  8929  0F6B  00A4               	movwf	___lmul@multiplier+1
  8930  0F6C  0021               	movlb	1	; select bank1
  8931  0F6D  085C               	movf	_BME280_readHumidity$1421^(0+128),w
  8932  0F6E  0020               	movlb	0	; select bank0
  8933  0F6F  00A3               	movwf	___lmul@multiplier
  8934  0F70  0021               	movlb	1	; select bank1
  8935  0F71  083C               	movf	(_cal_data^(0+128)+24),w
  8936  0F72  0020               	movlb	0	; select bank0
  8937  0F73  00C8               	movwf	??_BME280_readHumidity+4
  8938  0F74  01C9               	clrf	??_BME280_readHumidity+5
  8939  0F75  01CA               	clrf	??_BME280_readHumidity+6
  8940  0F76  01CB               	clrf	??_BME280_readHumidity+7
  8941  0F77  084B               	movf	??_BME280_readHumidity+7,w
  8942  0F78  00AA               	movwf	___lmul@multiplicand+3
  8943  0F79  084A               	movf	??_BME280_readHumidity+6,w
  8944  0F7A  00A9               	movwf	___lmul@multiplicand+2
  8945  0F7B  0849               	movf	??_BME280_readHumidity+5,w
  8946  0F7C  00A8               	movwf	___lmul@multiplicand+1
  8947  0F7D  0848               	movf	??_BME280_readHumidity+4,w
  8948  0F7E  00A7               	movwf	___lmul@multiplicand
  8949  0F7F  3197  27A0  318C   	fcall	___lmul
  8950  0F82  0020               	movlb	0	; select bank0
  8951  0F83  0823               	movf	?___lmul,w
  8952  0F84  00CC               	movwf	??_BME280_readHumidity+8
  8953  0F85  0824               	movf	?___lmul+1,w
  8954  0F86  00CD               	movwf	??_BME280_readHumidity+9
  8955  0F87  0825               	movf	?___lmul+2,w
  8956  0F88  00CE               	movwf	??_BME280_readHumidity+10
  8957  0F89  0826               	movf	?___lmul+3,w
  8958  0F8A  00CF               	movwf	??_BME280_readHumidity+11
  8959  0F8B  3004               	movlw	4
  8960  0F8C  00D0               	movwf	??_BME280_readHumidity+12
  8961  0F8D                     u3045:	
  8962  0F8D  37CF               	asrf	??_BME280_readHumidity+11,f
  8963  0F8E  0CCE               	rrf	??_BME280_readHumidity+10,f
  8964  0F8F  0CCD               	rrf	??_BME280_readHumidity+9,f
  8965  0F90  0CCC               	rrf	??_BME280_readHumidity+8,f
  8966  0F91  0BD0               	decfsz	??_BME280_readHumidity+12,f
  8967  0F92  2F8D               	goto	u3045
  8968  0F93  09CC               	comf	??_BME280_readHumidity+8,f
  8969  0F94  09CD               	comf	??_BME280_readHumidity+9,f
  8970  0F95  09CE               	comf	??_BME280_readHumidity+10,f
  8971  0F96  09CF               	comf	??_BME280_readHumidity+11,f
  8972  0F97  0ACC               	incf	??_BME280_readHumidity+8,f
  8973  0F98  1903               	skipnz
  8974  0F99  0ACD               	incf	??_BME280_readHumidity+9,f
  8975  0F9A  1903               	skipnz
  8976  0F9B  0ACE               	incf	??_BME280_readHumidity+10,f
  8977  0F9C  1903               	skipnz
  8978  0F9D  0ACF               	incf	??_BME280_readHumidity+11,f
  8979  0F9E  084C               	movf	??_BME280_readHumidity+8,w
  8980  0F9F  07C4               	addwf	??_BME280_readHumidity,f
  8981  0FA0  084D               	movf	??_BME280_readHumidity+9,w
  8982  0FA1  3DC5               	addwfc	??_BME280_readHumidity+1,f
  8983  0FA2  084E               	movf	??_BME280_readHumidity+10,w
  8984  0FA3  3DC6               	addwfc	??_BME280_readHumidity+2,f
  8985  0FA4  084F               	movf	??_BME280_readHumidity+11,w
  8986  0FA5  3DC7               	addwfc	??_BME280_readHumidity+3,f
  8987  0FA6  0847               	movf	??_BME280_readHumidity+3,w
  8988  0FA7  0021               	movlb	1	; select bank1
  8989  0FA8  00E3               	movwf	(BME280_readHumidity@v_x1_u32r+3)^(0+128)
  8990  0FA9  0020               	movlb	0	; select bank0
  8991  0FAA  0846               	movf	??_BME280_readHumidity+2,w
  8992  0FAB  0021               	movlb	1	; select bank1
  8993  0FAC  00E2               	movwf	(BME280_readHumidity@v_x1_u32r+2)^(0+128)
  8994  0FAD  0020               	movlb	0	; select bank0
  8995  0FAE  0845               	movf	??_BME280_readHumidity+1,w
  8996  0FAF  0021               	movlb	1	; select bank1
  8997  0FB0  00E1               	movwf	(BME280_readHumidity@v_x1_u32r+1)^(0+128)
  8998  0FB1  0020               	movlb	0	; select bank0
  8999  0FB2  0844               	movf	??_BME280_readHumidity,w
  9000  0FB3  0021               	movlb	1	; select bank1
  9001  0FB4  00E0               	movwf	BME280_readHumidity@v_x1_u32r^(0+128)
  9002                           
  9003                           ;bme280.c: 243: float h = (v_x1_u32r>>12);
  9004  0FB5  0860               	movf	BME280_readHumidity@v_x1_u32r^(0+128),w
  9005  0FB6  0020               	movlb	0	; select bank0
  9006  0FB7  00C4               	movwf	??_BME280_readHumidity
  9007  0FB8  0021               	movlb	1	; select bank1
  9008  0FB9  0861               	movf	(BME280_readHumidity@v_x1_u32r+1)^(0+128),w
  9009  0FBA  0020               	movlb	0	; select bank0
  9010  0FBB  00C5               	movwf	??_BME280_readHumidity+1
  9011  0FBC  0021               	movlb	1	; select bank1
  9012  0FBD  0862               	movf	(BME280_readHumidity@v_x1_u32r+2)^(0+128),w
  9013  0FBE  0020               	movlb	0	; select bank0
  9014  0FBF  00C6               	movwf	??_BME280_readHumidity+2
  9015  0FC0  0021               	movlb	1	; select bank1
  9016  0FC1  0863               	movf	(BME280_readHumidity@v_x1_u32r+3)^(0+128),w
  9017  0FC2  0020               	movlb	0	; select bank0
  9018  0FC3  00C7               	movwf	??_BME280_readHumidity+3
  9019  0FC4  300C               	movlw	12
  9020  0FC5  00C8               	movwf	??_BME280_readHumidity+4
  9021  0FC6                     u3055:	
  9022  0FC6  37C7               	asrf	??_BME280_readHumidity+3,f
  9023  0FC7  0CC6               	rrf	??_BME280_readHumidity+2,f
  9024  0FC8  0CC5               	rrf	??_BME280_readHumidity+1,f
  9025  0FC9  0CC4               	rrf	??_BME280_readHumidity,f
  9026  0FCA  0BC8               	decfsz	??_BME280_readHumidity+4,f
  9027  0FCB  2FC6               	goto	u3055
  9028  0FCC  0847               	movf	??_BME280_readHumidity+3,w
  9029  0FCD  00B2               	movwf	___altoft@c+3
  9030  0FCE  0846               	movf	??_BME280_readHumidity+2,w
  9031  0FCF  00B1               	movwf	___altoft@c+2
  9032  0FD0  0845               	movf	??_BME280_readHumidity+1,w
  9033  0FD1  00B0               	movwf	___altoft@c+1
  9034  0FD2  0844               	movf	??_BME280_readHumidity,w
  9035  0FD3  00AF               	movwf	___altoft@c
  9036  0FD4  3187  27C3  318C   	fcall	___altoft
  9037  0FD7  0020               	movlb	0	; select bank0
  9038  0FD8  082F               	movf	?___altoft,w
  9039  0FD9  0021               	movlb	1	; select bank1
  9040  0FDA  00D9               	movwf	BME280_readHumidity@h^(0+128)
  9041  0FDB  0020               	movlb	0	; select bank0
  9042  0FDC  0830               	movf	?___altoft+1,w
  9043  0FDD  0021               	movlb	1	; select bank1
  9044  0FDE  00DA               	movwf	(BME280_readHumidity@h+1)^(0+128)
  9045  0FDF  0020               	movlb	0	; select bank0
  9046  0FE0  0831               	movf	?___altoft+2,w
  9047  0FE1  0021               	movlb	1	; select bank1
  9048  0FE2  00DB               	movwf	(BME280_readHumidity@h+2)^(0+128)
  9049                           
  9050                           ;bme280.c: 245: return (h / 1024.0);
  9051  0FE3  3000               	movlw	0
  9052  0FE4  0020               	movlb	0	; select bank0
  9053  0FE5  00B1               	movwf	___ftdiv@f2
  9054  0FE6  3080               	movlw	128
  9055  0FE7  00B2               	movwf	___ftdiv@f2+1
  9056  0FE8  3044               	movlw	68
  9057  0FE9  00B3               	movwf	___ftdiv@f2+2
  9058  0FEA  0021               	movlb	1	; select bank1
  9059  0FEB  0859               	movf	BME280_readHumidity@h^(0+128),w
  9060  0FEC  0020               	movlb	0	; select bank0
  9061  0FED  00B4               	movwf	___ftdiv@f1
  9062  0FEE  0021               	movlb	1	; select bank1
  9063  0FEF  085A               	movf	(BME280_readHumidity@h+1)^(0+128),w
  9064  0FF0  0020               	movlb	0	; select bank0
  9065  0FF1  00B5               	movwf	___ftdiv@f1+1
  9066  0FF2  0021               	movlb	1	; select bank1
  9067  0FF3  085B               	movf	(BME280_readHumidity@h+2)^(0+128),w
  9068  0FF4  0020               	movlb	0	; select bank0
  9069  0FF5  00B6               	movwf	___ftdiv@f1+2
  9070  0FF6  3187  271A         	fcall	___ftdiv
  9071  0FF8  0020               	movlb	0	; select bank0
  9072  0FF9  0831               	movf	?___ftdiv,w
  9073  0FFA  00C1               	movwf	?_BME280_readHumidity
  9074  0FFB  0832               	movf	?___ftdiv+1,w
  9075  0FFC  00C2               	movwf	?_BME280_readHumidity+1
  9076  0FFD  0833               	movf	?___ftdiv+2,w
  9077  0FFE  00C3               	movwf	?_BME280_readHumidity+2
  9078  0FFF  0008               	return
  9079  1000                     __end_of_BME280_readHumidity:	
  9080                           
  9081                           	psect	text27
  9082  17A0                     __ptext27:	
  9083 ;; *************** function ___lmul *****************
  9084 ;; Defined at:
  9085 ;;		line 15 in file "/opt/microchip/xc8/v1.45/sources/common/Umul32.c"
  9086 ;; Parameters:    Size  Location     Type
  9087 ;;  multiplier      4    3[BANK0 ] unsigned long 
  9088 ;;  multiplicand    4    7[BANK0 ] unsigned long 
  9089 ;; Auto vars:     Size  Location     Type
  9090 ;;  product         4   11[BANK0 ] unsigned long 
  9091 ;; Return value:  Size  Location     Type
  9092 ;;                  4    3[BANK0 ] unsigned long 
  9093 ;; Registers used:
  9094 ;;		wreg, status,2, status,0
  9095 ;; Tracked objects:
  9096 ;;		On entry : 0/0
  9097 ;;		On exit  : 0/0
  9098 ;;		Unchanged: 0/0
  9099 ;; Data sizes:     COMMON   BANK0   BANK1   BANK2   BANK3   BANK4   BANK5   BANK6   BANK7   BANK8   BANK9  BANK10  BANK1
      +1  BANK12
  9100 ;;      Params:         0       8       0       0       0       0       0       0       0       0       0       0       
      +0       0
  9101 ;;      Locals:         0       4       0       0       0       0       0       0       0       0       0       0       
      +0       0
  9102 ;;      Temps:          0       0       0       0       0       0       0       0       0       0       0       0       
      +0       0
  9103 ;;      Totals:         0      12       0       0       0       0       0       0       0       0       0       0       
      +0       0
  9104 ;;Total ram usage:       12 bytes
  9105 ;; Hardware stack levels used:    1
  9106 ;; Hardware stack levels required when called:    5
  9107 ;; This function calls:
  9108 ;;		Nothing
  9109 ;; This function is called by:
  9110 ;;		_BME280_readTemperature
  9111 ;;		_BME280_readHumidity
  9112 ;;		_BME280_readPressure
  9113 ;; This function uses a non-reentrant model
  9114 ;;
  9115                           
  9116                           
  9117                           ;psect for function ___lmul
  9118  17A0                     ___lmul:	
  9119                           
  9120                           ;incstack = 0
  9121                           ; Regs used in ___lmul: [wreg+status,2+status,0]
  9122  17A0  3000               	movlw	0
  9123  17A1  0020               	movlb	0	; select bank0
  9124  17A2  00AE               	movwf	___lmul@product+3
  9125  17A3  3000               	movlw	0
  9126  17A4  00AD               	movwf	___lmul@product+2
  9127  17A5  3000               	movlw	0
  9128  17A6  00AC               	movwf	___lmul@product+1
  9129  17A7  3000               	movlw	0
  9130  17A8  00AB               	movwf	___lmul@product
  9131  17A9                     l2289:	
  9132  17A9  1C23               	btfss	___lmul@multiplier,0
  9133  17AA  2FB3               	goto	l2293
  9134  17AB  0827               	movf	___lmul@multiplicand,w
  9135  17AC  07AB               	addwf	___lmul@product,f
  9136  17AD  0828               	movf	___lmul@multiplicand+1,w
  9137  17AE  3DAC               	addwfc	___lmul@product+1,f
  9138  17AF  0829               	movf	___lmul@multiplicand+2,w
  9139  17B0  3DAD               	addwfc	___lmul@product+2,f
  9140  17B1  082A               	movf	___lmul@multiplicand+3,w
  9141  17B2  3DAE               	addwfc	___lmul@product+3,f
  9142  17B3                     l2293:	
  9143  17B3  3001               	movlw	1
  9144  17B4                     u2585:	
  9145  17B4  35A7               	lslf	___lmul@multiplicand,f
  9146  17B5  0DA8               	rlf	___lmul@multiplicand+1,f
  9147  17B6  0DA9               	rlf	___lmul@multiplicand+2,f
  9148  17B7  0DAA               	rlf	___lmul@multiplicand+3,f
  9149  17B8  0B89               	decfsz	9,f
  9150  17B9  2FB4               	goto	u2585
  9151  17BA  3001               	movlw	1
  9152  17BB                     u2595:	
  9153  17BB  36A6               	lsrf	___lmul@multiplier+3,f
  9154  17BC  0CA5               	rrf	___lmul@multiplier+2,f
  9155  17BD  0CA4               	rrf	___lmul@multiplier+1,f
  9156  17BE  0CA3               	rrf	___lmul@multiplier,f
  9157  17BF  0B89               	decfsz	9,f
  9158  17C0  2FBB               	goto	u2595
  9159  17C1  0826               	movf	___lmul@multiplier+3,w
  9160  17C2  0425               	iorwf	___lmul@multiplier+2,w
  9161  17C3  0424               	iorwf	___lmul@multiplier+1,w
  9162  17C4  0423               	iorwf	___lmul@multiplier,w
  9163  17C5  1D03               	skipz
  9164  17C6  2FA9               	goto	l2289
  9165  17C7  082E               	movf	___lmul@product+3,w
  9166  17C8  00A6               	movwf	?___lmul+3
  9167  17C9  082D               	movf	___lmul@product+2,w
  9168  17CA  00A5               	movwf	?___lmul+2
  9169  17CB  082C               	movf	___lmul@product+1,w
  9170  17CC  00A4               	movwf	?___lmul+1
  9171  17CD  082B               	movf	___lmul@product,w
  9172  17CE  00A3               	movwf	?___lmul
  9173  17CF  0008               	return
  9174  17D0                     __end_of___lmul:	
  9175                           
  9176                           	psect	text28
  9177  071A                     __ptext28:	
  9178 ;; *************** function ___ftdiv *****************
  9179 ;; Defined at:
  9180 ;;		line 56 in file "/opt/microchip/xc8/v1.45/sources/common/ftdiv.c"
  9181 ;; Parameters:    Size  Location     Type
  9182 ;;  f2              3   17[BANK0 ] float 
  9183 ;;  f1              3   20[BANK0 ] float 
  9184 ;; Auto vars:     Size  Location     Type
  9185 ;;  f3              3   28[BANK0 ] float 
  9186 ;;  sign            1   32[BANK0 ] unsigned char 
  9187 ;;  exp             1   31[BANK0 ] unsigned char 
  9188 ;;  cntr            1   27[BANK0 ] unsigned char 
  9189 ;; Return value:  Size  Location     Type
  9190 ;;                  3   17[BANK0 ] float 
  9191 ;; Registers used:
  9192 ;;		wreg, status,2, status,0, pclath, cstack
  9193 ;; Tracked objects:
  9194 ;;		On entry : 0/0
  9195 ;;		On exit  : 0/0
  9196 ;;		Unchanged: 0/0
  9197 ;; Data sizes:     COMMON   BANK0   BANK1   BANK2   BANK3   BANK4   BANK5   BANK6   BANK7   BANK8   BANK9  BANK10  BANK1
      +1  BANK12
  9198 ;;      Params:         0       6       0       0       0       0       0       0       0       0       0       0       
      +0       0
  9199 ;;      Locals:         0       6       0       0       0       0       0       0       0       0       0       0       
      +0       0
  9200 ;;      Temps:          0       4       0       0       0       0       0       0       0       0       0       0       
      +0       0
  9201 ;;      Totals:         0      16       0       0       0       0       0       0       0       0       0       0       
      +0       0
  9202 ;;Total ram usage:       16 bytes
  9203 ;; Hardware stack levels used:    1
  9204 ;; Hardware stack levels required when called:    6
  9205 ;; This function calls:
  9206 ;;		___ftpack
  9207 ;; This function is called by:
  9208 ;;		_LireLux
  9209 ;;		_BME280_readTemperature
  9210 ;;		_BME280_readHumidity
  9211 ;;		_BME280_readPressure
  9212 ;; This function uses a non-reentrant model
  9213 ;;
  9214                           
  9215                           
  9216                           ;psect for function ___ftdiv
  9217  071A                     ___ftdiv:	
  9218                           
  9219                           ;incstack = 0
  9220                           ; Regs used in ___ftdiv: [wreg+status,2+status,0+pclath+cstack]
  9221  071A  0020               	movlb	0	; select bank0
  9222  071B  0834               	movf	___ftdiv@f1,w
  9223  071C  00B7               	movwf	??___ftdiv
  9224  071D  0835               	movf	___ftdiv@f1+1,w
  9225  071E  00B8               	movwf	??___ftdiv+1
  9226  071F  0836               	movf	___ftdiv@f1+2,w
  9227  0720  00B9               	movwf	??___ftdiv+2
  9228  0721  1003               	clrc
  9229  0722  0D38               	rlf	??___ftdiv+1,w
  9230  0723  0D39               	rlf	??___ftdiv+2,w
  9231  0724  00BA               	movwf	??___ftdiv+3
  9232  0725  083A               	movf	??___ftdiv+3,w
  9233  0726  00BF               	movwf	___ftdiv@exp
  9234  0727  083F               	movf	___ftdiv@exp,w
  9235  0728  1D03               	btfss	3,2
  9236  0729  2F31               	goto	l2323
  9237  072A  3000               	movlw	0
  9238  072B  00B1               	movwf	?___ftdiv
  9239  072C  3000               	movlw	0
  9240  072D  00B2               	movwf	?___ftdiv+1
  9241  072E  3000               	movlw	0
  9242  072F  00B3               	movwf	?___ftdiv+2
  9243  0730  0008               	return
  9244  0731                     l2323:	
  9245  0731  0831               	movf	___ftdiv@f2,w
  9246  0732  00B7               	movwf	??___ftdiv
  9247  0733  0832               	movf	___ftdiv@f2+1,w
  9248  0734  00B8               	movwf	??___ftdiv+1
  9249  0735  0833               	movf	___ftdiv@f2+2,w
  9250  0736  00B9               	movwf	??___ftdiv+2
  9251  0737  1003               	clrc
  9252  0738  0D38               	rlf	??___ftdiv+1,w
  9253  0739  0D39               	rlf	??___ftdiv+2,w
  9254  073A  00BA               	movwf	??___ftdiv+3
  9255  073B  083A               	movf	??___ftdiv+3,w
  9256  073C  00C0               	movwf	___ftdiv@sign
  9257  073D  0840               	movf	___ftdiv@sign,w
  9258  073E  1D03               	btfss	3,2
  9259  073F  2F47               	goto	l2329
  9260  0740  3000               	movlw	0
  9261  0741  00B1               	movwf	?___ftdiv
  9262  0742  3000               	movlw	0
  9263  0743  00B2               	movwf	?___ftdiv+1
  9264  0744  3000               	movlw	0
  9265  0745  00B3               	movwf	?___ftdiv+2
  9266  0746  0008               	return
  9267  0747                     l2329:	
  9268  0747  3000               	movlw	0
  9269  0748  00BC               	movwf	___ftdiv@f3
  9270  0749  3000               	movlw	0
  9271  074A  00BD               	movwf	___ftdiv@f3+1
  9272  074B  3000               	movlw	0
  9273  074C  00BE               	movwf	___ftdiv@f3+2
  9274  074D  3089               	movlw	137
  9275  074E  0740               	addwf	___ftdiv@sign,w
  9276  074F  00B7               	movwf	??___ftdiv
  9277  0750  0837               	movf	??___ftdiv,w
  9278  0751  02BF               	subwf	___ftdiv@exp,f
  9279  0752  0834               	movf	___ftdiv@f1,w
  9280  0753  00B7               	movwf	??___ftdiv
  9281  0754  0835               	movf	___ftdiv@f1+1,w
  9282  0755  00B8               	movwf	??___ftdiv+1
  9283  0756  0836               	movf	___ftdiv@f1+2,w
  9284  0757  00B9               	movwf	??___ftdiv+2
  9285  0758  3010               	movlw	16
  9286  0759                     u2665:	
  9287  0759  36B9               	lsrf	??___ftdiv+2,f
  9288  075A  0CB8               	rrf	??___ftdiv+1,f
  9289  075B  0CB7               	rrf	??___ftdiv,f
  9290  075C  0B89               	decfsz	9,f
  9291  075D  2F59               	goto	u2665
  9292  075E  0837               	movf	??___ftdiv,w
  9293  075F  00BA               	movwf	??___ftdiv+3
  9294  0760  083A               	movf	??___ftdiv+3,w
  9295  0761  00C0               	movwf	___ftdiv@sign
  9296  0762  0831               	movf	___ftdiv@f2,w
  9297  0763  00B7               	movwf	??___ftdiv
  9298  0764  0832               	movf	___ftdiv@f2+1,w
  9299  0765  00B8               	movwf	??___ftdiv+1
  9300  0766  0833               	movf	___ftdiv@f2+2,w
  9301  0767  00B9               	movwf	??___ftdiv+2
  9302  0768  3010               	movlw	16
  9303  0769                     u2675:	
  9304  0769  36B9               	lsrf	??___ftdiv+2,f
  9305  076A  0CB8               	rrf	??___ftdiv+1,f
  9306  076B  0CB7               	rrf	??___ftdiv,f
  9307  076C  0B89               	decfsz	9,f
  9308  076D  2F69               	goto	u2675
  9309  076E  0837               	movf	??___ftdiv,w
  9310  076F  00BA               	movwf	??___ftdiv+3
  9311  0770  083A               	movf	??___ftdiv+3,w
  9312  0771  06C0               	xorwf	___ftdiv@sign,f
  9313  0772  3080               	movlw	128
  9314  0773  00B7               	movwf	??___ftdiv
  9315  0774  0837               	movf	??___ftdiv,w
  9316  0775  05C0               	andwf	___ftdiv@sign,f
  9317  0776  17B5               	bsf	___ftdiv@f1+1,7
  9318  0777  30FF               	movlw	255
  9319  0778  05B4               	andwf	___ftdiv@f1,f
  9320  0779  30FF               	movlw	255
  9321  077A  05B5               	andwf	___ftdiv@f1+1,f
  9322  077B  3000               	movlw	0
  9323  077C  05B6               	andwf	___ftdiv@f1+2,f
  9324  077D  17B2               	bsf	___ftdiv@f2+1,7
  9325  077E  30FF               	movlw	255
  9326  077F  05B1               	andwf	___ftdiv@f2,f
  9327  0780  30FF               	movlw	255
  9328  0781  05B2               	andwf	___ftdiv@f2+1,f
  9329  0782  3000               	movlw	0
  9330  0783  05B3               	andwf	___ftdiv@f2+2,f
  9331  0784  3018               	movlw	24
  9332  0785  00B7               	movwf	??___ftdiv
  9333  0786  0837               	movf	??___ftdiv,w
  9334  0787  00BB               	movwf	___ftdiv@cntr
  9335  0788                     l2343:	
  9336  0788  3001               	movlw	1
  9337  0789                     u2685:	
  9338  0789  35BC               	lslf	___ftdiv@f3,f
  9339  078A  0DBD               	rlf	___ftdiv@f3+1,f
  9340  078B  0DBE               	rlf	___ftdiv@f3+2,f
  9341  078C  0B89               	decfsz	9,f
  9342  078D  2F89               	goto	u2685
  9343  078E  0833               	movf	___ftdiv@f2+2,w
  9344  078F  0236               	subwf	___ftdiv@f1+2,w
  9345  0790  1D03               	skipz
  9346  0791  2F98               	goto	u2695
  9347  0792  0832               	movf	___ftdiv@f2+1,w
  9348  0793  0235               	subwf	___ftdiv@f1+1,w
  9349  0794  1D03               	skipz
  9350  0795  2F98               	goto	u2695
  9351  0796  0831               	movf	___ftdiv@f2,w
  9352  0797  0234               	subwf	___ftdiv@f1,w
  9353  0798                     u2695:	
  9354  0798  1C03               	skipc
  9355  0799  2FA1               	goto	l2351
  9356  079A  0831               	movf	___ftdiv@f2,w
  9357  079B  02B4               	subwf	___ftdiv@f1,f
  9358  079C  0832               	movf	___ftdiv@f2+1,w
  9359  079D  3BB5               	subwfb	___ftdiv@f1+1,f
  9360  079E  0833               	movf	___ftdiv@f2+2,w
  9361  079F  3BB6               	subwfb	___ftdiv@f1+2,f
  9362  07A0  143C               	bsf	___ftdiv@f3,0
  9363  07A1                     l2351:	
  9364  07A1  3001               	movlw	1
  9365  07A2                     u2705:	
  9366  07A2  35B4               	lslf	___ftdiv@f1,f
  9367  07A3  0DB5               	rlf	___ftdiv@f1+1,f
  9368  07A4  0DB6               	rlf	___ftdiv@f1+2,f
  9369  07A5  0B89               	decfsz	9,f
  9370  07A6  2FA2               	goto	u2705
  9371  07A7  3001               	movlw	1
  9372  07A8  02BB               	subwf	___ftdiv@cntr,f
  9373  07A9  1D03               	btfss	3,2
  9374  07AA  2F88               	goto	l2343
  9375  07AB  083C               	movf	___ftdiv@f3,w
  9376  07AC  00A3               	movwf	___ftpack@arg
  9377  07AD  083D               	movf	___ftdiv@f3+1,w
  9378  07AE  00A4               	movwf	___ftpack@arg+1
  9379  07AF  083E               	movf	___ftdiv@f3+2,w
  9380  07B0  00A5               	movwf	___ftpack@arg+2
  9381  07B1  083F               	movf	___ftdiv@exp,w
  9382  07B2  00B7               	movwf	??___ftdiv
  9383  07B3  0837               	movf	??___ftdiv,w
  9384  07B4  00A6               	movwf	___ftpack@exp
  9385  07B5  0840               	movf	___ftdiv@sign,w
  9386  07B6  00B8               	movwf	??___ftdiv+1
  9387  07B7  0838               	movf	??___ftdiv+1,w
  9388  07B8  00A7               	movwf	___ftpack@sign
  9389  07B9  318A  220D         	fcall	___ftpack
  9390  07BB  0020               	movlb	0	; select bank0
  9391  07BC  0823               	movf	?___ftpack,w
  9392  07BD  00B1               	movwf	?___ftdiv
  9393  07BE  0824               	movf	?___ftpack+1,w
  9394  07BF  00B2               	movwf	?___ftdiv+1
  9395  07C0  0825               	movf	?___ftpack+2,w
  9396  07C1  00B3               	movwf	?___ftdiv+2
  9397  07C2  0008               	return
  9398  07C3                     __end_of___ftdiv:	
  9399                           
  9400                           	psect	text29
  9401  07C3                     __ptext29:	
  9402 ;; *************** function ___altoft *****************
  9403 ;; Defined at:
  9404 ;;		line 42 in file "/opt/microchip/xc8/v1.45/sources/common/altoft.c"
  9405 ;; Parameters:    Size  Location     Type
  9406 ;;  c               4   15[BANK0 ] long 
  9407 ;; Auto vars:     Size  Location     Type
  9408 ;;  sign            1   22[BANK0 ] unsigned char 
  9409 ;;  exp             1   21[BANK0 ] unsigned char 
  9410 ;; Return value:  Size  Location     Type
  9411 ;;                  3   15[BANK0 ] float 
  9412 ;; Registers used:
  9413 ;;		wreg, status,2, status,0, pclath, cstack
  9414 ;; Tracked objects:
  9415 ;;		On entry : 0/0
  9416 ;;		On exit  : 0/0
  9417 ;;		Unchanged: 0/0
  9418 ;; Data sizes:     COMMON   BANK0   BANK1   BANK2   BANK3   BANK4   BANK5   BANK6   BANK7   BANK8   BANK9  BANK10  BANK1
      +1  BANK12
  9419 ;;      Params:         0       4       0       0       0       0       0       0       0       0       0       0       
      +0       0
  9420 ;;      Locals:         0       2       0       0       0       0       0       0       0       0       0       0       
      +0       0
  9421 ;;      Temps:          0       2       0       0       0       0       0       0       0       0       0       0       
      +0       0
  9422 ;;      Totals:         0       8       0       0       0       0       0       0       0       0       0       0       
      +0       0
  9423 ;;Total ram usage:        8 bytes
  9424 ;; Hardware stack levels used:    1
  9425 ;; Hardware stack levels required when called:    6
  9426 ;; This function calls:
  9427 ;;		___ftpack
  9428 ;; This function is called by:
  9429 ;;		_BME280_readTemperature
  9430 ;;		_BME280_readHumidity
  9431 ;; This function uses a non-reentrant model
  9432 ;;
  9433                           
  9434                           
  9435                           ;psect for function ___altoft
  9436  07C3                     ___altoft:	
  9437                           
  9438                           ;incstack = 0
  9439                           ; Regs used in ___altoft: [wreg+status,2+status,0+pclath+cstack]
  9440  07C3  0020               	movlb	0	; select bank0
  9441  07C4  01B6               	clrf	___altoft@sign
  9442  07C5  308E               	movlw	142
  9443  07C6  00B3               	movwf	??___altoft
  9444  07C7  0833               	movf	??___altoft,w
  9445  07C8  00B5               	movwf	___altoft@exp
  9446  07C9  1FB2               	btfss	___altoft@c+3,7
  9447  07CA  2FD8               	goto	l2311
  9448  07CB  09AF               	comf	___altoft@c,f
  9449  07CC  09B0               	comf	___altoft@c+1,f
  9450  07CD  09B1               	comf	___altoft@c+2,f
  9451  07CE  09B2               	comf	___altoft@c+3,f
  9452  07CF  0AAF               	incf	___altoft@c,f
  9453  07D0  1903               	skipnz
  9454  07D1  0AB0               	incf	___altoft@c+1,f
  9455  07D2  1903               	skipnz
  9456  07D3  0AB1               	incf	___altoft@c+2,f
  9457  07D4  1903               	skipnz
  9458  07D5  0AB2               	incf	___altoft@c+3,f
  9459  07D6  01B6               	clrf	___altoft@sign
  9460  07D7  0AB6               	incf	___altoft@sign,f
  9461  07D8                     l2311:	
  9462  07D8  30FF               	movlw	255
  9463  07D9  0532               	andwf	___altoft@c+3,w
  9464  07DA  1903               	btfsc	3,2
  9465  07DB  2FE8               	goto	l2313
  9466  07DC  3001               	movlw	1
  9467  07DD                     u2625:	
  9468  07DD  36B2               	lsrf	___altoft@c+3,f
  9469  07DE  0CB1               	rrf	___altoft@c+2,f
  9470  07DF  0CB0               	rrf	___altoft@c+1,f
  9471  07E0  0CAF               	rrf	___altoft@c,f
  9472  07E1  0B89               	decfsz	9,f
  9473  07E2  2FDD               	goto	u2625
  9474  07E3  3001               	movlw	1
  9475  07E4  00B3               	movwf	??___altoft
  9476  07E5  0833               	movf	??___altoft,w
  9477  07E6  07B5               	addwf	___altoft@exp,f
  9478  07E7  2FD8               	goto	l2311
  9479  07E8                     l2313:	
  9480  07E8  082F               	movf	___altoft@c,w
  9481  07E9  00A3               	movwf	___ftpack@arg
  9482  07EA  0830               	movf	___altoft@c+1,w
  9483  07EB  00A4               	movwf	___ftpack@arg+1
  9484  07EC  0831               	movf	___altoft@c+2,w
  9485  07ED  00A5               	movwf	___ftpack@arg+2
  9486  07EE  0835               	movf	___altoft@exp,w
  9487  07EF  00B3               	movwf	??___altoft
  9488  07F0  0833               	movf	??___altoft,w
  9489  07F1  00A6               	movwf	___ftpack@exp
  9490  07F2  0836               	movf	___altoft@sign,w
  9491  07F3  00B4               	movwf	??___altoft+1
  9492  07F4  0834               	movf	??___altoft+1,w
  9493  07F5  00A7               	movwf	___ftpack@sign
  9494  07F6  318A  220D         	fcall	___ftpack
  9495  07F8  0020               	movlb	0	; select bank0
  9496  07F9  0823               	movf	?___ftpack,w
  9497  07FA  00AF               	movwf	?___altoft
  9498  07FB  0824               	movf	?___ftpack+1,w
  9499  07FC  00B0               	movwf	?___altoft+1
  9500  07FD  0825               	movf	?___ftpack+2,w
  9501  07FE  00B1               	movwf	?___altoft+2
  9502  07FF  0008               	return
  9503  0800                     __end_of___altoft:	
  9504                           
  9505                           	psect	text30
  9506  0A0D                     __ptext30:	
  9507 ;; *************** function ___ftpack *****************
  9508 ;; Defined at:
  9509 ;;		line 62 in file "/opt/microchip/xc8/v1.45/sources/common/float.c"
  9510 ;; Parameters:    Size  Location     Type
  9511 ;;  arg             3    3[BANK0 ] unsigned um
  9512 ;;  exp             1    6[BANK0 ] unsigned char 
  9513 ;;  sign            1    7[BANK0 ] unsigned char 
  9514 ;; Auto vars:     Size  Location     Type
  9515 ;;		None
  9516 ;; Return value:  Size  Location     Type
  9517 ;;                  3    3[BANK0 ] float 
  9518 ;; Registers used:
  9519 ;;		wreg, status,2, status,0
  9520 ;; Tracked objects:
  9521 ;;		On entry : 0/0
  9522 ;;		On exit  : 0/0
  9523 ;;		Unchanged: 0/0
  9524 ;; Data sizes:     COMMON   BANK0   BANK1   BANK2   BANK3   BANK4   BANK5   BANK6   BANK7   BANK8   BANK9  BANK10  BANK1
      +1  BANK12
  9525 ;;      Params:         0       5       0       0       0       0       0       0       0       0       0       0       
      +0       0
  9526 ;;      Locals:         0       0       0       0       0       0       0       0       0       0       0       0       
      +0       0
  9527 ;;      Temps:          0       3       0       0       0       0       0       0       0       0       0       0       
      +0       0
  9528 ;;      Totals:         0       8       0       0       0       0       0       0       0       0       0       0       
      +0       0
  9529 ;;Total ram usage:        8 bytes
  9530 ;; Hardware stack levels used:    1
  9531 ;; Hardware stack levels required when called:    5
  9532 ;; This function calls:
  9533 ;;		Nothing
  9534 ;; This function is called by:
  9535 ;;		___altoft
  9536 ;;		___ftdiv
  9537 ;;		___lltoft
  9538 ;;		___lwtoft
  9539 ;; This function uses a non-reentrant model
  9540 ;;
  9541                           
  9542                           
  9543                           ;psect for function ___ftpack
  9544  0A0D                     ___ftpack:	
  9545                           
  9546                           ;incstack = 0
  9547                           ; Regs used in ___ftpack: [wreg+status,2+status,0]
  9548  0A0D  0020               	movlb	0	; select bank0
  9549  0A0E  0826               	movf	___ftpack@exp,w
  9550  0A0F  1903               	btfsc	3,2
  9551  0A10  2A16               	goto	l2125
  9552  0A11  0825               	movf	___ftpack@arg+2,w
  9553  0A12  0424               	iorwf	___ftpack@arg+1,w
  9554  0A13  0423               	iorwf	___ftpack@arg,w
  9555  0A14  1D03               	skipz
  9556  0A15  2A27               	goto	l2131
  9557  0A16                     l2125:	
  9558  0A16  3000               	movlw	0
  9559  0A17  00A3               	movwf	?___ftpack
  9560  0A18  3000               	movlw	0
  9561  0A19  00A4               	movwf	?___ftpack+1
  9562  0A1A  3000               	movlw	0
  9563  0A1B  00A5               	movwf	?___ftpack+2
  9564  0A1C  0008               	return
  9565  0A1D                     l2129:	
  9566  0A1D  3001               	movlw	1
  9567  0A1E  00A8               	movwf	??___ftpack
  9568  0A1F  0828               	movf	??___ftpack,w
  9569  0A20  07A6               	addwf	___ftpack@exp,f
  9570  0A21  3001               	movlw	1
  9571  0A22                     u2355:	
  9572  0A22  36A5               	lsrf	___ftpack@arg+2,f
  9573  0A23  0CA4               	rrf	___ftpack@arg+1,f
  9574  0A24  0CA3               	rrf	___ftpack@arg,f
  9575  0A25  0B89               	decfsz	9,f
  9576  0A26  2A22               	goto	u2355
  9577  0A27                     l2131:	
  9578  0A27  30FE               	movlw	254
  9579  0A28  0525               	andwf	___ftpack@arg+2,w
  9580  0A29  1903               	btfsc	3,2
  9581  0A2A  2A40               	goto	l648
  9582  0A2B  2A1D               	goto	l2129
  9583  0A2C                     l2133:	
  9584  0A2C  3001               	movlw	1
  9585  0A2D  00A8               	movwf	??___ftpack
  9586  0A2E  0828               	movf	??___ftpack,w
  9587  0A2F  07A6               	addwf	___ftpack@exp,f
  9588  0A30  3001               	movlw	1
  9589  0A31  07A3               	addwf	___ftpack@arg,f
  9590  0A32  3000               	movlw	0
  9591  0A33  1803               	skipnc
  9592  0A34  3001               	movlw	1
  9593  0A35  07A4               	addwf	___ftpack@arg+1,f
  9594  0A36  3000               	movlw	0
  9595  0A37  1803               	skipnc
  9596  0A38  3001               	movlw	1
  9597  0A39  07A5               	addwf	___ftpack@arg+2,f
  9598  0A3A  3001               	movlw	1
  9599  0A3B                     u2375:	
  9600  0A3B  36A5               	lsrf	___ftpack@arg+2,f
  9601  0A3C  0CA4               	rrf	___ftpack@arg+1,f
  9602  0A3D  0CA3               	rrf	___ftpack@arg,f
  9603  0A3E  0B89               	decfsz	9,f
  9604  0A3F  2A3B               	goto	u2375
  9605  0A40                     l648:	
  9606  0A40  30FF               	movlw	255
  9607  0A41  0525               	andwf	___ftpack@arg+2,w
  9608  0A42  1903               	btfsc	3,2
  9609  0A43  2A4D               	goto	l2141
  9610  0A44  2A2C               	goto	l2133
  9611  0A45                     l2139:	
  9612  0A45  3001               	movlw	1
  9613  0A46  02A6               	subwf	___ftpack@exp,f
  9614  0A47  3001               	movlw	1
  9615  0A48                     u2395:	
  9616  0A48  35A3               	lslf	___ftpack@arg,f
  9617  0A49  0DA4               	rlf	___ftpack@arg+1,f
  9618  0A4A  0DA5               	rlf	___ftpack@arg+2,f
  9619  0A4B  0B89               	decfsz	9,f
  9620  0A4C  2A48               	goto	u2395
  9621  0A4D                     l2141:	
  9622  0A4D  1BA4               	btfsc	___ftpack@arg+1,7
  9623  0A4E  2A53               	goto	l655
  9624  0A4F  3002               	movlw	2
  9625  0A50  0226               	subwf	___ftpack@exp,w
  9626  0A51  1803               	skipnc
  9627  0A52  2A45               	goto	l2139
  9628  0A53                     l655:	
  9629  0A53  1826               	btfsc	___ftpack@exp,0
  9630  0A54  2A5B               	goto	l656
  9631  0A55  30FF               	movlw	255
  9632  0A56  05A3               	andwf	___ftpack@arg,f
  9633  0A57  307F               	movlw	127
  9634  0A58  05A4               	andwf	___ftpack@arg+1,f
  9635  0A59  30FF               	movlw	255
  9636  0A5A  05A5               	andwf	___ftpack@arg+2,f
  9637  0A5B                     l656:	
  9638  0A5B  1003               	clrc
  9639  0A5C  0CA6               	rrf	___ftpack@exp,f
  9640  0A5D  0826               	movf	___ftpack@exp,w
  9641  0A5E  00A8               	movwf	??___ftpack
  9642  0A5F  01A9               	clrf	??___ftpack+1
  9643  0A60  01AA               	clrf	??___ftpack+2
  9644  0A61  3010               	movlw	16
  9645  0A62                     u2435:	
  9646  0A62  35A8               	lslf	??___ftpack,f
  9647  0A63  0DA9               	rlf	??___ftpack+1,f
  9648  0A64  0DAA               	rlf	??___ftpack+2,f
  9649  0A65  0B89               	decfsz	9,f
  9650  0A66  2A62               	goto	u2435
  9651  0A67  0828               	movf	??___ftpack,w
  9652  0A68  04A3               	iorwf	___ftpack@arg,f
  9653  0A69  0829               	movf	??___ftpack+1,w
  9654  0A6A  04A4               	iorwf	___ftpack@arg+1,f
  9655  0A6B  082A               	movf	??___ftpack+2,w
  9656  0A6C  04A5               	iorwf	___ftpack@arg+2,f
  9657  0A6D  0827               	movf	___ftpack@sign,w
  9658  0A6E  1903               	btfsc	3,2
  9659  0A6F  0008               	return
  9660  0A70  17A5               	bsf	___ftpack@arg+2,7
  9661  0A71  0008               	return
  9662  0A72                     __end_of___ftpack:	
  9663                           
  9664                           	psect	text31
  9665  0954                     __ptext31:	
  9666 ;; *************** function _BME280_read16 *****************
  9667 ;; Defined at:
  9668 ;;		line 27 in file "bme280.c"
  9669 ;; Parameters:    Size  Location     Type
  9670 ;;  reg             1    wreg     unsigned char 
  9671 ;; Auto vars:     Size  Location     Type
  9672 ;;  reg             1   13[BANK0 ] unsigned char 
  9673 ;;  temp            2   14[BANK0 ] unsigned int 
  9674 ;; Return value:  Size  Location     Type
  9675 ;;                  2    9[BANK0 ] unsigned int 
  9676 ;; Registers used:
  9677 ;;		wreg, status,2, status,0, pclath, cstack
  9678 ;; Tracked objects:
  9679 ;;		On entry : 0/0
  9680 ;;		On exit  : 0/0
  9681 ;;		Unchanged: 0/0
  9682 ;; Data sizes:     COMMON   BANK0   BANK1   BANK2   BANK3   BANK4   BANK5   BANK6   BANK7   BANK8   BANK9  BANK10  BANK1
      +1  BANK12
  9683 ;;      Params:         0       2       0       0       0       0       0       0       0       0       0       0       
      +0       0
  9684 ;;      Locals:         0       3       0       0       0       0       0       0       0       0       0       0       
      +0       0
  9685 ;;      Temps:          0       2       0       0       0       0       0       0       0       0       0       0       
      +0       0
  9686 ;;      Totals:         0       7       0       0       0       0       0       0       0       0       0       0       
      +0       0
  9687 ;;Total ram usage:        7 bytes
  9688 ;; Hardware stack levels used:    1
  9689 ;; Hardware stack levels required when called:    7
  9690 ;; This function calls:
  9691 ;;		_I2C_Master_Read
  9692 ;;		_I2C_Master_Start
  9693 ;;		_I2C_Master_Stop
  9694 ;;		_I2C_Master_Wait
  9695 ;;		_I2C_Master_Write
  9696 ;; This function is called by:
  9697 ;;		_BME280_read16_LE
  9698 ;;		_BME280_readHumidity
  9699 ;;		_BME280_readS16
  9700 ;; This function uses a non-reentrant model
  9701 ;;
  9702                           
  9703                           
  9704                           ;psect for function _BME280_read16
  9705  0954                     _BME280_read16:	
  9706                           
  9707                           ;incstack = 0
  9708                           ; Regs used in _BME280_read16: [wreg+status,2+status,0+pclath+cstack]
  9709                           ;BME280_read16@reg stored from wreg
  9710  0954  0020               	movlb	0	; select bank0
  9711  0955  00AD               	movwf	BME280_read16@reg
  9712                           
  9713                           ;bme280.c: 29: uint16_t temp ;
  9714                           ;bme280.c: 30: I2C_Master_Start();
  9715  0956  3195  25FC  3189   	fcall	_I2C_Master_Start
  9716                           
  9717                           ;bme280.c: 31: I2C_Master_Write(0xEC);
  9718  0959  30EC               	movlw	236
  9719  095A  0020               	movlb	0	; select bank0
  9720  095B  00A3               	movwf	I2C_Master_Write@d
  9721  095C  3000               	movlw	0
  9722  095D  00A4               	movwf	I2C_Master_Write@d+1
  9723  095E  3196  2612  3189   	fcall	_I2C_Master_Write
  9724                           
  9725                           ;bme280.c: 32: I2C_Master_Wait();
  9726  0961  3196  2621  3189   	fcall	_I2C_Master_Wait
  9727                           
  9728                           ;bme280.c: 33: I2C_Master_Write(reg);
  9729  0964  0020               	movlb	0	; select bank0
  9730  0965  082D               	movf	BME280_read16@reg,w
  9731  0966  00AB               	movwf	??_BME280_read16
  9732  0967  01AC               	clrf	??_BME280_read16+1
  9733  0968  082B               	movf	??_BME280_read16,w
  9734  0969  00A3               	movwf	I2C_Master_Write@d
  9735  096A  082C               	movf	??_BME280_read16+1,w
  9736  096B  00A4               	movwf	I2C_Master_Write@d+1
  9737  096C  3196  2612  3189   	fcall	_I2C_Master_Write
  9738                           
  9739                           ;bme280.c: 34: I2C_Master_Wait();
  9740  096F  3196  2621  3189   	fcall	_I2C_Master_Wait
  9741                           
  9742                           ;bme280.c: 35: I2C_Master_Stop();
  9743  0972  3196  2601  3189   	fcall	_I2C_Master_Stop
  9744                           
  9745                           ;bme280.c: 36: I2C_Master_Start();
  9746  0975  3195  25FC  3189   	fcall	_I2C_Master_Start
  9747                           
  9748                           ;bme280.c: 37: I2C_Master_Write(0xED);
  9749  0978  30ED               	movlw	237
  9750  0979  0020               	movlb	0	; select bank0
  9751  097A  00A3               	movwf	I2C_Master_Write@d
  9752  097B  3000               	movlw	0
  9753  097C  00A4               	movwf	I2C_Master_Write@d+1
  9754  097D  3196  2612  3189   	fcall	_I2C_Master_Write
  9755                           
  9756                           ;bme280.c: 38: I2C_Master_Wait();
  9757  0980  3196  2621  3189   	fcall	_I2C_Master_Wait
  9758                           
  9759                           ;bme280.c: 39: temp = I2C_Master_Read(1);
  9760  0983  3001               	movlw	1
  9761  0984  0020               	movlb	0	; select bank0
  9762  0985  00A3               	movwf	I2C_Master_Read@a
  9763  0986  3000               	movlw	0
  9764  0987  00A4               	movwf	I2C_Master_Read@a+1
  9765  0988  3196  26FB  3189   	fcall	_I2C_Master_Read
  9766  098B  0020               	movlb	0	; select bank0
  9767  098C  0824               	movf	?_I2C_Master_Read+1,w
  9768  098D  00AF               	movwf	BME280_read16@temp+1
  9769  098E  0823               	movf	?_I2C_Master_Read,w
  9770  098F  00AE               	movwf	BME280_read16@temp
  9771                           
  9772                           ;bme280.c: 40: temp<<=8;
  9773  0990  3008               	movlw	8
  9774  0991                     u2325:	
  9775  0991  35AE               	lslf	BME280_read16@temp,f
  9776  0992  0DAF               	rlf	BME280_read16@temp+1,f
  9777  0993  0B89               	decfsz	9,f
  9778  0994  2991               	goto	u2325
  9779                           
  9780                           ;bme280.c: 41: temp |= I2C_Master_Read(0);
  9781  0995  3000               	movlw	0
  9782  0996  00A3               	movwf	I2C_Master_Read@a
  9783  0997  00A4               	movwf	I2C_Master_Read@a+1
  9784  0998  3196  26FB  3189   	fcall	_I2C_Master_Read
  9785  099B  0020               	movlb	0	; select bank0
  9786  099C  0823               	movf	?_I2C_Master_Read,w
  9787  099D  04AE               	iorwf	BME280_read16@temp,f
  9788  099E  0824               	movf	?_I2C_Master_Read+1,w
  9789  099F  04AF               	iorwf	BME280_read16@temp+1,f
  9790                           
  9791                           ;bme280.c: 42: I2C_Master_Wait();
  9792  09A0  3196  2621  3189   	fcall	_I2C_Master_Wait
  9793                           
  9794                           ;bme280.c: 43: I2C_Master_Stop();
  9795  09A3  3196  2601         	fcall	_I2C_Master_Stop
  9796                           
  9797                           ;bme280.c: 45: return temp;
  9798  09A5  0020               	movlb	0	; select bank0
  9799  09A6  082F               	movf	BME280_read16@temp+1,w
  9800  09A7  00AA               	movwf	?_BME280_read16+1
  9801  09A8  082E               	movf	BME280_read16@temp,w
  9802  09A9  00A9               	movwf	?_BME280_read16
  9803  09AA  0008               	return
  9804  09AB                     __end_of_BME280_read16:	
  9805                           
  9806                           	psect	text32
  9807  1671                     __ptext32:	
  9808 ;; *************** function _BME280_goForceMode *****************
  9809 ;; Defined at:
  9810 ;;		line 172 in file "bme280.c"
  9811 ;; Parameters:    Size  Location     Type
  9812 ;;		None
  9813 ;; Auto vars:     Size  Location     Type
  9814 ;;  mode            1   14[BANK0 ] unsigned char 
  9815 ;; Return value:  Size  Location     Type
  9816 ;;                  1    wreg      void 
  9817 ;; Registers used:
  9818 ;;		wreg, status,2, status,0, pclath, cstack
  9819 ;; Tracked objects:
  9820 ;;		On entry : 0/0
  9821 ;;		On exit  : 0/0
  9822 ;;		Unchanged: 0/0
  9823 ;; Data sizes:     COMMON   BANK0   BANK1   BANK2   BANK3   BANK4   BANK5   BANK6   BANK7   BANK8   BANK9  BANK10  BANK1
      +1  BANK12
  9824 ;;      Params:         0       0       0       0       0       0       0       0       0       0       0       0       
      +0       0
  9825 ;;      Locals:         0       1       0       0       0       0       0       0       0       0       0       0       
      +0       0
  9826 ;;      Temps:          0       1       0       0       0       0       0       0       0       0       0       0       
      +0       0
  9827 ;;      Totals:         0       2       0       0       0       0       0       0       0       0       0       0       
      +0       0
  9828 ;;Total ram usage:        2 bytes
  9829 ;; Hardware stack levels used:    1
  9830 ;; Hardware stack levels required when called:    8
  9831 ;; This function calls:
  9832 ;;		_BME280_read8
  9833 ;;		_BME280_write8
  9834 ;; This function is called by:
  9835 ;;		_main
  9836 ;; This function uses a non-reentrant model
  9837 ;;
  9838                           
  9839                           
  9840                           ;psect for function _BME280_goForceMode
  9841  1671                     _BME280_goForceMode:	
  9842                           
  9843                           ;bme280.c: 174: uint8_t mode ;
  9844                           ;bme280.c: 175: mode = BME280_read8(0xF4);
  9845                           
  9846                           ;incstack = 0
  9847                           ; Regs used in _BME280_goForceMode: [wreg+status,2+status,0+pclath+cstack]
  9848  1671  30F4               	movlw	244
  9849  1672  3188  2077  3196   	fcall	_BME280_read8
  9850  1675  0020               	movlb	0	; select bank0
  9851  1676  00AD               	movwf	??_BME280_goForceMode
  9852  1677  082D               	movf	??_BME280_goForceMode,w
  9853  1678  00AE               	movwf	BME280_goForceMode@mode
  9854                           
  9855                           ;bme280.c: 176: mode = (mode & 0xFC) + 0x01;
  9856  1679  082E               	movf	BME280_goForceMode@mode,w
  9857  167A  39FC               	andlw	252
  9858  167B  3E01               	addlw	1
  9859  167C  00AD               	movwf	??_BME280_goForceMode
  9860  167D  082D               	movf	??_BME280_goForceMode,w
  9861  167E  00AE               	movwf	BME280_goForceMode@mode
  9862                           
  9863                           ;bme280.c: 177: BME280_write8(0xF4,mode);
  9864  167F  082E               	movf	BME280_goForceMode@mode,w
  9865  1680  00AD               	movwf	??_BME280_goForceMode
  9866  1681  082D               	movf	??_BME280_goForceMode,w
  9867  1682  00A5               	movwf	BME280_write8@value
  9868  1683  30F4               	movlw	244
  9869  1684  3197  2771         	fcall	_BME280_write8
  9870  1686  0008               	return
  9871  1687                     __end_of_BME280_goForceMode:	
  9872                           
  9873                           	psect	text33
  9874  1771                     __ptext33:	
  9875 ;; *************** function _BME280_write8 *****************
  9876 ;; Defined at:
  9877 ;;		line 93 in file "bme280.c"
  9878 ;; Parameters:    Size  Location     Type
  9879 ;;  reg             1    wreg     unsigned char 
  9880 ;;  value           1    5[BANK0 ] unsigned char 
  9881 ;; Auto vars:     Size  Location     Type
  9882 ;;  reg             1    8[BANK0 ] unsigned char 
  9883 ;; Return value:  Size  Location     Type
  9884 ;;                  1    wreg      char 
  9885 ;; Registers used:
  9886 ;;		wreg, status,2, status,0, pclath, cstack
  9887 ;; Tracked objects:
  9888 ;;		On entry : 0/0
  9889 ;;		On exit  : 0/0
  9890 ;;		Unchanged: 0/0
  9891 ;; Data sizes:     COMMON   BANK0   BANK1   BANK2   BANK3   BANK4   BANK5   BANK6   BANK7   BANK8   BANK9  BANK10  BANK1
      +1  BANK12
  9892 ;;      Params:         0       1       0       0       0       0       0       0       0       0       0       0       
      +0       0
  9893 ;;      Locals:         0       1       0       0       0       0       0       0       0       0       0       0       
      +0       0
  9894 ;;      Temps:          0       2       0       0       0       0       0       0       0       0       0       0       
      +0       0
  9895 ;;      Totals:         0       4       0       0       0       0       0       0       0       0       0       0       
      +0       0
  9896 ;;Total ram usage:        4 bytes
  9897 ;; Hardware stack levels used:    1
  9898 ;; Hardware stack levels required when called:    7
  9899 ;; This function calls:
  9900 ;;		_I2C_Master_Start
  9901 ;;		_I2C_Master_Stop
  9902 ;;		_I2C_Master_Wait
  9903 ;;		_I2C_Master_Write
  9904 ;; This function is called by:
  9905 ;;		_main
  9906 ;;		_BME280_goForceMode
  9907 ;; This function uses a non-reentrant model
  9908 ;;
  9909                           
  9910                           
  9911                           ;psect for function _BME280_write8
  9912  1771                     _BME280_write8:	
  9913                           
  9914                           ;incstack = 0
  9915                           ; Regs used in _BME280_write8: [wreg+status,2+status,0+pclath+cstack]
  9916                           ;BME280_write8@reg stored from wreg
  9917  1771  0020               	movlb	0	; select bank0
  9918  1772  00A8               	movwf	BME280_write8@reg
  9919                           
  9920                           ;bme280.c: 95: I2C_Master_Start();
  9921  1773  3195  25FC  3197   	fcall	_I2C_Master_Start
  9922                           
  9923                           ;bme280.c: 96: I2C_Master_Write(0xEC);
  9924  1776  30EC               	movlw	236
  9925  1777  0020               	movlb	0	; select bank0
  9926  1778  00A3               	movwf	I2C_Master_Write@d
  9927  1779  3000               	movlw	0
  9928  177A  00A4               	movwf	I2C_Master_Write@d+1
  9929  177B  3196  2612  3197   	fcall	_I2C_Master_Write
  9930                           
  9931                           ;bme280.c: 97: I2C_Master_Wait();
  9932  177E  3196  2621  3197   	fcall	_I2C_Master_Wait
  9933                           
  9934                           ;bme280.c: 98: I2C_Master_Write(reg);
  9935  1781  0020               	movlb	0	; select bank0
  9936  1782  0828               	movf	BME280_write8@reg,w
  9937  1783  00A6               	movwf	??_BME280_write8
  9938  1784  01A7               	clrf	??_BME280_write8+1
  9939  1785  0826               	movf	??_BME280_write8,w
  9940  1786  00A3               	movwf	I2C_Master_Write@d
  9941  1787  0827               	movf	??_BME280_write8+1,w
  9942  1788  00A4               	movwf	I2C_Master_Write@d+1
  9943  1789  3196  2612  3197   	fcall	_I2C_Master_Write
  9944                           
  9945                           ;bme280.c: 99: I2C_Master_Wait();
  9946  178C  3196  2621  3197   	fcall	_I2C_Master_Wait
  9947                           
  9948                           ;bme280.c: 100: I2C_Master_Write(value);
  9949  178F  0020               	movlb	0	; select bank0
  9950  1790  0825               	movf	BME280_write8@value,w
  9951  1791  00A6               	movwf	??_BME280_write8
  9952  1792  01A7               	clrf	??_BME280_write8+1
  9953  1793  0826               	movf	??_BME280_write8,w
  9954  1794  00A3               	movwf	I2C_Master_Write@d
  9955  1795  0827               	movf	??_BME280_write8+1,w
  9956  1796  00A4               	movwf	I2C_Master_Write@d+1
  9957  1797  3196  2612  3197   	fcall	_I2C_Master_Write
  9958                           
  9959                           ;bme280.c: 101: I2C_Master_Wait();
  9960  179A  3196  2621  3197   	fcall	_I2C_Master_Wait
  9961                           
  9962                           ;bme280.c: 102: I2C_Master_Stop();
  9963  179D  3196  2601         	fcall	_I2C_Master_Stop
  9964  179F  0008               	return
  9965  17A0                     __end_of_BME280_write8:	
  9966                           
  9967                           	psect	text34
  9968  0877                     __ptext34:	
  9969 ;; *************** function _BME280_read8 *****************
  9970 ;; Defined at:
  9971 ;;		line 7 in file "bme280.c"
  9972 ;; Parameters:    Size  Location     Type
  9973 ;;  reg             1    wreg     unsigned char 
  9974 ;; Auto vars:     Size  Location     Type
  9975 ;;  reg             1   11[BANK0 ] unsigned char 
  9976 ;;  temp            1   12[BANK0 ] unsigned char 
  9977 ;; Return value:  Size  Location     Type
  9978 ;;                  1    wreg      unsigned char 
  9979 ;; Registers used:
  9980 ;;		wreg, status,2, status,0, pclath, cstack
  9981 ;; Tracked objects:
  9982 ;;		On entry : 0/0
  9983 ;;		On exit  : 0/0
  9984 ;;		Unchanged: 0/0
  9985 ;; Data sizes:     COMMON   BANK0   BANK1   BANK2   BANK3   BANK4   BANK5   BANK6   BANK7   BANK8   BANK9  BANK10  BANK1
      +1  BANK12
  9986 ;;      Params:         0       0       0       0       0       0       0       0       0       0       0       0       
      +0       0
  9987 ;;      Locals:         0       2       0       0       0       0       0       0       0       0       0       0       
      +0       0
  9988 ;;      Temps:          0       2       0       0       0       0       0       0       0       0       0       0       
      +0       0
  9989 ;;      Totals:         0       4       0       0       0       0       0       0       0       0       0       0       
      +0       0
  9990 ;;Total ram usage:        4 bytes
  9991 ;; Hardware stack levels used:    1
  9992 ;; Hardware stack levels required when called:    7
  9993 ;; This function calls:
  9994 ;;		_I2C_Master_Read
  9995 ;;		_I2C_Master_Start
  9996 ;;		_I2C_Master_Stop
  9997 ;;		_I2C_Master_Wait
  9998 ;;		_I2C_Master_Write
  9999 ;; This function is called by:
 10000 ;;		_readSensorCoefficients
 10001 ;;		_BME280_goForceMode
 10002 ;; This function uses a non-reentrant model
 10003 ;;
 10004                           
 10005                           
 10006                           ;psect for function _BME280_read8
 10007  0877                     _BME280_read8:	
 10008                           
 10009                           ;incstack = 0
 10010                           ; Regs used in _BME280_read8: [wreg+status,2+status,0+pclath+cstack]
 10011                           ;BME280_read8@reg stored from wreg
 10012  0877  0020               	movlb	0	; select bank0
 10013  0878  00AB               	movwf	BME280_read8@reg
 10014                           
 10015                           ;bme280.c: 9: uint8_t temp ;
 10016                           ;bme280.c: 10: I2C_Master_Start();
 10017  0879  3195  25FC  3188   	fcall	_I2C_Master_Start
 10018                           
 10019                           ;bme280.c: 11: I2C_Master_Write(0xEC);
 10020  087C  30EC               	movlw	236
 10021  087D  0020               	movlb	0	; select bank0
 10022  087E  00A3               	movwf	I2C_Master_Write@d
 10023  087F  3000               	movlw	0
 10024  0880  00A4               	movwf	I2C_Master_Write@d+1
 10025  0881  3196  2612  3188   	fcall	_I2C_Master_Write
 10026                           
 10027                           ;bme280.c: 12: I2C_Master_Wait();
 10028  0884  3196  2621  3188   	fcall	_I2C_Master_Wait
 10029                           
 10030                           ;bme280.c: 13: I2C_Master_Write(reg);
 10031  0887  0020               	movlb	0	; select bank0
 10032  0888  082B               	movf	BME280_read8@reg,w
 10033  0889  00A9               	movwf	??_BME280_read8
 10034  088A  01AA               	clrf	??_BME280_read8+1
 10035  088B  0829               	movf	??_BME280_read8,w
 10036  088C  00A3               	movwf	I2C_Master_Write@d
 10037  088D  082A               	movf	??_BME280_read8+1,w
 10038  088E  00A4               	movwf	I2C_Master_Write@d+1
 10039  088F  3196  2612  3188   	fcall	_I2C_Master_Write
 10040                           
 10041                           ;bme280.c: 14: I2C_Master_Wait();
 10042  0892  3196  2621  3188   	fcall	_I2C_Master_Wait
 10043                           
 10044                           ;bme280.c: 15: I2C_Master_Stop();
 10045  0895  3196  2601  3188   	fcall	_I2C_Master_Stop
 10046                           
 10047                           ;bme280.c: 16: I2C_Master_Start();
 10048  0898  3195  25FC  3188   	fcall	_I2C_Master_Start
 10049                           
 10050                           ;bme280.c: 17: I2C_Master_Write(0xED);
 10051  089B  30ED               	movlw	237
 10052  089C  0020               	movlb	0	; select bank0
 10053  089D  00A3               	movwf	I2C_Master_Write@d
 10054  089E  3000               	movlw	0
 10055  089F  00A4               	movwf	I2C_Master_Write@d+1
 10056  08A0  3196  2612  3188   	fcall	_I2C_Master_Write
 10057                           
 10058                           ;bme280.c: 18: I2C_Master_Wait();
 10059  08A3  3196  2621  3188   	fcall	_I2C_Master_Wait
 10060                           
 10061                           ;bme280.c: 19: temp = I2C_Master_Read(0);
 10062  08A6  3000               	movlw	0
 10063  08A7  0020               	movlb	0	; select bank0
 10064  08A8  00A3               	movwf	I2C_Master_Read@a
 10065  08A9  00A4               	movwf	I2C_Master_Read@a+1
 10066  08AA  3196  26FB  3188   	fcall	_I2C_Master_Read
 10067  08AD  0020               	movlb	0	; select bank0
 10068  08AE  0823               	movf	?_I2C_Master_Read,w
 10069  08AF  00A9               	movwf	??_BME280_read8
 10070  08B0  0829               	movf	??_BME280_read8,w
 10071  08B1  00AC               	movwf	BME280_read8@temp
 10072                           
 10073                           ;bme280.c: 20: I2C_Master_Wait();
 10074  08B2  3196  2621  3188   	fcall	_I2C_Master_Wait
 10075                           
 10076                           ;bme280.c: 21: I2C_Master_Stop();
 10077  08B5  3196  2601         	fcall	_I2C_Master_Stop
 10078                           
 10079                           ;bme280.c: 23: return temp;
 10080  08B7  0020               	movlb	0	; select bank0
 10081  08B8  082C               	movf	BME280_read8@temp,w
 10082  08B9  0008               	return
 10083  08BA                     __end_of_BME280_read8:	
 10084                           
 10085                           	psect	text35
 10086  1612                     __ptext35:	
 10087 ;; *************** function _I2C_Master_Write *****************
 10088 ;; Defined at:
 10089 ;;		line 36 in file "I2C1.c"
 10090 ;; Parameters:    Size  Location     Type
 10091 ;;  d               2    3[BANK0 ] unsigned int 
 10092 ;; Auto vars:     Size  Location     Type
 10093 ;;		None
 10094 ;; Return value:  Size  Location     Type
 10095 ;;                  1    wreg      void 
 10096 ;; Registers used:
 10097 ;;		wreg, status,2, status,0, pclath, cstack
 10098 ;; Tracked objects:
 10099 ;;		On entry : 0/0
 10100 ;;		On exit  : 0/0
 10101 ;;		Unchanged: 0/0
 10102 ;; Data sizes:     COMMON   BANK0   BANK1   BANK2   BANK3   BANK4   BANK5   BANK6   BANK7   BANK8   BANK9  BANK10  BANK1
      +1  BANK12
 10103 ;;      Params:         0       2       0       0       0       0       0       0       0       0       0       0       
      +0       0
 10104 ;;      Locals:         0       0       0       0       0       0       0       0       0       0       0       0       
      +0       0
 10105 ;;      Temps:          0       0       0       0       0       0       0       0       0       0       0       0       
      +0       0
 10106 ;;      Totals:         0       2       0       0       0       0       0       0       0       0       0       0       
      +0       0
 10107 ;;Total ram usage:        2 bytes
 10108 ;; Hardware stack levels used:    1
 10109 ;; Hardware stack levels required when called:    6
 10110 ;; This function calls:
 10111 ;;		_I2C_Master_Wait
 10112 ;; This function is called by:
 10113 ;;		_BH1750_Write
 10114 ;;		_BH1750_Read
 10115 ;;		_BME280_read8
 10116 ;;		_BME280_read16
 10117 ;;		_BME280_read24
 10118 ;;		_BME280_write8
 10119 ;; This function uses a non-reentrant model
 10120 ;;
 10121                           
 10122                           
 10123                           ;psect for function _I2C_Master_Write
 10124  1612                     _I2C_Master_Write:	
 10125                           
 10126                           ;I2C1.c: 38: I2C_Master_Wait();
 10127                           
 10128                           ;incstack = 0
 10129                           ; Regs used in _I2C_Master_Write: [wreg+status,2+status,0+pclath+cstack]
 10130  1612  3196  2621         	fcall	_I2C_Master_Wait
 10131                           
 10132                           ;I2C1.c: 39: SSPBUF = d;
 10133  1614  0020               	movlb	0	; select bank0
 10134  1615  0823               	movf	I2C_Master_Write@d,w
 10135  1616  0024               	movlb	4	; select bank4
 10136  1617  0091               	movwf	17	;volatile
 10137  1618  0008               	return
 10138  1619                     __end_of_I2C_Master_Write:	
 10139                           
 10140                           	psect	text36
 10141  1601                     __ptext36:	
 10142 ;; *************** function _I2C_Master_Stop *****************
 10143 ;; Defined at:
 10144 ;;		line 30 in file "I2C1.c"
 10145 ;; Parameters:    Size  Location     Type
 10146 ;;		None
 10147 ;; Auto vars:     Size  Location     Type
 10148 ;;		None
 10149 ;; Return value:  Size  Location     Type
 10150 ;;                  1    wreg      void 
 10151 ;; Registers used:
 10152 ;;		wreg, status,2, status,0, pclath, cstack
 10153 ;; Tracked objects:
 10154 ;;		On entry : 0/0
 10155 ;;		On exit  : 0/0
 10156 ;;		Unchanged: 0/0
 10157 ;; Data sizes:     COMMON   BANK0   BANK1   BANK2   BANK3   BANK4   BANK5   BANK6   BANK7   BANK8   BANK9  BANK10  BANK1
      +1  BANK12
 10158 ;;      Params:         0       0       0       0       0       0       0       0       0       0       0       0       
      +0       0
 10159 ;;      Locals:         0       0       0       0       0       0       0       0       0       0       0       0       
      +0       0
 10160 ;;      Temps:          0       0       0       0       0       0       0       0       0       0       0       0       
      +0       0
 10161 ;;      Totals:         0       0       0       0       0       0       0       0       0       0       0       0       
      +0       0
 10162 ;;Total ram usage:        0 bytes
 10163 ;; Hardware stack levels used:    1
 10164 ;; Hardware stack levels required when called:    6
 10165 ;; This function calls:
 10166 ;;		_I2C_Master_Wait
 10167 ;; This function is called by:
 10168 ;;		_BH1750_Write
 10169 ;;		_BH1750_Read
 10170 ;;		_BME280_read8
 10171 ;;		_BME280_read16
 10172 ;;		_BME280_read24
 10173 ;;		_BME280_write8
 10174 ;; This function uses a non-reentrant model
 10175 ;;
 10176                           
 10177                           
 10178                           ;psect for function _I2C_Master_Stop
 10179  1601                     _I2C_Master_Stop:	
 10180                           
 10181                           ;I2C1.c: 32: I2C_Master_Wait();
 10182                           
 10183                           ;incstack = 0
 10184                           ; Regs used in _I2C_Master_Stop: [wreg+status,2+status,0+pclath+cstack]
 10185  1601  3196  2621         	fcall	_I2C_Master_Wait
 10186                           
 10187                           ;I2C1.c: 33: SSP1CON2bits.PEN = 1;
 10188  1603  0024               	movlb	4	; select bank4
 10189  1604  1516               	bsf	22,2	;volatile
 10190  1605  0008               	return
 10191  1606                     __end_of_I2C_Master_Stop:	
 10192                           
 10193                           	psect	text37
 10194  15FC                     __ptext37:	
 10195 ;; *************** function _I2C_Master_Start *****************
 10196 ;; Defined at:
 10197 ;;		line 24 in file "I2C1.c"
 10198 ;; Parameters:    Size  Location     Type
 10199 ;;		None
 10200 ;; Auto vars:     Size  Location     Type
 10201 ;;		None
 10202 ;; Return value:  Size  Location     Type
 10203 ;;                  1    wreg      void 
 10204 ;; Registers used:
 10205 ;;		wreg, status,2, status,0, pclath, cstack
 10206 ;; Tracked objects:
 10207 ;;		On entry : 0/0
 10208 ;;		On exit  : 0/0
 10209 ;;		Unchanged: 0/0
 10210 ;; Data sizes:     COMMON   BANK0   BANK1   BANK2   BANK3   BANK4   BANK5   BANK6   BANK7   BANK8   BANK9  BANK10  BANK1
      +1  BANK12
 10211 ;;      Params:         0       0       0       0       0       0       0       0       0       0       0       0       
      +0       0
 10212 ;;      Locals:         0       0       0       0       0       0       0       0       0       0       0       0       
      +0       0
 10213 ;;      Temps:          0       0       0       0       0       0       0       0       0       0       0       0       
      +0       0
 10214 ;;      Totals:         0       0       0       0       0       0       0       0       0       0       0       0       
      +0       0
 10215 ;;Total ram usage:        0 bytes
 10216 ;; Hardware stack levels used:    1
 10217 ;; Hardware stack levels required when called:    6
 10218 ;; This function calls:
 10219 ;;		_I2C_Master_Wait
 10220 ;; This function is called by:
 10221 ;;		_BH1750_Write
 10222 ;;		_BH1750_Read
 10223 ;;		_BME280_read8
 10224 ;;		_BME280_read16
 10225 ;;		_BME280_read24
 10226 ;;		_BME280_write8
 10227 ;; This function uses a non-reentrant model
 10228 ;;
 10229                           
 10230                           
 10231                           ;psect for function _I2C_Master_Start
 10232  15FC                     _I2C_Master_Start:	
 10233                           
 10234                           ;I2C1.c: 26: I2C_Master_Wait();
 10235                           
 10236                           ;incstack = 0
 10237                           ; Regs used in _I2C_Master_Start: [wreg+status,2+status,0+pclath+cstack]
 10238  15FC  3196  2621         	fcall	_I2C_Master_Wait
 10239                           
 10240                           ;I2C1.c: 27: SSP1CON2bits.SEN = 1;
 10241  15FE  0024               	movlb	4	; select bank4
 10242  15FF  1416               	bsf	22,0	;volatile
 10243  1600  0008               	return
 10244  1601                     __end_of_I2C_Master_Start:	
 10245                           
 10246                           	psect	text38
 10247  16FB                     __ptext38:	
 10248 ;; *************** function _I2C_Master_Read *****************
 10249 ;; Defined at:
 10250 ;;		line 51 in file "I2C1.c"
 10251 ;; Parameters:    Size  Location     Type
 10252 ;;  a               2    3[BANK0 ] unsigned short 
 10253 ;; Auto vars:     Size  Location     Type
 10254 ;;  temp            2    7[BANK0 ] unsigned short 
 10255 ;; Return value:  Size  Location     Type
 10256 ;;                  2    3[BANK0 ] unsigned short 
 10257 ;; Registers used:
 10258 ;;		wreg, status,2, status,0, pclath, cstack
 10259 ;; Tracked objects:
 10260 ;;		On entry : 0/0
 10261 ;;		On exit  : 0/0
 10262 ;;		Unchanged: 0/0
 10263 ;; Data sizes:     COMMON   BANK0   BANK1   BANK2   BANK3   BANK4   BANK5   BANK6   BANK7   BANK8   BANK9  BANK10  BANK1
      +1  BANK12
 10264 ;;      Params:         0       2       0       0       0       0       0       0       0       0       0       0       
      +0       0
 10265 ;;      Locals:         0       2       0       0       0       0       0       0       0       0       0       0       
      +0       0
 10266 ;;      Temps:          0       2       0       0       0       0       0       0       0       0       0       0       
      +0       0
 10267 ;;      Totals:         0       6       0       0       0       0       0       0       0       0       0       0       
      +0       0
 10268 ;;Total ram usage:        6 bytes
 10269 ;; Hardware stack levels used:    1
 10270 ;; Hardware stack levels required when called:    6
 10271 ;; This function calls:
 10272 ;;		_I2C_Master_Wait
 10273 ;; This function is called by:
 10274 ;;		_BH1750_Read
 10275 ;;		_BME280_read8
 10276 ;;		_BME280_read16
 10277 ;;		_BME280_read24
 10278 ;; This function uses a non-reentrant model
 10279 ;;
 10280                           
 10281                           
 10282                           ;psect for function _I2C_Master_Read
 10283  16FB                     _I2C_Master_Read:	
 10284                           
 10285                           ;I2C1.c: 53: unsigned short temp;
 10286                           ;I2C1.c: 54: I2C_Master_Wait();
 10287                           
 10288                           ;incstack = 0
 10289                           ; Regs used in _I2C_Master_Read: [wreg+status,2+status,0+pclath+cstack]
 10290  16FB  3196  2621  3196   	fcall	_I2C_Master_Wait
 10291                           
 10292                           ;I2C1.c: 55: SSP1CON2bits.RCEN = 1;
 10293  16FE  0024               	movlb	4	; select bank4
 10294  16FF  1596               	bsf	22,3	;volatile
 10295                           
 10296                           ;I2C1.c: 56: I2C_Master_Wait();
 10297  1700  3196  2621  3196   	fcall	_I2C_Master_Wait
 10298                           
 10299                           ;I2C1.c: 57: temp = SSPBUF;
 10300  1703  0024               	movlb	4	; select bank4
 10301  1704  0811               	movf	17,w	;volatile
 10302  1705  0020               	movlb	0	; select bank0
 10303  1706  00A5               	movwf	??_I2C_Master_Read
 10304  1707  01A6               	clrf	??_I2C_Master_Read+1
 10305  1708  0825               	movf	??_I2C_Master_Read,w
 10306  1709  00A7               	movwf	I2C_Master_Read@temp
 10307  170A  0826               	movf	??_I2C_Master_Read+1,w
 10308  170B  00A8               	movwf	I2C_Master_Read@temp+1
 10309                           
 10310                           ;I2C1.c: 58: I2C_Master_Wait();
 10311  170C  3196  2621  3196   	fcall	_I2C_Master_Wait
 10312                           
 10313                           ;I2C1.c: 59: SSP1CON2bits.ACKDT = (a)?0:1;
 10314  170F  0020               	movlb	0	; select bank0
 10315  1710  0823               	movf	I2C_Master_Read@a,w
 10316  1711  0424               	iorwf	I2C_Master_Read@a+1,w
 10317  1712  1D03               	btfss	3,2
 10318  1713  2F17               	goto	u2300
 10319  1714  0024               	movlb	4	; select bank4
 10320  1715  1696               	bsf	22,5	;volatile
 10321  1716  2F19               	goto	l2097
 10322  1717                     u2300:	
 10323  1717  0024               	movlb	4	; select bank4
 10324  1718  1296               	bcf	22,5	;volatile
 10325  1719                     l2097:	
 10326                           
 10327                           ;I2C1.c: 60: SSP1CON2bits.ACKEN = 1;
 10328  1719  1616               	bsf	22,4	;volatile
 10329                           
 10330                           ;I2C1.c: 61: return temp;
 10331  171A  0020               	movlb	0	; select bank0
 10332  171B  0828               	movf	I2C_Master_Read@temp+1,w
 10333  171C  00A4               	movwf	?_I2C_Master_Read+1
 10334  171D  0827               	movf	I2C_Master_Read@temp,w
 10335  171E  00A3               	movwf	?_I2C_Master_Read
 10336  171F  0008               	return
 10337  1720                     __end_of_I2C_Master_Read:	
 10338                           
 10339                           	psect	text39
 10340  1621                     __ptext39:	
 10341 ;; *************** function _I2C_Master_Wait *****************
 10342 ;; Defined at:
 10343 ;;		line 19 in file "I2C1.c"
 10344 ;; Parameters:    Size  Location     Type
 10345 ;;		None
 10346 ;; Auto vars:     Size  Location     Type
 10347 ;;		None
 10348 ;; Return value:  Size  Location     Type
 10349 ;;                  1    wreg      void 
 10350 ;; Registers used:
 10351 ;;		wreg, status,2
 10352 ;; Tracked objects:
 10353 ;;		On entry : 0/0
 10354 ;;		On exit  : 0/0
 10355 ;;		Unchanged: 0/0
 10356 ;; Data sizes:     COMMON   BANK0   BANK1   BANK2   BANK3   BANK4   BANK5   BANK6   BANK7   BANK8   BANK9  BANK10  BANK1
      +1  BANK12
 10357 ;;      Params:         0       0       0       0       0       0       0       0       0       0       0       0       
      +0       0
 10358 ;;      Locals:         0       0       0       0       0       0       0       0       0       0       0       0       
      +0       0
 10359 ;;      Temps:          0       0       0       0       0       0       0       0       0       0       0       0       
      +0       0
 10360 ;;      Totals:         0       0       0       0       0       0       0       0       0       0       0       0       
      +0       0
 10361 ;;Total ram usage:        0 bytes
 10362 ;; Hardware stack levels used:    1
 10363 ;; Hardware stack levels required when called:    5
 10364 ;; This function calls:
 10365 ;;		Nothing
 10366 ;; This function is called by:
 10367 ;;		_I2C_Master_Start
 10368 ;;		_I2C_Master_Stop
 10369 ;;		_I2C_Master_Write
 10370 ;;		_I2C_Master_Read
 10371 ;;		_BH1750_Read
 10372 ;;		_BME280_read8
 10373 ;;		_BME280_read16
 10374 ;;		_BME280_read24
 10375 ;;		_BME280_write8
 10376 ;;		_I2C_Master_Write_V2
 10377 ;; This function uses a non-reentrant model
 10378 ;;
 10379                           
 10380                           
 10381                           ;psect for function _I2C_Master_Wait
 10382  1621                     _I2C_Master_Wait:	
 10383  1621                     l247:	
 10384                           ;I2C1.c: 21: while ((SSP1STAT & 0x04) || (SSP1CON2 & 0x1F));
 10385                           
 10386                           ;incstack = 0
 10387                           ; Regs used in _I2C_Master_Wait: [wreg+status,2]
 10388                           
 10389  1621  0024               	movlb	4	; select bank4
 10390  1622  1914               	btfsc	20,2	;volatile
 10391  1623  2E21               	goto	l247
 10392  1624  0816               	movf	22,w	;volatile
 10393  1625  391F               	andlw	31
 10394  1626  1903               	btfsc	3,2
 10395  1627  0008               	return
 10396  1628  2E21               	goto	l247
 10397  1629                     __end_of_I2C_Master_Wait:	
 10398                           
 10399                           	psect	intentry
 10400  0004                     __pintentry:	
 10401 ;; *************** function _interupt1 *****************
 10402 ;; Defined at:
 10403 ;;		line 40 in file "interupt.c"
 10404 ;; Parameters:    Size  Location     Type
 10405 ;;		None
 10406 ;; Auto vars:     Size  Location     Type
 10407 ;;		None
 10408 ;; Return value:  Size  Location     Type
 10409 ;;                  1    wreg      void 
 10410 ;; Registers used:
 10411 ;;		wreg, fsr0l, fsr0h, fsr1l, fsr1h, status,2, status,0, pclath, cstack
 10412 ;; Tracked objects:
 10413 ;;		On entry : 0/0
 10414 ;;		On exit  : 0/0
 10415 ;;		Unchanged: 0/0
 10416 ;; Data sizes:     COMMON   BANK0   BANK1   BANK2   BANK3   BANK4   BANK5   BANK6   BANK7   BANK8   BANK9  BANK10  BANK1
      +1  BANK12
 10417 ;;      Params:         0       0       0       0       0       0       0       0       0       0       0       0       
      +0       0
 10418 ;;      Locals:         0       0       0       0       0       0       0       0       0       0       0       0       
      +0       0
 10419 ;;      Temps:          0       2       0       0       0       0       0       0       0       0       0       0       
      +0       0
 10420 ;;      Totals:         0       2       0       0       0       0       0       0       0       0       0       0       
      +0       0
 10421 ;;Total ram usage:        2 bytes
 10422 ;; Hardware stack levels used:    1
 10423 ;; Hardware stack levels required when called:    4
 10424 ;; This function calls:
 10425 ;;		_EUSART_Read
 10426 ;;		_interpretation
 10427 ;; This function is called by:
 10428 ;;		Interrupt level 1
 10429 ;; This function uses a non-reentrant model
 10430 ;;
 10431                           
 10432  0004                     _interupt1:	
 10433                           
 10434                           ;incstack = 0
 10435  0004  147E               	bsf	126,0	;set compiler interrupt flag (level 1)
 10436                           
 10437                           ; Regs used in _interupt1: [wreg-fsr1h+status,2+status,0+pclath+cstack]
 10438  0005  3180               	pagesel	$
 10439  0006  0020               	movlb	0	; select bank0
 10440  0007  087F               	movf	127,w
 10441  0008  00A2               	movwf	??_interupt1+1
 10442                           
 10443                           ;interupt.c: 43: if(PIR1bits.RCIF)
 10444  0009  1E91               	btfss	17,5	;volatile
 10445  000A  282E               	goto	i1l94
 10446                           
 10447                           ;interupt.c: 44: {
 10448                           ;interupt.c: 45: RX_byte = EUSART_Read();
 10449  000B  3196  2650  3180   	fcall	_EUSART_Read
 10450  000E  0020               	movlb	0	; select bank0
 10451  000F  00A1               	movwf	??_interupt1
 10452  0010  0821               	movf	??_interupt1,w
 10453  0011  00EC               	movwf	_RX_byte
 10454                           
 10455                           ;interupt.c: 46: if(RX_byte == 0x0D)
 10456  0012  300D               	movlw	13
 10457  0013  066C               	xorwf	_RX_byte,w
 10458  0014  1D03               	btfss	3,2
 10459  0015  281A               	goto	i1l2023
 10460                           
 10461                           ;interupt.c: 47: {
 10462                           ;interupt.c: 49: interpretation();
 10463  0016  3197  2720  3180   	fcall	_interpretation
 10464                           
 10465                           ;interupt.c: 50: }
 10466  0019  282E               	goto	i1l94
 10467  001A                     i1l2023:	
 10468                           
 10469                           ;interupt.c: 51: else
 10470                           ;interupt.c: 52: {
 10471                           ;interupt.c: 54: monBuffer.data[monBuffer.len] = RX_byte;
 10472  001A  0020               	movlb	0	; select bank0
 10473  001B  086C               	movf	_RX_byte,w
 10474  001C  00A1               	movwf	??_interupt1
 10475  001D  0021               	movlb	1	; select bank1
 10476  001E  0823               	movf	(_monBuffer^(0+128)+3),w
 10477  001F  3EA0               	addlw	(low (_monBuffer| 0))& (0+255)
 10478  0020  0086               	movwf	6
 10479  0021  0187               	clrf	7
 10480  0022  0020               	movlb	0	; select bank0
 10481  0023  0821               	movf	??_interupt1,w
 10482  0024  0081               	movwf	1
 10483                           
 10484                           ;interupt.c: 55: monBuffer.len++;
 10485  0025  3001               	movlw	1
 10486  0026  00A1               	movwf	??_interupt1
 10487  0027  0821               	movf	??_interupt1,w
 10488  0028  0021               	movlb	1	; select bank1
 10489  0029  07A3               	addwf	(_monBuffer^(0+128)+3),f
 10490                           
 10491                           ;interupt.c: 56: if(monBuffer.len > 3)
 10492  002A  3004               	movlw	4
 10493  002B  0223               	subwf	(_monBuffer^(0+128)+3),w
 10494  002C  1803               	btfsc	3,0
 10495                           
 10496                           ;interupt.c: 57: {
 10497                           ;interupt.c: 58: monBuffer.len = 0 ;
 10498  002D  01A3               	clrf	(_monBuffer^(0+128)+3)
 10499  002E                     i1l94:	
 10500  002E  0020               	movlb	0	; select bank0
 10501  002F  0822               	movf	??_interupt1+1,w
 10502  0030  00FF               	movwf	127
 10503  0031  107E               	bcf	126,0	;clear compiler interrupt flag (level 1)
 10504  0032  0009               	retfie
 10505  0033                     __end_of_interupt1:	
 10506                           
 10507                           	psect	text41
 10508  1720                     __ptext41:	
 10509 ;; *************** function _interpretation *****************
 10510 ;; Defined at:
 10511 ;;		line 7 in file "app.c"
 10512 ;; Parameters:    Size  Location     Type
 10513 ;;		None
 10514 ;; Auto vars:     Size  Location     Type
 10515 ;;  i               1    0[BANK0 ] unsigned char 
 10516 ;; Return value:  Size  Location     Type
 10517 ;;                  1    wreg      void 
 10518 ;; Registers used:
 10519 ;;		wreg, fsr0l, fsr0h, fsr1l, fsr1h, status,2, status,0, pclath, cstack
 10520 ;; Tracked objects:
 10521 ;;		On entry : 0/0
 10522 ;;		On exit  : 0/0
 10523 ;;		Unchanged: 0/0
 10524 ;; Data sizes:     COMMON   BANK0   BANK1   BANK2   BANK3   BANK4   BANK5   BANK6   BANK7   BANK8   BANK9  BANK10  BANK1
      +1  BANK12
 10525 ;;      Params:         0       0       0       0       0       0       0       0       0       0       0       0       
      +0       0
 10526 ;;      Locals:         0       1       0       0       0       0       0       0       0       0       0       0       
      +0       0
 10527 ;;      Temps:          2       0       0       0       0       0       0       0       0       0       0       0       
      +0       0
 10528 ;;      Totals:         2       1       0       0       0       0       0       0       0       0       0       0       
      +0       0
 10529 ;;Total ram usage:        3 bytes
 10530 ;; Hardware stack levels used:    1
 10531 ;; Hardware stack levels required when called:    3
 10532 ;; This function calls:
 10533 ;;		_printf
 10534 ;; This function is called by:
 10535 ;;		_interupt1
 10536 ;; This function uses a non-reentrant model
 10537 ;;
 10538                           
 10539                           
 10540                           ;psect for function _interpretation
 10541  1720                     _interpretation:	
 10542                           
 10543                           ;app.c: 9: uint8_t i ;
 10544                           ;app.c: 10: monBuffer.len = 0;
 10545                           
 10546                           ;incstack = 0
 10547                           ; Regs used in _interpretation: [wreg-fsr1h+status,2+status,0+pclath+cstack]
 10548  1720  0021               	movlb	1	; select bank1
 10549  1721  01A3               	clrf	(_monBuffer^(0+128)+3)
 10550                           
 10551                           ;app.c: 11: printf("la commande est : \r\n");
 10552  1722  3000               	movlw	low (STR_1| (0+32768))
 10553  1723  00F2               	movwf	printf@f
 10554  1724  3098               	movlw	high (STR_1| (0+32768))
 10555  1725  00F3               	movwf	printf@f+1
 10556  1726  3188  20BA  3197   	fcall	_printf
 10557                           
 10558                           ;app.c: 12: for(i=0;i<3;i++)
 10559  1729  0020               	movlb	0	; select bank0
 10560  172A  01A0               	clrf	interpretation@i
 10561  172B                     L1:	
 10562  172B  3003               	movlw	3
 10563  172C  0220               	subwf	interpretation@i,w
 10564  172D  1803               	btfsc	3,0
 10565  172E  0008               	return
 10566                           
 10567                           ;app.c: 13: {
 10568                           ;app.c: 14: printf(" %c",monBuffer.data[i]);
 10569  172F  3015               	movlw	low (STR_2| (0+32768))
 10570  1730  00F2               	movwf	printf@f
 10571  1731  3098               	movlw	high (STR_2| (0+32768))
 10572  1732  00F3               	movwf	printf@f+1
 10573  1733  0820               	movf	interpretation@i,w
 10574  1734  3EA0               	addlw	(low (_monBuffer| 0))& (0+255)
 10575  1735  0086               	movwf	6
 10576  1736  0187               	clrf	7
 10577  1737  0801               	movf	1,w
 10578  1738  00FC               	movwf	??_interpretation
 10579  1739  01FD               	clrf	??_interpretation+1
 10580  173A  087C               	movf	??_interpretation,w
 10581  173B  00F4               	movwf	?_printf+2
 10582  173C  087D               	movf	??_interpretation+1,w
 10583  173D  00F5               	movwf	?_printf+3
 10584  173E  3188  20BA  3197   	fcall	_printf
 10585  1741  3001               	movlw	1
 10586  1742  00FC               	movwf	??_interpretation
 10587  1743  087C               	movf	??_interpretation,w
 10588  1744  0020               	movlb	0	; select bank0
 10589  1745  07A0               	addwf	interpretation@i,f
 10590  1746  2F2B               	goto	L1
 10591  1747                     __end_of_interpretation:	
 10592                           
 10593                           	psect	text42
 10594  08BA                     __ptext42:	
 10595 ;; *************** function _printf *****************
 10596 ;; Defined at:
 10597 ;;		line 464 in file "/opt/microchip/xc8/v1.45/sources/common/doprnt.c"
 10598 ;; Parameters:    Size  Location     Type
 10599 ;;  f               2    2[COMMON] PTR const unsigned char 
 10600 ;;		 -> STR_2(4), STR_1(21), 
 10601 ;; Auto vars:     Size  Location     Type
 10602 ;;  tmpval          4    0        struct .
 10603 ;;  cp              2    0        PTR const unsigned char 
 10604 ;;  len             2    0        unsigned int 
 10605 ;;  val             2    0        unsigned int 
 10606 ;;  c               1   11[COMMON] char 
 10607 ;;  ap              1   10[COMMON] PTR void [1]
 10608 ;;		 -> ?_printf(2), 
 10609 ;;  flag            1    9[COMMON] unsigned char 
 10610 ;;  prec            1    0        char 
 10611 ;; Return value:  Size  Location     Type
 10612 ;;                  2    2[COMMON] int 
 10613 ;; Registers used:
 10614 ;;		wreg, fsr0l, fsr0h, fsr1l, fsr1h, status,2, status,0, pclath, cstack
 10615 ;; Tracked objects:
 10616 ;;		On entry : 0/0
 10617 ;;		On exit  : 0/0
 10618 ;;		Unchanged: 0/0
 10619 ;; Data sizes:     COMMON   BANK0   BANK1   BANK2   BANK3   BANK4   BANK5   BANK6   BANK7   BANK8   BANK9  BANK10  BANK1
      +1  BANK12
 10620 ;;      Params:         4       0       0       0       0       0       0       0       0       0       0       0       
      +0       0
 10621 ;;      Locals:         3       0       0       0       0       0       0       0       0       0       0       0       
      +0       0
 10622 ;;      Temps:          3       0       0       0       0       0       0       0       0       0       0       0       
      +0       0
 10623 ;;      Totals:        10       0       0       0       0       0       0       0       0       0       0       0       
      +0       0
 10624 ;;Total ram usage:       10 bytes
 10625 ;; Hardware stack levels used:    1
 10626 ;; Hardware stack levels required when called:    2
 10627 ;; This function calls:
 10628 ;;		_putch
 10629 ;; This function is called by:
 10630 ;;		_interpretation
 10631 ;; This function uses a non-reentrant model
 10632 ;;
 10633                           
 10634                           
 10635                           ;psect for function _printf
 10636  08BA                     _printf:	
 10637                           
 10638                           ;doprnt.c: 466: va_list ap;
 10639                           ;doprnt.c: 499: signed char c;
 10640                           ;doprnt.c: 506: signed char prec;
 10641                           ;doprnt.c: 508: unsigned char flag;
 10642                           ;doprnt.c: 523: union {
 10643                           ;doprnt.c: 524: unsigned long vd;
 10644                           ;doprnt.c: 525: double integ;
 10645                           ;doprnt.c: 526: } tmpval;
 10646                           ;doprnt.c: 528: unsigned int val;
 10647                           ;doprnt.c: 529: unsigned len;
 10648                           ;doprnt.c: 530: const char * cp;
 10649                           ;doprnt.c: 533: *ap = __va_start();
 10650                           
 10651                           ;incstack = 0
 10652                           ; Regs used in _printf: [wreg-fsr1h+status,2+status,0+pclath+cstack]
 10653  08BA  3074               	movlw	(low ((?_printf| 0+2)))& (0+255)
 10654  08BB  00F6               	movwf	??_printf
 10655  08BC  0876               	movf	??_printf,w
 10656  08BD  00FA               	movwf	printf@ap
 10657  08BE                     i1l1727:	
 10658                           ;doprnt.c: 1422: {
 10659                           
 10660                           ;doprnt.c: 536: while(c = *f++) {
 10661                           
 10662  08BE  0873               	movf	printf@f+1,w
 10663  08BF  00F7               	movwf	??_printf+1
 10664  08C0  0872               	movf	printf@f,w
 10665  08C1  00F6               	movwf	??_printf
 10666  08C2  0AF2               	incf	printf@f,f
 10667  08C3  1903               	skipnz
 10668  08C4  0AF3               	incf	printf@f+1,f
 10669  08C5  0876               	movf	??_printf,w
 10670  08C6  0084               	movwf	4
 10671  08C7  0877               	movf	??_printf+1,w
 10672  08C8  0085               	movwf	5
 10673  08C9  0800               	movf	0,w	;code access
 10674  08CA  00F8               	movwf	??_printf+2
 10675  08CB  0878               	movf	??_printf+2,w
 10676  08CC  00FB               	movwf	printf@c
 10677  08CD  087B               	movf	printf@c,w
 10678  08CE  1903               	btfsc	3,2
 10679  08CF  0008               	return
 10680                           
 10681                           ;doprnt.c: 538: if(c != '%')
 10682  08D0  3025               	movlw	37
 10683  08D1  067B               	xorwf	printf@c,w
 10684  08D2  1903               	btfsc	3,2
 10685  08D3  28D9               	goto	i1l1715
 10686                           
 10687                           ;doprnt.c: 540: {
 10688                           ;doprnt.c: 541: (putch(c) );
 10689  08D4  087B               	movf	printf@c,w
 10690  08D5  3195  25F7  3188   	fcall	_putch
 10691                           
 10692                           ;doprnt.c: 542: continue;
 10693  08D8  28BE               	goto	i1l1727
 10694  08D9                     i1l1715:	
 10695                           
 10696                           ;doprnt.c: 543: }
 10697                           ;doprnt.c: 548: flag = 0;
 10698  08D9  01F9               	clrf	printf@flag
 10699                           
 10700                           ;doprnt.c: 635: switch(c = *f++) {
 10701  08DA  28EB               	goto	i1l1725
 10702  08DB                     i1l1717:	
 10703                           ;doprnt.c: 784: case 'c':
 10704                           
 10705                           ;doprnt.c: 638: goto alldone;
 10706                           
 10707                           ;doprnt.c: 637: case 0:
 10708                           
 10709                           
 10710                           ;doprnt.c: 799: c = (*(int *)__va_arg((*(int **)ap), (int)0));
 10711  08DB  087A               	movf	printf@ap,w
 10712  08DC  0086               	movwf	6
 10713  08DD  0187               	clrf	7
 10714  08DE  0801               	movf	1,w
 10715  08DF  00F6               	movwf	??_printf
 10716  08E0  0876               	movf	??_printf,w
 10717  08E1  00FB               	movwf	printf@c
 10718  08E2  3002               	movlw	2
 10719  08E3  00F6               	movwf	??_printf
 10720  08E4  0876               	movf	??_printf,w
 10721  08E5  07FA               	addwf	printf@ap,f
 10722  08E6                     i1l1721:	
 10723                           ;doprnt.c: 802: default:
 10724                           
 10725                           
 10726                           ;doprnt.c: 809: (putch(c) );
 10727  08E6  087B               	movf	printf@c,w
 10728  08E7  3195  25F7  3188   	fcall	_putch
 10729                           
 10730                           ;doprnt.c: 822: }
 10731                           
 10732                           ;doprnt.c: 810: continue;
 10733  08EA  28BE               	goto	i1l1727
 10734  08EB                     i1l1725:	
 10735  08EB  0873               	movf	printf@f+1,w
 10736  08EC  00F7               	movwf	??_printf+1
 10737  08ED  0872               	movf	printf@f,w
 10738  08EE  00F6               	movwf	??_printf
 10739  08EF  0AF2               	incf	printf@f,f
 10740  08F0  1903               	skipnz
 10741  08F1  0AF3               	incf	printf@f+1,f
 10742  08F2  0876               	movf	??_printf,w
 10743  08F3  0084               	movwf	4
 10744  08F4  0877               	movf	??_printf+1,w
 10745  08F5  0085               	movwf	5
 10746  08F6  0800               	movf	0,w	;code access
 10747  08F7  00FB               	movwf	printf@c
 10748                           
 10749                           ; Switch size 1, requested type "space"
 10750                           ; Number of cases is 2, Range of values is 0 to 99
 10751                           ; switch strategies available:
 10752                           ; Name         Instructions Cycles
 10753                           ; simple_byte            7     4 (average)
 10754                           ; direct_byte          206     6 (fixed)
 10755                           ; jumptable            260     6 (fixed)
 10756                           ;	Chosen strategy is simple_byte
 10757  08F8  3A00               	xorlw	0	; case 0
 10758  08F9  1903               	skipnz
 10759  08FA  2900               	goto	i1l405
 10760  08FB  3A63               	xorlw	99	; case 99
 10761  08FC  1903               	skipnz
 10762  08FD  28DB               	goto	i1l1717
 10763  08FE  28E6               	goto	i1l1721
 10764  08FF  28BE               	goto	i1l1727
 10765  0900                     i1l405:	
 10766                           ;doprnt.c: 1540: return 0;
 10767                           ;	Return value of _printf is never used
 10768                           
 10769                           ;doprnt.c: 1469: }
 10770                           ;doprnt.c: 1533: }
 10771                           ;doprnt.c: 1535: alldone:
 10772                           
 10773  0900  0008               	return
 10774  0901                     __end_of_printf:	
 10775                           
 10776                           	psect	text43
 10777  15F7                     __ptext43:	
 10778 ;; *************** function _putch *****************
 10779 ;; Defined at:
 10780 ;;		line 89 in file "eusart.c"
 10781 ;; Parameters:    Size  Location     Type
 10782 ;;  txData          1    wreg     unsigned char 
 10783 ;; Auto vars:     Size  Location     Type
 10784 ;;  txData          1    1[COMMON] unsigned char 
 10785 ;; Return value:  Size  Location     Type
 10786 ;;                  1    wreg      void 
 10787 ;; Registers used:
 10788 ;;		wreg, status,2, status,0, pclath, cstack
 10789 ;; Tracked objects:
 10790 ;;		On entry : 0/0
 10791 ;;		On exit  : 0/0
 10792 ;;		Unchanged: 0/0
 10793 ;; Data sizes:     COMMON   BANK0   BANK1   BANK2   BANK3   BANK4   BANK5   BANK6   BANK7   BANK8   BANK9  BANK10  BANK1
      +1  BANK12
 10794 ;;      Params:         0       0       0       0       0       0       0       0       0       0       0       0       
      +0       0
 10795 ;;      Locals:         1       0       0       0       0       0       0       0       0       0       0       0       
      +0       0
 10796 ;;      Temps:          0       0       0       0       0       0       0       0       0       0       0       0       
      +0       0
 10797 ;;      Totals:         1       0       0       0       0       0       0       0       0       0       0       0       
      +0       0
 10798 ;;Total ram usage:        1 bytes
 10799 ;; Hardware stack levels used:    1
 10800 ;; Hardware stack levels required when called:    1
 10801 ;; This function calls:
 10802 ;;		_EUSART_Write
 10803 ;; This function is called by:
 10804 ;;		_printf
 10805 ;; This function uses a non-reentrant model
 10806 ;;
 10807                           
 10808                           
 10809                           ;psect for function _putch
 10810  15F7                     _putch:	
 10811                           
 10812                           ;incstack = 0
 10813                           ; Regs used in _putch: [wreg+status,2+status,0+pclath+cstack]
 10814                           ;putch@txData stored from wreg
 10815  15F7  00F1               	movwf	putch@txData
 10816                           
 10817                           ;eusart.c: 91: EUSART_Write(txData);
 10818  15F8  0871               	movf	putch@txData,w
 10819  15F9  3196  2619         	fcall	_EUSART_Write
 10820  15FB  0008               	return
 10821  15FC                     __end_of_putch:	
 10822                           
 10823                           	psect	text44
 10824  1619                     __ptext44:	
 10825 ;; *************** function _EUSART_Write *****************
 10826 ;; Defined at:
 10827 ;;		line 75 in file "eusart.c"
 10828 ;; Parameters:    Size  Location     Type
 10829 ;;  txData          1    wreg     unsigned char 
 10830 ;; Auto vars:     Size  Location     Type
 10831 ;;  txData          1    0[COMMON] unsigned char 
 10832 ;; Return value:  Size  Location     Type
 10833 ;;                  1    wreg      void 
 10834 ;; Registers used:
 10835 ;;		wreg
 10836 ;; Tracked objects:
 10837 ;;		On entry : 0/0
 10838 ;;		On exit  : 0/0
 10839 ;;		Unchanged: 0/0
 10840 ;; Data sizes:     COMMON   BANK0   BANK1   BANK2   BANK3   BANK4   BANK5   BANK6   BANK7   BANK8   BANK9  BANK10  BANK1
      +1  BANK12
 10841 ;;      Params:         0       0       0       0       0       0       0       0       0       0       0       0       
      +0       0
 10842 ;;      Locals:         1       0       0       0       0       0       0       0       0       0       0       0       
      +0       0
 10843 ;;      Temps:          0       0       0       0       0       0       0       0       0       0       0       0       
      +0       0
 10844 ;;      Totals:         1       0       0       0       0       0       0       0       0       0       0       0       
      +0       0
 10845 ;;Total ram usage:        1 bytes
 10846 ;; Hardware stack levels used:    1
 10847 ;; This function calls:
 10848 ;;		Nothing
 10849 ;; This function is called by:
 10850 ;;		_putch
 10851 ;; This function uses a non-reentrant model
 10852 ;;
 10853                           
 10854                           
 10855                           ;psect for function _EUSART_Write
 10856  1619                     _EUSART_Write:	
 10857                           
 10858                           ;incstack = 0
 10859                           ; Regs used in _EUSART_Write: [wreg]
 10860                           ;EUSART_Write@txData stored from wreg
 10861  1619  00F0               	movwf	EUSART_Write@txData
 10862  161A                     i1l44:	
 10863                           ;eusart.c: 78: {
 10864                           
 10865                           ;eusart.c: 77: while(0 == PIR1bits.TXIF)
 10866                           
 10867  161A  0020               	movlb	0	; select bank0
 10868  161B  1E11               	btfss	17,4	;volatile
 10869  161C  2E1A               	goto	i1l44
 10870                           
 10871                           ;eusart.c: 79: }
 10872                           ;eusart.c: 81: TX1REG = txData;
 10873  161D  0870               	movf	EUSART_Write@txData,w
 10874  161E  0023               	movlb	3	; select bank3
 10875  161F  009A               	movwf	26	;volatile
 10876  1620  0008               	return
 10877  1621                     __end_of_EUSART_Write:	
 10878                           
 10879                           	psect	text45
 10880  1650                     __ptext45:	
 10881 ;; *************** function _EUSART_Read *****************
 10882 ;; Defined at:
 10883 ;;		line 55 in file "eusart.c"
 10884 ;; Parameters:    Size  Location     Type
 10885 ;;		None
 10886 ;; Auto vars:     Size  Location     Type
 10887 ;;		None
 10888 ;; Return value:  Size  Location     Type
 10889 ;;                  1    wreg      unsigned char 
 10890 ;; Registers used:
 10891 ;;		wreg
 10892 ;; Tracked objects:
 10893 ;;		On entry : 0/0
 10894 ;;		On exit  : 0/0
 10895 ;;		Unchanged: 0/0
 10896 ;; Data sizes:     COMMON   BANK0   BANK1   BANK2   BANK3   BANK4   BANK5   BANK6   BANK7   BANK8   BANK9  BANK10  BANK1
      +1  BANK12
 10897 ;;      Params:         0       0       0       0       0       0       0       0       0       0       0       0       
      +0       0
 10898 ;;      Locals:         0       0       0       0       0       0       0       0       0       0       0       0       
      +0       0
 10899 ;;      Temps:          0       0       0       0       0       0       0       0       0       0       0       0       
      +0       0
 10900 ;;      Totals:         0       0       0       0       0       0       0       0       0       0       0       0       
      +0       0
 10901 ;;Total ram usage:        0 bytes
 10902 ;; Hardware stack levels used:    1
 10903 ;; This function calls:
 10904 ;;		Nothing
 10905 ;; This function is called by:
 10906 ;;		_interupt1
 10907 ;;		_getch
 10908 ;; This function uses a non-reentrant model
 10909 ;;
 10910                           
 10911                           
 10912                           ;psect for function _EUSART_Read
 10913  1650                     _EUSART_Read:	
 10914                           
 10915                           ;eusart.c: 58: RC1STAbits.SREN = 1;
 10916                           
 10917                           ;incstack = 0
 10918                           ; Regs used in _EUSART_Read: [wreg]
 10919  1650  0023               	movlb	3	; select bank3
 10920  1651  169D               	bsf	29,5	;volatile
 10921  1652                     i1l37:	
 10922                           ;eusart.c: 60: {
 10923                           
 10924                           ;eusart.c: 59: while(!PIR1bits.RCIF)
 10925                           
 10926  1652  0020               	movlb	0	; select bank0
 10927  1653  1E91               	btfss	17,5	;volatile
 10928  1654  2E52               	goto	i1l37
 10929                           
 10930                           ;eusart.c: 61: }
 10931                           ;eusart.c: 64: if(1 == RC1STAbits.OERR)
 10932  1655  0023               	movlb	3	; select bank3
 10933  1656  1C9D               	btfss	29,1	;volatile
 10934  1657  2E5A               	goto	i1l1861
 10935                           
 10936                           ;eusart.c: 65: {
 10937                           ;eusart.c: 68: RC1STAbits.SPEN = 0;
 10938  1658  139D               	bcf	29,7	;volatile
 10939                           
 10940                           ;eusart.c: 69: RC1STAbits.SPEN = 1;
 10941  1659  179D               	bsf	29,7	;volatile
 10942  165A                     i1l1861:	
 10943                           
 10944                           ;eusart.c: 70: }
 10945                           ;eusart.c: 72: return RC1REG;
 10946  165A  0819               	movf	25,w	;volatile
 10947  165B  0008               	return
 10948  165C                     __end_of_EUSART_Read:	
 10949  007E                     btemp	set	126	;btemp
 10950  007E                     int$flags	set	126
 10951  007E                     wtemp0	set	126


Data Sizes:
    Strings     25
    Constant    0
    Data        0
    BSS         42
    Persistent  0
    Stack       0

Auto Spaces:
    Space          Size  Autos    Used
    COMMON           14     14      14
    BANK0            80     72      77
    BANK1            80     31      68
    BANK2            80      0       0
    BANK3            80      0       0
    BANK4            80      0       0
    BANK5            80      0       0
    BANK6            80      0       0
    BANK7            80      0       0
    BANK8            80      0       0
    BANK9            80      0       0
    BANK10           80      0       0
    BANK11           80      0       0
    BANK12           48      0       0

Pointer List with Targets:

    printf@f	PTR const unsigned char  size(2) Largest target is 21
		 -> STR_2(CODE[4]), STR_1(CODE[21]), 

    printf@ap	PTR void [1] size(1) Largest target is 2
		 -> ?_printf(COMMON[2]), 


Critical Paths under _main in COMMON

    None.

Critical Paths under _interupt1 in COMMON

    _interupt1->_interpretation
    _interpretation->_printf
    _printf->_putch
    _putch->_EUSART_Write

Critical Paths under _main in BANK0

    _main->_BME280_readTemperature
    _readSensorCoefficients->_BME280_readS16_LE
    _BME280_readS16_LE->_BME280_read16_LE
    _BME280_read16_LE->_BME280_read16
    _SYSTEM_Initialize->_I2C_Master_Init
    _I2C_Master_Init->___lldiv
    _LireLux->___fttol
    ___lwtoft->___ftpack
    ___fttol->___ftdiv
    _BH1750_Write->_I2C_Master_Write
    _BH1750_Read->_I2C_Master_Read
    _BME280_readTemperature->___ftdiv
    _BME280_readPressure->___ftdiv
    ___lltoft->___ftpack
    _BME280_read24->_I2C_Master_Read
    _BME280_readHumidity->___ftdiv
    ___ftdiv->___lltoft
    ___altoft->___lmul
    _BME280_read16->_I2C_Master_Read
    _BME280_goForceMode->_BME280_read8
    _BME280_write8->_I2C_Master_Write
    _BME280_read8->_I2C_Master_Read

Critical Paths under _interupt1 in BANK0

    _interupt1->_interpretation

Critical Paths under _main in BANK1

    _main->_BME280_readHumidity

Critical Paths under _interupt1 in BANK1

    None.

Critical Paths under _main in BANK2

    None.

Critical Paths under _interupt1 in BANK2

    None.

Critical Paths under _main in BANK3

    None.

Critical Paths under _interupt1 in BANK3

    None.

Critical Paths under _main in BANK4

    None.

Critical Paths under _interupt1 in BANK4

    None.

Critical Paths under _main in BANK5

    None.

Critical Paths under _interupt1 in BANK5

    None.

Critical Paths under _main in BANK6

    None.

Critical Paths under _interupt1 in BANK6

    None.

Critical Paths under _main in BANK7

    None.

Critical Paths under _interupt1 in BANK7

    None.

Critical Paths under _main in BANK8

    None.

Critical Paths under _interupt1 in BANK8

    None.

Critical Paths under _main in BANK9

    None.

Critical Paths under _interupt1 in BANK9

    None.

Critical Paths under _main in BANK10

    None.

Critical Paths under _interupt1 in BANK10

    None.

Critical Paths under _main in BANK11

    None.

Critical Paths under _interupt1 in BANK11

    None.

Critical Paths under _main in BANK12

    None.

Critical Paths under _interupt1 in BANK12

    None.

Call Graph Tables:

 ---------------------------------------------------------------------------------
 (Depth) Function   	        Calls       Base Space   Used Autos Params    Refs
 ---------------------------------------------------------------------------------
 (0) _main                                                13    13      0   60005
                                             59 BANK0     13    13      0
                 _BME280_goForceMode
                _BME280_readHumidity
                _BME280_readPressure
             _BME280_readTemperature
                      _BME280_write8
              _EnableGlobalinterupts
          _EnablePeripheralInterupts
                  _EnableRXInterupts
                            _LireLux
                  _SYSTEM_Initialize
             _readSensorCoefficients
                           _spiWrite
 ---------------------------------------------------------------------------------
 (1) _spiWrite                                             1     1      0      31
                                              3 BANK0      1     1      0
 ---------------------------------------------------------------------------------
 (1) _readSensorCoefficients                               5     5      0    6031
                                             29 BANK0      5     5      0
                   _BME280_read16_LE
                       _BME280_read8
                  _BME280_readS16_LE
 ---------------------------------------------------------------------------------
 (2) _BME280_readS16_LE                                    4     1      3    2065
                                             25 BANK0      4     1      3
                   _BME280_read16_LE
 ---------------------------------------------------------------------------------
 (3) _BME280_read16_LE                                     9     7      2    2034
                                             16 BANK0      9     7      2
                      _BME280_read16
 ---------------------------------------------------------------------------------
 (1) _SYSTEM_Initialize                                    0     0      0    1228
                  _EUSART_Initialize
                    _I2C_Master_Init
              _OSCILLATOR_Initialize
             _PIN_MANAGER_Initialize
                     _PMD_Initialize
                     _WDT_Initialize
                            _spiInit
 ---------------------------------------------------------------------------------
 (2) _spiInit                                              4     1      3     417
                                              3 BANK0      4     1      3
 ---------------------------------------------------------------------------------
 (2) _WDT_Initialize                                       0     0      0       0
 ---------------------------------------------------------------------------------
 (2) _PMD_Initialize                                       0     0      0       0
 ---------------------------------------------------------------------------------
 (2) _PIN_MANAGER_Initialize                               0     0      0       0
 ---------------------------------------------------------------------------------
 (2) _OSCILLATOR_Initialize                                0     0      0       0
 ---------------------------------------------------------------------------------
 (2) _I2C_Master_Init                                      8     4      4     811
                                             17 BANK0      8     4      4
                            ___lldiv
 ---------------------------------------------------------------------------------
 (2) _EUSART_Initialize                                    0     0      0       0
 ---------------------------------------------------------------------------------
 (1) _LireLux                                              6     4      2    9743
                                             47 BANK0      6     4      2
                        _BH1750_Read
                       _BH1750_Write
                            ___ftdiv
                            ___fttol
                           ___lwtoft
 ---------------------------------------------------------------------------------
 (2) ___lwtoft                                             4     1      3    2572
                                             11 BANK0      4     1      3
                           ___ftpack
 ---------------------------------------------------------------------------------
 (2) ___fttol                                             14    10      4     448
                                             33 BANK0     14    10      4
                            ___ftdiv (ARG)
                           ___lwtoft (ARG)
 ---------------------------------------------------------------------------------
 (2) _BH1750_Write                                         3     3      0    1217
                                              5 BANK0      3     3      0
                   _I2C_Master_Start
                    _I2C_Master_Stop
                   _I2C_Master_Write
 ---------------------------------------------------------------------------------
 (2) _BH1750_Read                                          4     2      2    1907
                                              9 BANK0      4     2      2
                    _I2C_Master_Read
                   _I2C_Master_Start
                    _I2C_Master_Stop
                    _I2C_Master_Wait
                   _I2C_Master_Write
 ---------------------------------------------------------------------------------
 (1) _EnableRXInterupts                                    0     0      0       0
 ---------------------------------------------------------------------------------
 (1) _EnablePeripheralInterupts                            0     0      0       0
 ---------------------------------------------------------------------------------
 (1) _EnableGlobalinterupts                                0     0      0       0
 ---------------------------------------------------------------------------------
 (1) _BME280_readTemperature                              45    42      3   12213
                                             33 BANK0     26    23      3
                                              0 BANK1     19    19      0
                      _BME280_read24
                           ___altoft
                            ___ftdiv
                             ___lmul
 ---------------------------------------------------------------------------------
 (1) _BME280_readPressure                                 40    37      3   13353
                                             33 BANK0     20    17      3
                                              0 BANK1     20    20      0
                      _BME280_read24
                            ___ftdiv
                            ___lldiv
                           ___lltoft
                             ___lmul
 ---------------------------------------------------------------------------------
 (2) ___lltoft                                             6     2      4    2643
                                             11 BANK0      6     2      4
                           ___ftpack
 ---------------------------------------------------------------------------------
 (3) ___lldiv                                             14     6      8     703
                                              3 BANK0     14     6      8
 ---------------------------------------------------------------------------------
 (2) _BME280_read24                                       13     9      4    1944
                                              9 BANK0     13     9      4
                    _I2C_Master_Read
                   _I2C_Master_Start
                    _I2C_Master_Stop
                    _I2C_Master_Wait
                   _I2C_Master_Write
 ---------------------------------------------------------------------------------
 (1) _BME280_readHumidity                                 51    48      3   12436
                                             33 BANK0     20    17      3
                                              0 BANK1     31    31      0
                      _BME280_read16
                           ___altoft
                            ___ftdiv
                             ___lmul
 ---------------------------------------------------------------------------------
 (2) ___lmul                                              12     4      8    3678
                                              3 BANK0     12     4      8
 ---------------------------------------------------------------------------------
 (2) ___ftdiv                                             16    10      6    3500
                                             17 BANK0     16    10      6
                           ___ftpack
                           ___lltoft (ARG)
                           ___lwtoft (ARG)
 ---------------------------------------------------------------------------------
 (2) ___altoft                                             8     4      4    2822
                                             15 BANK0      8     4      4
                           ___ftpack
                             ___lmul (ARG)
 ---------------------------------------------------------------------------------
 (3) ___ftpack                                             8     3      5    2464
                                              3 BANK0      8     3      5
 ---------------------------------------------------------------------------------
 (4) _BME280_read16                                        7     5      2    1938
                                              9 BANK0      7     5      2
                    _I2C_Master_Read
                   _I2C_Master_Start
                    _I2C_Master_Stop
                    _I2C_Master_Wait
                   _I2C_Master_Write
 ---------------------------------------------------------------------------------
 (1) _BME280_goForceMode                                   2     2      0    3479
                                             13 BANK0      2     2      0
                       _BME280_read8
                      _BME280_write8
 ---------------------------------------------------------------------------------
 (1) _BME280_write8                                        4     3      1    1479
                                              5 BANK0      4     3      1
                   _I2C_Master_Start
                    _I2C_Master_Stop
                    _I2C_Master_Wait
                   _I2C_Master_Write
 ---------------------------------------------------------------------------------
 (2) _BME280_read8                                         4     4      0    1932
                                              9 BANK0      4     4      0
                    _I2C_Master_Read
                   _I2C_Master_Start
                    _I2C_Master_Stop
                    _I2C_Master_Wait
                   _I2C_Master_Write
 ---------------------------------------------------------------------------------
 (5) _I2C_Master_Write                                     2     0      2    1186
                                              3 BANK0      2     0      2
                    _I2C_Master_Wait
 ---------------------------------------------------------------------------------
 (5) _I2C_Master_Stop                                      0     0      0       0
                    _I2C_Master_Wait
 ---------------------------------------------------------------------------------
 (5) _I2C_Master_Start                                     0     0      0       0
                    _I2C_Master_Wait
 ---------------------------------------------------------------------------------
 (5) _I2C_Master_Read                                      6     4      2     681
                                              3 BANK0      6     4      2
                    _I2C_Master_Wait
 ---------------------------------------------------------------------------------
 (6) _I2C_Master_Wait                                      0     0      0       0
 ---------------------------------------------------------------------------------
 Estimated maximum stack depth 6
 ---------------------------------------------------------------------------------
 (Depth) Function   	        Calls       Base Space   Used Autos Params    Refs
 ---------------------------------------------------------------------------------
 (7) _interupt1                                            2     2      0     378
                                              1 BANK0      2     2      0
                        _EUSART_Read
                     _interpretation
 ---------------------------------------------------------------------------------
 (8) _interpretation                                       3     3      0     378
                                             12 COMMON     2     2      0
                                              0 BANK0      1     1      0
                             _printf
 ---------------------------------------------------------------------------------
 (9) _printf                                              21    17      4     310
                                              2 COMMON    10     6      4
                              _putch
 ---------------------------------------------------------------------------------
 (10) _putch                                               1     1      0      44
                                              1 COMMON     1     1      0
                       _EUSART_Write
 ---------------------------------------------------------------------------------
 (11) _EUSART_Write                                        1     1      0      22
                                              0 COMMON     1     1      0
 ---------------------------------------------------------------------------------
 (8) _EUSART_Read                                          0     0      0       0
 ---------------------------------------------------------------------------------
 Estimated maximum stack depth 11
 ---------------------------------------------------------------------------------

 Call Graph Graphs:

 _main (ROOT)
   _BME280_goForceMode
     _BME280_read8
       _I2C_Master_Read
         _I2C_Master_Wait
       _I2C_Master_Start
         _I2C_Master_Wait
       _I2C_Master_Stop
         _I2C_Master_Wait
       _I2C_Master_Wait
       _I2C_Master_Write
         _I2C_Master_Wait
     _BME280_write8
       _I2C_Master_Start
         _I2C_Master_Wait
       _I2C_Master_Stop
         _I2C_Master_Wait
       _I2C_Master_Wait
       _I2C_Master_Write
         _I2C_Master_Wait
   _BME280_readHumidity
     _BME280_read16
       _I2C_Master_Read
         _I2C_Master_Wait
       _I2C_Master_Start
         _I2C_Master_Wait
       _I2C_Master_Stop
         _I2C_Master_Wait
       _I2C_Master_Wait
       _I2C_Master_Write
         _I2C_Master_Wait
     ___altoft
       ___ftpack
       ___lmul (ARG)
     ___ftdiv
       ___ftpack
       ___lltoft (ARG)
         ___ftpack
       ___lwtoft (ARG)
         ___ftpack
     ___lmul
   _BME280_readPressure
     _BME280_read24
       _I2C_Master_Read
         _I2C_Master_Wait
       _I2C_Master_Start
         _I2C_Master_Wait
       _I2C_Master_Stop
         _I2C_Master_Wait
       _I2C_Master_Wait
       _I2C_Master_Write
         _I2C_Master_Wait
     ___ftdiv
       ___ftpack
       ___lltoft (ARG)
         ___ftpack
       ___lwtoft (ARG)
         ___ftpack
     ___lldiv
     ___lltoft
       ___ftpack
     ___lmul
   _BME280_readTemperature
     _BME280_read24
       _I2C_Master_Read
         _I2C_Master_Wait
       _I2C_Master_Start
         _I2C_Master_Wait
       _I2C_Master_Stop
         _I2C_Master_Wait
       _I2C_Master_Wait
       _I2C_Master_Write
         _I2C_Master_Wait
     ___altoft
       ___ftpack
       ___lmul (ARG)
     ___ftdiv
       ___ftpack
       ___lltoft (ARG)
         ___ftpack
       ___lwtoft (ARG)
         ___ftpack
     ___lmul
   _BME280_write8
     _I2C_Master_Start
       _I2C_Master_Wait
     _I2C_Master_Stop
       _I2C_Master_Wait
     _I2C_Master_Wait
     _I2C_Master_Write
       _I2C_Master_Wait
   _EnableGlobalinterupts
   _EnablePeripheralInterupts
   _EnableRXInterupts
   _LireLux
     _BH1750_Read
       _I2C_Master_Read
         _I2C_Master_Wait
       _I2C_Master_Start
         _I2C_Master_Wait
       _I2C_Master_Stop
         _I2C_Master_Wait
       _I2C_Master_Wait
       _I2C_Master_Write
         _I2C_Master_Wait
     _BH1750_Write
       _I2C_Master_Start
         _I2C_Master_Wait
       _I2C_Master_Stop
         _I2C_Master_Wait
       _I2C_Master_Write
         _I2C_Master_Wait
     ___ftdiv
       ___ftpack
       ___lltoft (ARG)
         ___ftpack
       ___lwtoft (ARG)
         ___ftpack
     ___fttol
       ___ftdiv (ARG)
         ___ftpack
         ___lltoft (ARG)
           ___ftpack
         ___lwtoft (ARG)
           ___ftpack
       ___lwtoft (ARG)
         ___ftpack
     ___lwtoft
       ___ftpack
   _SYSTEM_Initialize
     _EUSART_Initialize
     _I2C_Master_Init
       ___lldiv
     _OSCILLATOR_Initialize
     _PIN_MANAGER_Initialize
     _PMD_Initialize
     _WDT_Initialize
     _spiInit
   _readSensorCoefficients
     _BME280_read16_LE
       _BME280_read16
         _I2C_Master_Read
           _I2C_Master_Wait
         _I2C_Master_Start
           _I2C_Master_Wait
         _I2C_Master_Stop
           _I2C_Master_Wait
         _I2C_Master_Wait
         _I2C_Master_Write
           _I2C_Master_Wait
     _BME280_read8
       _I2C_Master_Read
         _I2C_Master_Wait
       _I2C_Master_Start
         _I2C_Master_Wait
       _I2C_Master_Stop
         _I2C_Master_Wait
       _I2C_Master_Wait
       _I2C_Master_Write
         _I2C_Master_Wait
     _BME280_readS16_LE
       _BME280_read16_LE
         _BME280_read16
           _I2C_Master_Read
             _I2C_Master_Wait
           _I2C_Master_Start
             _I2C_Master_Wait
           _I2C_Master_Stop
             _I2C_Master_Wait
           _I2C_Master_Wait
           _I2C_Master_Write
             _I2C_Master_Wait
   _spiWrite

 _interupt1 (ROOT)
   _EUSART_Read
   _interpretation
     _printf
       _putch
         _EUSART_Write

 Address spaces:
Name               Size   Autos  Total    Cost      Usage
BIGRAM             3F0      0       0       0        0.0%
EEDATA             100      0       0       0        0.0%
NULL                 0      0       0       0        0.0%
CODE                 0      0       0       0        0.0%
BITCOMMON            E      0       0       1        0.0%
BITSFR0              0      0       0       1        0.0%
SFR0                 0      0       0       1        0.0%
COMMON               E      E       E       2      100.0%
BITSFR1              0      0       0       2        0.0%
SFR1                 0      0       0       2        0.0%
BITSFR2              0      0       0       3        0.0%
SFR2                 0      0       0       3        0.0%
STACK                0      0       0       3        0.0%
BITBANK0            50      0       0       4        0.0%
BITSFR3              0      0       0       4        0.0%
SFR3                 0      0       0       4        0.0%
BANK0               50     48      4D       5       96.2%
BITSFR4              0      0       0       5        0.0%
SFR4                 0      0       0       5        0.0%
BITBANK1            50      0       0       6        0.0%
BITSFR5              0      0       0       6        0.0%
SFR5                 0      0       0       6        0.0%
BANK1               50     1F      44       7       85.0%
BITSFR6              0      0       0       7        0.0%
SFR6                 0      0       0       7        0.0%
BITBANK2            50      0       0       8        0.0%
BITSFR7              0      0       0       8        0.0%
SFR7                 0      0       0       8        0.0%
BANK2               50      0       0       9        0.0%
BITSFR8              0      0       0       9        0.0%
SFR8                 0      0       0       9        0.0%
BITBANK3            50      0       0      10        0.0%
BITSFR9              0      0       0      10        0.0%
SFR9                 0      0       0      10        0.0%
BANK3               50      0       0      11        0.0%
BITSFR10             0      0       0      11        0.0%
SFR10                0      0       0      11        0.0%
BITBANK4            50      0       0      12        0.0%
BITSFR11             0      0       0      12        0.0%
SFR11                0      0       0      12        0.0%
BANK4               50      0       0      13        0.0%
BITSFR12             0      0       0      13        0.0%
SFR12                0      0       0      13        0.0%
BITBANK5            50      0       0      14        0.0%
BITSFR13             0      0       0      14        0.0%
SFR13                0      0       0      14        0.0%
BANK5               50      0       0      15        0.0%
BITSFR14             0      0       0      15        0.0%
SFR14                0      0       0      15        0.0%
BITBANK6            50      0       0      16        0.0%
BITSFR15             0      0       0      16        0.0%
SFR15                0      0       0      16        0.0%
BANK6               50      0       0      17        0.0%
BITSFR16             0      0       0      17        0.0%
SFR16                0      0       0      17        0.0%
BITBANK7            50      0       0      18        0.0%
BITSFR17             0      0       0      18        0.0%
SFR17                0      0       0      18        0.0%
BANK7               50      0       0      19        0.0%
BITSFR18             0      0       0      19        0.0%
SFR18                0      0       0      19        0.0%
BITSFR19             0      0       0      20        0.0%
SFR19                0      0       0      20        0.0%
ABS                  0      0      9F      20        0.0%
BITBANK8            50      0       0      21        0.0%
BITSFR20             0      0       0      21        0.0%
SFR20                0      0       0      21        0.0%
BANK8               50      0       0      22        0.0%
BITSFR21             0      0       0      22        0.0%
SFR21                0      0       0      22        0.0%
BITBANK9            50      0       0      23        0.0%
BITSFR22             0      0       0      23        0.0%
SFR22                0      0       0      23        0.0%
BANK9               50      0       0      24        0.0%
BITSFR23             0      0       0      24        0.0%
SFR23                0      0       0      24        0.0%
BITBANK10           50      0       0      25        0.0%
BITSFR24             0      0       0      25        0.0%
SFR24                0      0       0      25        0.0%
BANK10              50      0       0      26        0.0%
BITSFR25             0      0       0      26        0.0%
SFR25                0      0       0      26        0.0%
BITBANK11           50      0       0      27        0.0%
BITSFR26             0      0       0      27        0.0%
SFR26                0      0       0      27        0.0%
BANK11              50      0       0      28        0.0%
BITSFR27             0      0       0      28        0.0%
SFR27                0      0       0      28        0.0%
BITBANK12           30      0       0      29        0.0%
BITSFR28             0      0       0      29        0.0%
SFR28                0      0       0      29        0.0%
BANK12              30      0       0      30        0.0%
BITSFR29             0      0       0      30        0.0%
SFR29                0      0       0      30        0.0%
BITSFR30             0      0       0      31        0.0%
SFR30                0      0       0      31        0.0%
DATA                 0      0      9F      31        0.0%
BITSFR31             0      0       0      32        0.0%
SFR31                0      0       0      32        0.0%


Microchip Technology PIC Macro Assembler V1.45 build -152302408 
Symbol Table                                                                                   Sun May  6 15:21:31 2018

                      ___altoft@exp 0035                         __CFG_CP$OFF 0000  
                     ___altoft@sign 0036                         __CFG_LVP$ON 0000  
                               l247 1621                                 l345 039F  
                               l359 16B7                                 l655 0A53  
                               l656 0A5B                                 l648 0A40  
                               l739 0B4D                        __CFG_CPD$OFF 0000  
           __size_of_PMD_Initialize 0008                                 wreg 0009  
          BME280_readHumidity@adc_H 00C5                        ?_EUSART_Read 0070  
    __size_of_EnableGlobalinterupts 0002       __end_of_EnableGlobalinterupts 15F4  
                      ___ftdiv@cntr 003B                        _BME280_read8 0877  
                      ___ftdiv@sign 0040                                l2131 0A27  
                              l2141 0A4D                                l2133 0A2C  
                              l2125 0A16                                l2311 07D8  
                              l2129 0A1D                                l2313 07E8  
                              l2161 0920                                l2139 0A45  
                              l2323 0731                                l2243 16B0  
                              l2173 094B                                l2405 174C  
                              l2351 07A1                                l2343 0788  
                              l2159 0912                                l2407 175C  
                              l2097 1719                                l2329 0747  
                              l2169 0940                                l2451 09C1  
                              l2293 17B3                                l2365 0AF9  
                              l2445 09B2                                l2535 036D  
                              l2391 0B44                                l2383 0B29  
                              l2447 09B7                                l2455 09C6  
                              l2289 17A9                                l2529 02D4  
                              l2393 0B50                                l2385 0B37  
                              l2449 09BC                                l2457 09D2  
                              l2555 0A93                                l2397 0B5E  
                              STR_1 1800                                STR_2 1815  
                              u2300 1717                                u3005 0EA8  
                              _LATA 010C                                u3015 0F00  
                              _LATC 010E                                u3025 0F20  
                              u3105 0148                                u3035 0F3C  
                              u3115 016F                                u2325 0991  
                              u3045 0F8D                                u3125 0187  
                              u3055 0FC6                                u3215 02F6  
                              u3135 01B5                                u2505 0941  
                              u3145 01D5                                u3065 0065  
                              u2435 0A62                                u2355 0A22  
                              u3235 03AF                                u3155 01F1  
                              u3075 008F                                u3307 0A9B  
                              u3245 03CE                                u3165 0230  
                              u3085 00AF                                u2525 17DE  
                              u3317 0AB6                                u2375 0A3B  
                              u3255 03E9                                u3175 0261  
                              u3095 00CB                                u3327 09D6  
                              u2625 07DD                                u2705 07A2  
                              u2465 0915                                u3265 0428  
                              u3185 0271                                u2545 081D  
                              u2395 0A48                                u2555 0BA6  
                              u3275 044D                                u3195 02B1  
                              u2565 0BC7                                u2485 0921  
                              u3285 0476                                u2495 0935  
                              u3295 04D9                                u2735 0B00  
                              u2665 0759                                u2585 17B4  
                              u2825 1751                                u2905 0617  
                              u2675 0769                                u2595 17BB  
                              u2915 063B                                _PMD0 0911  
                              u2685 0789                                u2925 067A  
                              u2765 0B2A                                u2845 0CC8  
                              _PMD1 0912                                _PMD2 0913  
                              u2695 0798                                u2935 06D0  
                              u2855 0538                                _PMD3 0914  
                              _PMD4 0915                                u2945 0D39  
                              u2865 054B                                _PMD5 0916  
                              u2955 0D7A                                u2875 056E  
                              u2795 0B45                                i1l44 161A  
                              i1l37 1652                                u2965 0DC0  
                              u2885 059F                                u2975 0E1D  
                              u2895 05DA                                u2985 0E3F  
                              u2995 0E5F                                i1l94 002E  
                              _WPUA 020C                                _WPUC 020E  
                      __CFG_WRT$OFF 0000                       __CFG_FCMEN$ON 0000  
                              _main 0A72                        ___ftpack@arg 0023  
                      ___ftpack@exp 0026                                fsr0h 0005  
                              fsr1h 0007                                indf0 0000  
                              fsr0l 0004                                indf1 0001  
                              fsr1l 0006                                btemp 007E  
                     __CFG_BOREN$ON 0000                       __CFG_BORV$LOW 0000  
                              start 0033                     ?_interpretation 0070  
                     __CFG_CSWEN$ON 0000                       __CFG_MCLRE$ON 0000  
                        LireLux@lux 0053   BME280_readTemperature@temperature 00D1  
                   __end_of_LireLux 0A0D                        ___fttol@exp1 004E  
                      ___fttol@lval 004A                    ?_I2C_Master_Init 0031  
                  ?_I2C_Master_Read 0023                    ?_I2C_Master_Wait 0070  
           ?_BME280_readTemperature 0041                       ?_EUSART_Write 0070  
                     _BME280_read24 0B67                       _BME280_read16 0954  
                  ?_I2C_Master_Stop 0070      __size_of_OSCILLATOR_Initialize 0009  
     __end_of_OSCILLATOR_Initialize 163A                               ?_main 0070  
                     __CFG_WDTE$OFF 0000                     __end_of___ftdiv 07C3  
                   __end_of___lldiv 0954                     __end_of___fttol 0B67  
                    __CFG_DEBUG$OFF 0000          BME280_readTemperature@var1 00C5  
        BME280_readTemperature@var2 00C9                               i1l405 0900  
                     _BME280_write8 1771                               _OSCEN 091D  
                             _TRISA 008C                               _TRISC 008E  
               ___lmul@multiplicand 0027                        ___lltoft@exp 0030  
                      main@humidity 0060                      _WDT_Initialize 0800  
          ??_readSensorCoefficients 003D                       ___ftpack@sign 0027  
      __size_of_BME280_readHumidity 0310                               _putch 15F7  
                   __end_of_spiInit 16BD                        main@pressure 0063  
                             status 0003                               wtemp0 007E  
      __size_of_BME280_readPressure 04DB                     __initialization 0035  
                      __end_of_main 0AE0      __end_of_BME280_readTemperature 071A  
                    ??_EUSART_Write 0070                      ?_BME280_read24 0029  
                    ?_BME280_read16 0029                              ??_main 005B  
                     ___fttol@sign1 0049                      ?_BME280_write8 0025  
                 ?_BME280_read16_LE 0030          ?_EnablePeripheralInterupts 0070  
                ??_BME280_read16_LE 0032                   ?_I2C_Master_Start 0070  
                 ?_I2C_Master_Write 0023              __end_of_WDT_Initialize 0804  
                ??_I2C_Master_Start 0023                  ??_I2C_Master_Write 0025  
                  __end_of___altoft 0800         BME280_readTemperature@adc_T 00D4  
                            _ANSELA 018C                              ?_putch 0070  
                            _ANSELC 018E                    __end_of___ftpack 0A72  
                __CFG_RSTOSC$HFINT1 0000                              _RC1REG 0199  
                            _RC1STA 019D                    __end_of___lltoft 1771  
                            i1l2023 001A                              _ODCONA 028C  
                            _ODCONC 028E                              i1l1721 08E6  
                            i1l1715 08D9                              i1l1717 08DB  
                            i1l1725 08EB                              i1l1727 08BE  
                            i1l1861 165A                    __end_of___lwtoft 1671  
                            _OSCFRQ 091F                              _TX1REG 019A  
                            _WDTCON 0097                              _TX1STA 019E  
                            _SSPBUF 0211                           ??_LireLux 0051  
                    __CFG_PWRTE$OFF 0000                       ??_BH1750_Read 002B  
                            ___lmul 17A0                      __CFG_STVREN$ON 0000  
                         ??___ftdiv 0037                           ??___lldiv 002B  
                         ??___fttol 0045                              _t_fine 0068  
        __end_of_BME280_goForceMode 1687                              _printf 08BA  
                    _PMD_Initialize 1629                     ?_WDT_Initialize 0070  
                  __end_of_spiWrite 160C   __end_of_EnablePeripheralInterupts 0004  
                         ??_spiInit 0026     __size_of_readSensorCoefficients 00FE  
              __size_of_EUSART_Read 000C                   _SYSTEM_Initialize 16D8  
           __end_of__initialization 0042                          ___altoft@c 002F  
                ?_SYSTEM_Initialize 0070                          ___ftdiv@f1 0034  
                        ___ftdiv@f2 0031                          ___ftdiv@f3 003C  
                        ___fttol@f1 0041                      __pcstackCOMMON 0070  
                   ??_BME280_read24 002D                     ??_BME280_read16 002B  
               ??_SYSTEM_Initialize 0039                          ___lltoft@c 002B  
               __end_of_BH1750_Read 0837                       __end_of_putch 15FC  
                   ??_BME280_write8 0026              __end_of_PMD_Initialize 1631  
                        ___lwtoft@c 002B           __end_of_SYSTEM_Initialize 16FB  
                           ??_putch 0071                          __pbssBANK0 0068  
                        __pbssBANK1 00A0                   _BME280_readS16_LE 1645  
              __end_of_EUSART_Write 1621                    ??_interpretation 007C  
                ?_BME280_readS16_LE 0039                       ?_BH1750_Write 0070  
                    _SSP1DATPPSbits 0E21                          __pmaintext 0A72  
                __size_of_interupt1 002F         _BME280_readTemperature$1420 00CD  
               ??_BME280_readS16_LE 003C                             ?___lmul 0023  
            _readSensorCoefficients 0BF2                     __CFG_PPS1WAY$ON 0000  
                        __pintentry 0004                 _BME280_readHumidity 0CF0  
                         ?___altoft 002F                      ___lmul@product 002B  
                    _SSP2DATPPSbits 0E1E                           ?___ftpack 0023  
                    _SSP1CLKPPSbits 0E20                             ?_printf 0072  
                   ?_PMD_Initialize 0070                           ?___lltoft 002B  
                         ?___lwtoft 002B        BME280_readHumidity@v_x1_u32r 00E0  
               _BME280_readPressure 0046                   _EnableRXInterupts 15F4  
                           _SP1BRGH 019C                             _SP1BRGL 019B  
                           _OSCCON1 0919                             _OSCCON3 091B  
                    _SSP2CLKPPSbits 0E1D                             _OSCTUNE 091E  
                           _SSP1ADD 0212                             _SSP2BUF 0219  
                ?_EnableRXInterupts 0070           __end_of_BME280_readS16_LE 1650  
              ?_BME280_readHumidity 0041               _EnableGlobalinterupts 15F2  
               ??_EnableRXInterupts 0023                             _RX_byte 006C  
              ?_BME280_readPressure 0041                BME280_read16_LE@temp 0037  
                           _LireLux 09AB                      ??_BH1750_Write 0025  
                       _BH1750_Read 0804            _BME280_readPressure$1426 00C9  
                         ?_spiWrite 0070                     __size_of___lmul 0030  
                           ___ftdiv 071A                             ___lldiv 0901  
                           ___fttol 0AE0                   BH1750_Write@data1 0027  
                        ??___altoft 0033                          ??___ftpack 0028  
                        ??___lltoft 002F                             __ptext1 1606  
                           __ptext2 0BF2                             __ptext3 1645  
                           __ptext4 16BD                             __ptext5 16D8  
                           __ptext6 16A2                             __ptext7 0800  
                           __ptext8 1629                             __ptext9 0837  
                   __size_of_printf 0047           __end_of_EnableRXInterupts 15F7  
                        ??___lwtoft 002E               _OSCILLATOR_Initialize 1631  
       ??_EnablePeripheralInterupts 0023            ??_PIN_MANAGER_Initialize 0023  
          __size_of_I2C_Master_Init 0030            __size_of_I2C_Master_Read 0025  
                           _spiInit 16A2            __size_of_I2C_Master_Wait 0008  
          __size_of_I2C_Master_Stop 0005                   __end_of_interupt1 0033  
             ??_BME280_readHumidity 0044          __size_of_SYSTEM_Initialize 0023  
                           clrloop0 160D                             main@lux 0066  
              end_of_initialization 0042           __size_of_BME280_read16_LE 001B  
             ??_BME280_readPressure 0044                   _EUSART_Initialize 163A  
         __size_of_I2C_Master_Start 0005           __size_of_I2C_Master_Write 0007  
                   ___lldiv@divisor 0023                    BME280_read24@reg 0031  
                  BME280_read16@reg 002D                     ___lldiv@counter 0030  
                ?_EUSART_Initialize 0070                             printf@c 007B  
                           printf@f 0072                    I2C_Master_Init@c 0031  
                        ??_spiWrite 0023                    I2C_Master_Read@a 0023  
                  BME280_read8@temp 002C                 ??_EUSART_Initialize 0023  
                  ??_WDT_Initialize 0023                  BME280_write8@value 0025  
                         _PORTCbits 000E                           _TRISAbits 008C  
                         _TRISCbits 008E               __size_of_EUSART_Write 0008  
        __size_of_BME280_readS16_LE 000B                  _BME280_goForceMode 1671  
                       spiWrite@dat 0023                    __CFG_FEXTOSC$OFF 0000  
            ?_EnableGlobalinterupts 0070                           _RXPPSbits 0E24  
         __end_of_EUSART_Initialize 1645                         ___ftdiv@exp 003F  
               ?_BME280_goForceMode 0070           _EnablePeripheralInterupts 0002  
            BME280_goForceMode@mode 002E                      __end_of___lmul 17D0  
                      _EUSART_Write 1619              ?_OSCILLATOR_Initialize 0070  
        __size_of_EnableRXInterupts 0003                ??_BME280_goForceMode 002D  
                    __end_of_printf 0901                 start_initialization 0035  
              __end_of_BH1750_Write 16A2     __size_of_PIN_MANAGER_Initialize 0040  
                     ??_EUSART_Read 0070                       ?_BME280_read8 0070  
                       putch@txData 0071                   ??_I2C_Master_Init 0035  
                 ??_I2C_Master_Read 0025                   ??_I2C_Master_Wait 0023  
                 ??_I2C_Master_Stop 0023                BME280_readS16_LE@reg 003C  
          ??_BME280_readTemperature 0044             ?_readSensorCoefficients 0070  
                  __CFG_LPBOREN$OFF 0000                    ??_PMD_Initialize 0023  
                          ??___lmul 002B               __end_of_BME280_read16 09AB  
             __end_of_BME280_read24 0BF2                            ??_printf 0076  
             __end_of_BME280_write8 17A0                    BME280_write8@reg 0028  
                 __size_of___altoft 003D                   __size_of___ftpack 0065  
                 __size_of___lltoft 002A                           ___latbits 0002  
                 __size_of___lwtoft 0015                       __pcstackBANK0 0020  
                     __pcstackBANK1 00C5                      ??_BME280_read8 0029  
        __size_of_EUSART_Initialize 000B                    _BME280_read16_LE 16BD  
               __end_of_EUSART_Read 165C      __end_of_readSensorCoefficients 0CF0  
                  _I2C_Master_Start 15FC                            ?_LireLux 004F  
                  _I2C_Master_Write 1612                        ?_BH1750_Read 0029  
            _PIN_MANAGER_Initialize 0837                            ?___ftdiv 0031  
                          ?___lldiv 0023                            ?___fttol 0041  
                 __size_of_spiWrite 0006                            _BAUD1CON 019F  
               BME280_read16_LE@reg 0036                            ?_spiInit 0023  
                         _monBuffer 00A0                      __size_of_putch 0005  
                         _interupt1 0004                spiInit@sTransmitEdge 0025  
                         clear_ram0 160C                            _PIE1bits 0091  
   __size_of_BME280_readTemperature 01F9                  spiInit@sDataSample 0023  
                          _PIR1bits 0011                     BME280_read8@reg 002B  
                          _SSP1CON1 0215                            _SSP1CON2 0216  
           __size_of_interpretation 0027                            _SSP2CON1 021D  
                          _SSP1STAT 0214                            _SSP2STAT 021C  
__size_of_EnablePeripheralInterupts 0002               __size_of_BH1750_Write 001B  
       __end_of_BME280_readHumidity 1000                          printf@flag 0079  
                 LireLux@resolution 0052             ??_EnableGlobalinterupts 0023  
       __end_of_BME280_readPressure 0521                         _EUSART_Read 1650  
               I2C_Master_Read@temp 0027                   ___lmul@multiplier 0023  
                        ?_interupt1 0070                    __size_of_LireLux 0062  
                      _BH1750_Write 1687                __end_of_BME280_read8 08BA  
           ??_OSCILLATOR_Initialize 0023                    __size_of___ftdiv 00A9  
                  __size_of___lldiv 0053                            ___altoft 07C3  
                  __size_of___fttol 0087                            ___ftpack 0A0D  
                          ___lltoft 1747                            ___lwtoft 165C  
                          _cal_data 00A4              _BME280_readTemperature 0521  
                   _I2C_Master_Init 17D0                     _I2C_Master_Read 16FB  
                   _I2C_Master_Wait 1621                     interpretation@i 0020  
                   _I2C_Master_Stop 1601                            __ptext10 1631  
                          __ptext11 17D0                            __ptext20 15F2  
                          __ptext12 163A                            __ptext21 0521  
                          __ptext13 09AB                            __ptext30 0A0D  
                          __ptext22 0046                            __ptext14 165C  
                          __ptext31 0954                            __ptext23 1747  
                          __ptext15 0AE0                            __ptext32 1671  
                          __ptext24 0901                            __ptext16 1687  
                          __ptext41 1720                            __ptext33 1771  
                          __ptext25 0B67                            __ptext17 0804  
                          __ptext42 08BA                            __ptext34 0877  
                          __ptext26 0CF0                            __ptext18 15F4  
                          __ptext43 15F7                            __ptext35 1612  
                          __ptext27 17A0                            __ptext19 0002  
                          __ptext44 1619                            __ptext36 1601  
                          __ptext28 071A                            __ptext45 1650  
                          __ptext37 15FC                            __ptext29 07C3  
                          __ptext38 16FB                            __ptext39 1621  
                  __size_of_spiInit 001B                        _SSP1CON2bits 0216  
                     __size_of_main 006E                          _RA4PPSbits 0E94  
                        _RC0PPSbits 0EA0                          _RA5PPSbits 0E95  
                        _RC1STAbits 019D                          _RC2PPSbits 0EA2  
                          _spiWrite 1606                          _RC4PPSbits 0EA4  
              __size_of_BH1750_Read 0033                            int$flags 007E  
                      spiInit@sType 0026                   spiInit@sClockIdle 0024  
                      _SSP2STATbits 021C            __end_of_BME280_read16_LE 16D8  
                   main@temperature 005D         __size_of_BME280_goForceMode 0016  
                    BH1750_Read@res 002B            __end_of_I2C_Master_Start 1601  
          __end_of_I2C_Master_Write 1619                          _INTCONbits 000B  
           __size_of_WDT_Initialize 0004                            intlevel1 0000  
                       ??_interupt1 0021                    ___lldiv@dividend 0027  
           ?_PIN_MANAGER_Initialize 0070                   __CFG_CLKOUTEN$OFF 0000  
                 BME280_read24@temp 0032                   BME280_read16@temp 002E  
          _BME280_readHumidity$1421 00DC            _BME280_readHumidity$1422 00C9  
          _BME280_readHumidity$1423 00CD            _BME280_readHumidity$1424 00D1  
          _BME280_readHumidity$1425 00D5                      _interpretation 1720  
                          printf@ap 007A                BME280_readHumidity@h 00D9  
           __end_of_I2C_Master_Init 1800             __end_of_I2C_Master_Read 1720  
           __end_of_I2C_Master_Wait 1629             __end_of_I2C_Master_Stop 1606  
                     __pstringtext1 1800                       __pstringtext2 1815  
                     __pstringtext3 0000                    ___lldiv@quotient 002C  
                 I2C_Master_Write@d 0023            BME280_readPressure@adc_P 00C5  
                        _TX1STAbits 019E                  EUSART_Write@txData 0070  
    __end_of_PIN_MANAGER_Initialize 0877              __size_of_BME280_read16 0057  
            __size_of_BME280_read24 008B             BME280_readPressure@var1 00D5  
           BME280_readPressure@var2 00CD               __size_of_BME280_read8 0043  
            __size_of_BME280_write8 002F              __end_of_interpretation 1747  
              BME280_readPressure@p 00D1  
